
kernel.elf:     file format elf32-i386


Disassembly of section .mbh:

00300000 <mbh>:
  300000:	02 b0 ad 1b 03 00    	add    0x31bad(%eax),%dh
  300006:	00 00                	add    %al,(%eax)
  300008:	fb                   	sti    
  300009:	4f                   	dec    %edi
  30000a:	52                   	push   %edx
  30000b:	e4                   	.byte 0xe4

Disassembly of section .idt_jmp:

00302010 <idt_trampoline>:
  302010:	6a ff                	push   $0xffffffff
  302012:	6a 00                	push   $0x0
  302014:	e9 36 1f 00 00       	jmp    303f4f <idt_common>
  302019:	8d b4 26 00 00 00 00 	lea    0x0(%esi,%eiz,1),%esi
  302020:	6a ff                	push   $0xffffffff
  302022:	6a 01                	push   $0x1
  302024:	e9 26 1f 00 00       	jmp    303f4f <idt_common>
  302029:	8d b4 26 00 00 00 00 	lea    0x0(%esi,%eiz,1),%esi
  302030:	6a ff                	push   $0xffffffff
  302032:	6a 02                	push   $0x2
  302034:	e9 16 1f 00 00       	jmp    303f4f <idt_common>
  302039:	8d b4 26 00 00 00 00 	lea    0x0(%esi,%eiz,1),%esi
  302040:	6a ff                	push   $0xffffffff
  302042:	6a 03                	push   $0x3
  302044:	e9 06 1f 00 00       	jmp    303f4f <idt_common>
  302049:	8d b4 26 00 00 00 00 	lea    0x0(%esi,%eiz,1),%esi
  302050:	6a ff                	push   $0xffffffff
  302052:	6a 04                	push   $0x4
  302054:	e9 f6 1e 00 00       	jmp    303f4f <idt_common>
  302059:	8d b4 26 00 00 00 00 	lea    0x0(%esi,%eiz,1),%esi
  302060:	6a ff                	push   $0xffffffff
  302062:	6a 05                	push   $0x5
  302064:	e9 e6 1e 00 00       	jmp    303f4f <idt_common>
  302069:	8d b4 26 00 00 00 00 	lea    0x0(%esi,%eiz,1),%esi
  302070:	6a ff                	push   $0xffffffff
  302072:	6a 06                	push   $0x6
  302074:	e9 d6 1e 00 00       	jmp    303f4f <idt_common>
  302079:	8d b4 26 00 00 00 00 	lea    0x0(%esi,%eiz,1),%esi
  302080:	6a ff                	push   $0xffffffff
  302082:	6a 07                	push   $0x7
  302084:	e9 c6 1e 00 00       	jmp    303f4f <idt_common>
  302089:	8d b4 26 00 00 00 00 	lea    0x0(%esi,%eiz,1),%esi
  302090:	6a 08                	push   $0x8
  302092:	e9 b8 1e 00 00       	jmp    303f4f <idt_common>
  302097:	89 f6                	mov    %esi,%esi
  302099:	8d bc 27 00 00 00 00 	lea    0x0(%edi,%eiz,1),%edi
  3020a0:	6a ff                	push   $0xffffffff
  3020a2:	6a 09                	push   $0x9
  3020a4:	e9 a6 1e 00 00       	jmp    303f4f <idt_common>
  3020a9:	8d b4 26 00 00 00 00 	lea    0x0(%esi,%eiz,1),%esi
  3020b0:	6a 0a                	push   $0xa
  3020b2:	e9 98 1e 00 00       	jmp    303f4f <idt_common>
  3020b7:	89 f6                	mov    %esi,%esi
  3020b9:	8d bc 27 00 00 00 00 	lea    0x0(%edi,%eiz,1),%edi
  3020c0:	6a 0b                	push   $0xb
  3020c2:	e9 88 1e 00 00       	jmp    303f4f <idt_common>
  3020c7:	89 f6                	mov    %esi,%esi
  3020c9:	8d bc 27 00 00 00 00 	lea    0x0(%edi,%eiz,1),%edi
  3020d0:	6a 0c                	push   $0xc
  3020d2:	e9 78 1e 00 00       	jmp    303f4f <idt_common>
  3020d7:	89 f6                	mov    %esi,%esi
  3020d9:	8d bc 27 00 00 00 00 	lea    0x0(%edi,%eiz,1),%edi
  3020e0:	6a 0d                	push   $0xd
  3020e2:	e9 68 1e 00 00       	jmp    303f4f <idt_common>
  3020e7:	89 f6                	mov    %esi,%esi
  3020e9:	8d bc 27 00 00 00 00 	lea    0x0(%edi,%eiz,1),%edi
  3020f0:	6a 0e                	push   $0xe
  3020f2:	e9 58 1e 00 00       	jmp    303f4f <idt_common>
  3020f7:	89 f6                	mov    %esi,%esi
  3020f9:	8d bc 27 00 00 00 00 	lea    0x0(%edi,%eiz,1),%edi
  302100:	6a ff                	push   $0xffffffff
  302102:	6a 0f                	push   $0xf
  302104:	e9 46 1e 00 00       	jmp    303f4f <idt_common>
  302109:	8d b4 26 00 00 00 00 	lea    0x0(%esi,%eiz,1),%esi
  302110:	6a ff                	push   $0xffffffff
  302112:	6a 10                	push   $0x10
  302114:	e9 36 1e 00 00       	jmp    303f4f <idt_common>
  302119:	8d b4 26 00 00 00 00 	lea    0x0(%esi,%eiz,1),%esi
  302120:	6a 11                	push   $0x11
  302122:	e9 28 1e 00 00       	jmp    303f4f <idt_common>
  302127:	89 f6                	mov    %esi,%esi
  302129:	8d bc 27 00 00 00 00 	lea    0x0(%edi,%eiz,1),%edi
  302130:	6a ff                	push   $0xffffffff
  302132:	6a 12                	push   $0x12
  302134:	e9 16 1e 00 00       	jmp    303f4f <idt_common>
  302139:	8d b4 26 00 00 00 00 	lea    0x0(%esi,%eiz,1),%esi
  302140:	6a ff                	push   $0xffffffff
  302142:	6a 13                	push   $0x13
  302144:	e9 06 1e 00 00       	jmp    303f4f <idt_common>
  302149:	8d b4 26 00 00 00 00 	lea    0x0(%esi,%eiz,1),%esi
  302150:	cf                   	iret   
  302151:	eb 0d                	jmp    302160 <idt_trampoline+0x150>
  302153:	90                   	nop
  302154:	90                   	nop
  302155:	90                   	nop
  302156:	90                   	nop
  302157:	90                   	nop
  302158:	90                   	nop
  302159:	90                   	nop
  30215a:	90                   	nop
  30215b:	90                   	nop
  30215c:	90                   	nop
  30215d:	90                   	nop
  30215e:	90                   	nop
  30215f:	90                   	nop
  302160:	cf                   	iret   
  302161:	eb 0d                	jmp    302170 <idt_trampoline+0x160>
  302163:	90                   	nop
  302164:	90                   	nop
  302165:	90                   	nop
  302166:	90                   	nop
  302167:	90                   	nop
  302168:	90                   	nop
  302169:	90                   	nop
  30216a:	90                   	nop
  30216b:	90                   	nop
  30216c:	90                   	nop
  30216d:	90                   	nop
  30216e:	90                   	nop
  30216f:	90                   	nop
  302170:	cf                   	iret   
  302171:	eb 0d                	jmp    302180 <idt_trampoline+0x170>
  302173:	90                   	nop
  302174:	90                   	nop
  302175:	90                   	nop
  302176:	90                   	nop
  302177:	90                   	nop
  302178:	90                   	nop
  302179:	90                   	nop
  30217a:	90                   	nop
  30217b:	90                   	nop
  30217c:	90                   	nop
  30217d:	90                   	nop
  30217e:	90                   	nop
  30217f:	90                   	nop
  302180:	cf                   	iret   
  302181:	eb 0d                	jmp    302190 <idt_trampoline+0x180>
  302183:	90                   	nop
  302184:	90                   	nop
  302185:	90                   	nop
  302186:	90                   	nop
  302187:	90                   	nop
  302188:	90                   	nop
  302189:	90                   	nop
  30218a:	90                   	nop
  30218b:	90                   	nop
  30218c:	90                   	nop
  30218d:	90                   	nop
  30218e:	90                   	nop
  30218f:	90                   	nop
  302190:	cf                   	iret   
  302191:	eb 0d                	jmp    3021a0 <idt_trampoline+0x190>
  302193:	90                   	nop
  302194:	90                   	nop
  302195:	90                   	nop
  302196:	90                   	nop
  302197:	90                   	nop
  302198:	90                   	nop
  302199:	90                   	nop
  30219a:	90                   	nop
  30219b:	90                   	nop
  30219c:	90                   	nop
  30219d:	90                   	nop
  30219e:	90                   	nop
  30219f:	90                   	nop
  3021a0:	cf                   	iret   
  3021a1:	eb 0d                	jmp    3021b0 <idt_trampoline+0x1a0>
  3021a3:	90                   	nop
  3021a4:	90                   	nop
  3021a5:	90                   	nop
  3021a6:	90                   	nop
  3021a7:	90                   	nop
  3021a8:	90                   	nop
  3021a9:	90                   	nop
  3021aa:	90                   	nop
  3021ab:	90                   	nop
  3021ac:	90                   	nop
  3021ad:	90                   	nop
  3021ae:	90                   	nop
  3021af:	90                   	nop
  3021b0:	cf                   	iret   
  3021b1:	eb 0d                	jmp    3021c0 <idt_trampoline+0x1b0>
  3021b3:	90                   	nop
  3021b4:	90                   	nop
  3021b5:	90                   	nop
  3021b6:	90                   	nop
  3021b7:	90                   	nop
  3021b8:	90                   	nop
  3021b9:	90                   	nop
  3021ba:	90                   	nop
  3021bb:	90                   	nop
  3021bc:	90                   	nop
  3021bd:	90                   	nop
  3021be:	90                   	nop
  3021bf:	90                   	nop
  3021c0:	cf                   	iret   
  3021c1:	eb 0d                	jmp    3021d0 <idt_trampoline+0x1c0>
  3021c3:	90                   	nop
  3021c4:	90                   	nop
  3021c5:	90                   	nop
  3021c6:	90                   	nop
  3021c7:	90                   	nop
  3021c8:	90                   	nop
  3021c9:	90                   	nop
  3021ca:	90                   	nop
  3021cb:	90                   	nop
  3021cc:	90                   	nop
  3021cd:	90                   	nop
  3021ce:	90                   	nop
  3021cf:	90                   	nop
  3021d0:	cf                   	iret   
  3021d1:	eb 0d                	jmp    3021e0 <idt_trampoline+0x1d0>
  3021d3:	90                   	nop
  3021d4:	90                   	nop
  3021d5:	90                   	nop
  3021d6:	90                   	nop
  3021d7:	90                   	nop
  3021d8:	90                   	nop
  3021d9:	90                   	nop
  3021da:	90                   	nop
  3021db:	90                   	nop
  3021dc:	90                   	nop
  3021dd:	90                   	nop
  3021de:	90                   	nop
  3021df:	90                   	nop
  3021e0:	cf                   	iret   
  3021e1:	eb 0d                	jmp    3021f0 <idt_trampoline+0x1e0>
  3021e3:	90                   	nop
  3021e4:	90                   	nop
  3021e5:	90                   	nop
  3021e6:	90                   	nop
  3021e7:	90                   	nop
  3021e8:	90                   	nop
  3021e9:	90                   	nop
  3021ea:	90                   	nop
  3021eb:	90                   	nop
  3021ec:	90                   	nop
  3021ed:	90                   	nop
  3021ee:	90                   	nop
  3021ef:	90                   	nop
  3021f0:	cf                   	iret   
  3021f1:	eb 0d                	jmp    302200 <idt_trampoline+0x1f0>
  3021f3:	90                   	nop
  3021f4:	90                   	nop
  3021f5:	90                   	nop
  3021f6:	90                   	nop
  3021f7:	90                   	nop
  3021f8:	90                   	nop
  3021f9:	90                   	nop
  3021fa:	90                   	nop
  3021fb:	90                   	nop
  3021fc:	90                   	nop
  3021fd:	90                   	nop
  3021fe:	90                   	nop
  3021ff:	90                   	nop
  302200:	cf                   	iret   
  302201:	eb 0d                	jmp    302210 <idt_trampoline+0x200>
  302203:	90                   	nop
  302204:	90                   	nop
  302205:	90                   	nop
  302206:	90                   	nop
  302207:	90                   	nop
  302208:	90                   	nop
  302209:	90                   	nop
  30220a:	90                   	nop
  30220b:	90                   	nop
  30220c:	90                   	nop
  30220d:	90                   	nop
  30220e:	90                   	nop
  30220f:	90                   	nop
  302210:	6a ff                	push   $0xffffffff
  302212:	6a 20                	push   $0x20
  302214:	e9 30 1d 00 00       	jmp    303f49 <ack_pic1>
  302219:	8d b4 26 00 00 00 00 	lea    0x0(%esi,%eiz,1),%esi
  302220:	6a ff                	push   $0xffffffff
  302222:	6a 21                	push   $0x21
  302224:	e9 20 1d 00 00       	jmp    303f49 <ack_pic1>
  302229:	8d b4 26 00 00 00 00 	lea    0x0(%esi,%eiz,1),%esi
  302230:	6a ff                	push   $0xffffffff
  302232:	6a 22                	push   $0x22
  302234:	e9 10 1d 00 00       	jmp    303f49 <ack_pic1>
  302239:	8d b4 26 00 00 00 00 	lea    0x0(%esi,%eiz,1),%esi
  302240:	6a ff                	push   $0xffffffff
  302242:	6a 23                	push   $0x23
  302244:	e9 00 1d 00 00       	jmp    303f49 <ack_pic1>
  302249:	8d b4 26 00 00 00 00 	lea    0x0(%esi,%eiz,1),%esi
  302250:	6a ff                	push   $0xffffffff
  302252:	6a 24                	push   $0x24
  302254:	e9 f0 1c 00 00       	jmp    303f49 <ack_pic1>
  302259:	8d b4 26 00 00 00 00 	lea    0x0(%esi,%eiz,1),%esi
  302260:	6a ff                	push   $0xffffffff
  302262:	6a 25                	push   $0x25
  302264:	e9 e0 1c 00 00       	jmp    303f49 <ack_pic1>
  302269:	8d b4 26 00 00 00 00 	lea    0x0(%esi,%eiz,1),%esi
  302270:	6a ff                	push   $0xffffffff
  302272:	6a 26                	push   $0x26
  302274:	e9 d0 1c 00 00       	jmp    303f49 <ack_pic1>
  302279:	8d b4 26 00 00 00 00 	lea    0x0(%esi,%eiz,1),%esi
  302280:	6a ff                	push   $0xffffffff
  302282:	6a 27                	push   $0x27
  302284:	e9 c0 1c 00 00       	jmp    303f49 <ack_pic1>
  302289:	8d b4 26 00 00 00 00 	lea    0x0(%esi,%eiz,1),%esi
  302290:	6a ff                	push   $0xffffffff
  302292:	6a 28                	push   $0x28
  302294:	e9 a9 1c 00 00       	jmp    303f42 <ack_pic2>
  302299:	8d b4 26 00 00 00 00 	lea    0x0(%esi,%eiz,1),%esi
  3022a0:	6a ff                	push   $0xffffffff
  3022a2:	6a 29                	push   $0x29
  3022a4:	e9 99 1c 00 00       	jmp    303f42 <ack_pic2>
  3022a9:	8d b4 26 00 00 00 00 	lea    0x0(%esi,%eiz,1),%esi
  3022b0:	6a ff                	push   $0xffffffff
  3022b2:	6a 2a                	push   $0x2a
  3022b4:	e9 89 1c 00 00       	jmp    303f42 <ack_pic2>
  3022b9:	8d b4 26 00 00 00 00 	lea    0x0(%esi,%eiz,1),%esi
  3022c0:	6a ff                	push   $0xffffffff
  3022c2:	6a 2b                	push   $0x2b
  3022c4:	e9 79 1c 00 00       	jmp    303f42 <ack_pic2>
  3022c9:	8d b4 26 00 00 00 00 	lea    0x0(%esi,%eiz,1),%esi
  3022d0:	6a ff                	push   $0xffffffff
  3022d2:	6a 2c                	push   $0x2c
  3022d4:	e9 69 1c 00 00       	jmp    303f42 <ack_pic2>
  3022d9:	8d b4 26 00 00 00 00 	lea    0x0(%esi,%eiz,1),%esi
  3022e0:	6a ff                	push   $0xffffffff
  3022e2:	6a 2d                	push   $0x2d
  3022e4:	e9 59 1c 00 00       	jmp    303f42 <ack_pic2>
  3022e9:	8d b4 26 00 00 00 00 	lea    0x0(%esi,%eiz,1),%esi
  3022f0:	6a ff                	push   $0xffffffff
  3022f2:	6a 2e                	push   $0x2e
  3022f4:	e9 49 1c 00 00       	jmp    303f42 <ack_pic2>
  3022f9:	8d b4 26 00 00 00 00 	lea    0x0(%esi,%eiz,1),%esi
  302300:	6a ff                	push   $0xffffffff
  302302:	6a 2f                	push   $0x2f
  302304:	e9 39 1c 00 00       	jmp    303f42 <ack_pic2>
  302309:	8d b4 26 00 00 00 00 	lea    0x0(%esi,%eiz,1),%esi
  302310:	6a ff                	push   $0xffffffff
  302312:	6a 30                	push   $0x30
  302314:	e9 36 1c 00 00       	jmp    303f4f <idt_common>
  302319:	8d b4 26 00 00 00 00 	lea    0x0(%esi,%eiz,1),%esi
  302320:	6a ff                	push   $0xffffffff
  302322:	6a 31                	push   $0x31
  302324:	e9 26 1c 00 00       	jmp    303f4f <idt_common>
  302329:	8d b4 26 00 00 00 00 	lea    0x0(%esi,%eiz,1),%esi
  302330:	6a ff                	push   $0xffffffff
  302332:	6a 32                	push   $0x32
  302334:	e9 16 1c 00 00       	jmp    303f4f <idt_common>
  302339:	8d b4 26 00 00 00 00 	lea    0x0(%esi,%eiz,1),%esi
  302340:	6a ff                	push   $0xffffffff
  302342:	6a 33                	push   $0x33
  302344:	e9 06 1c 00 00       	jmp    303f4f <idt_common>
  302349:	8d b4 26 00 00 00 00 	lea    0x0(%esi,%eiz,1),%esi
  302350:	6a ff                	push   $0xffffffff
  302352:	6a 34                	push   $0x34
  302354:	e9 f6 1b 00 00       	jmp    303f4f <idt_common>
  302359:	8d b4 26 00 00 00 00 	lea    0x0(%esi,%eiz,1),%esi
  302360:	6a ff                	push   $0xffffffff
  302362:	6a 35                	push   $0x35
  302364:	e9 e6 1b 00 00       	jmp    303f4f <idt_common>
  302369:	8d b4 26 00 00 00 00 	lea    0x0(%esi,%eiz,1),%esi
  302370:	6a ff                	push   $0xffffffff
  302372:	6a 36                	push   $0x36
  302374:	e9 d6 1b 00 00       	jmp    303f4f <idt_common>
  302379:	8d b4 26 00 00 00 00 	lea    0x0(%esi,%eiz,1),%esi
  302380:	6a ff                	push   $0xffffffff
  302382:	6a 37                	push   $0x37
  302384:	e9 c6 1b 00 00       	jmp    303f4f <idt_common>
  302389:	8d b4 26 00 00 00 00 	lea    0x0(%esi,%eiz,1),%esi
  302390:	6a ff                	push   $0xffffffff
  302392:	6a 38                	push   $0x38
  302394:	e9 b6 1b 00 00       	jmp    303f4f <idt_common>
  302399:	8d b4 26 00 00 00 00 	lea    0x0(%esi,%eiz,1),%esi
  3023a0:	6a ff                	push   $0xffffffff
  3023a2:	6a 39                	push   $0x39
  3023a4:	e9 a6 1b 00 00       	jmp    303f4f <idt_common>
  3023a9:	8d b4 26 00 00 00 00 	lea    0x0(%esi,%eiz,1),%esi
  3023b0:	6a ff                	push   $0xffffffff
  3023b2:	6a 3a                	push   $0x3a
  3023b4:	e9 96 1b 00 00       	jmp    303f4f <idt_common>
  3023b9:	8d b4 26 00 00 00 00 	lea    0x0(%esi,%eiz,1),%esi
  3023c0:	6a ff                	push   $0xffffffff
  3023c2:	6a 3b                	push   $0x3b
  3023c4:	e9 86 1b 00 00       	jmp    303f4f <idt_common>
  3023c9:	8d b4 26 00 00 00 00 	lea    0x0(%esi,%eiz,1),%esi
  3023d0:	6a ff                	push   $0xffffffff
  3023d2:	6a 3c                	push   $0x3c
  3023d4:	e9 76 1b 00 00       	jmp    303f4f <idt_common>
  3023d9:	8d b4 26 00 00 00 00 	lea    0x0(%esi,%eiz,1),%esi
  3023e0:	6a ff                	push   $0xffffffff
  3023e2:	6a 3d                	push   $0x3d
  3023e4:	e9 66 1b 00 00       	jmp    303f4f <idt_common>
  3023e9:	8d b4 26 00 00 00 00 	lea    0x0(%esi,%eiz,1),%esi
  3023f0:	6a ff                	push   $0xffffffff
  3023f2:	6a 3e                	push   $0x3e
  3023f4:	e9 56 1b 00 00       	jmp    303f4f <idt_common>
  3023f9:	8d b4 26 00 00 00 00 	lea    0x0(%esi,%eiz,1),%esi
  302400:	6a ff                	push   $0xffffffff
  302402:	6a 3f                	push   $0x3f
  302404:	e9 46 1b 00 00       	jmp    303f4f <idt_common>
  302409:	8d b4 26 00 00 00 00 	lea    0x0(%esi,%eiz,1),%esi
  302410:	6a ff                	push   $0xffffffff
  302412:	6a 40                	push   $0x40
  302414:	e9 36 1b 00 00       	jmp    303f4f <idt_common>
  302419:	8d b4 26 00 00 00 00 	lea    0x0(%esi,%eiz,1),%esi
  302420:	6a ff                	push   $0xffffffff
  302422:	6a 41                	push   $0x41
  302424:	e9 26 1b 00 00       	jmp    303f4f <idt_common>
  302429:	8d b4 26 00 00 00 00 	lea    0x0(%esi,%eiz,1),%esi
  302430:	6a ff                	push   $0xffffffff
  302432:	6a 42                	push   $0x42
  302434:	e9 16 1b 00 00       	jmp    303f4f <idt_common>
  302439:	8d b4 26 00 00 00 00 	lea    0x0(%esi,%eiz,1),%esi
  302440:	6a ff                	push   $0xffffffff
  302442:	6a 43                	push   $0x43
  302444:	e9 06 1b 00 00       	jmp    303f4f <idt_common>
  302449:	8d b4 26 00 00 00 00 	lea    0x0(%esi,%eiz,1),%esi
  302450:	6a ff                	push   $0xffffffff
  302452:	6a 44                	push   $0x44
  302454:	e9 f6 1a 00 00       	jmp    303f4f <idt_common>
  302459:	8d b4 26 00 00 00 00 	lea    0x0(%esi,%eiz,1),%esi
  302460:	6a ff                	push   $0xffffffff
  302462:	6a 45                	push   $0x45
  302464:	e9 e6 1a 00 00       	jmp    303f4f <idt_common>
  302469:	8d b4 26 00 00 00 00 	lea    0x0(%esi,%eiz,1),%esi
  302470:	6a ff                	push   $0xffffffff
  302472:	6a 46                	push   $0x46
  302474:	e9 d6 1a 00 00       	jmp    303f4f <idt_common>
  302479:	8d b4 26 00 00 00 00 	lea    0x0(%esi,%eiz,1),%esi
  302480:	6a ff                	push   $0xffffffff
  302482:	6a 47                	push   $0x47
  302484:	e9 c6 1a 00 00       	jmp    303f4f <idt_common>
  302489:	8d b4 26 00 00 00 00 	lea    0x0(%esi,%eiz,1),%esi
  302490:	6a ff                	push   $0xffffffff
  302492:	6a 48                	push   $0x48
  302494:	e9 b6 1a 00 00       	jmp    303f4f <idt_common>
  302499:	8d b4 26 00 00 00 00 	lea    0x0(%esi,%eiz,1),%esi
  3024a0:	6a ff                	push   $0xffffffff
  3024a2:	6a 49                	push   $0x49
  3024a4:	e9 a6 1a 00 00       	jmp    303f4f <idt_common>
  3024a9:	8d b4 26 00 00 00 00 	lea    0x0(%esi,%eiz,1),%esi
  3024b0:	6a ff                	push   $0xffffffff
  3024b2:	6a 4a                	push   $0x4a
  3024b4:	e9 96 1a 00 00       	jmp    303f4f <idt_common>
  3024b9:	8d b4 26 00 00 00 00 	lea    0x0(%esi,%eiz,1),%esi
  3024c0:	6a ff                	push   $0xffffffff
  3024c2:	6a 4b                	push   $0x4b
  3024c4:	e9 86 1a 00 00       	jmp    303f4f <idt_common>
  3024c9:	8d b4 26 00 00 00 00 	lea    0x0(%esi,%eiz,1),%esi
  3024d0:	6a ff                	push   $0xffffffff
  3024d2:	6a 4c                	push   $0x4c
  3024d4:	e9 76 1a 00 00       	jmp    303f4f <idt_common>
  3024d9:	8d b4 26 00 00 00 00 	lea    0x0(%esi,%eiz,1),%esi
  3024e0:	6a ff                	push   $0xffffffff
  3024e2:	6a 4d                	push   $0x4d
  3024e4:	e9 66 1a 00 00       	jmp    303f4f <idt_common>
  3024e9:	8d b4 26 00 00 00 00 	lea    0x0(%esi,%eiz,1),%esi
  3024f0:	6a ff                	push   $0xffffffff
  3024f2:	6a 4e                	push   $0x4e
  3024f4:	e9 56 1a 00 00       	jmp    303f4f <idt_common>
  3024f9:	8d b4 26 00 00 00 00 	lea    0x0(%esi,%eiz,1),%esi
  302500:	6a ff                	push   $0xffffffff
  302502:	6a 4f                	push   $0x4f
  302504:	e9 46 1a 00 00       	jmp    303f4f <idt_common>
  302509:	8d b4 26 00 00 00 00 	lea    0x0(%esi,%eiz,1),%esi
  302510:	6a ff                	push   $0xffffffff
  302512:	6a 50                	push   $0x50
  302514:	e9 36 1a 00 00       	jmp    303f4f <idt_common>
  302519:	8d b4 26 00 00 00 00 	lea    0x0(%esi,%eiz,1),%esi
  302520:	6a ff                	push   $0xffffffff
  302522:	6a 51                	push   $0x51
  302524:	e9 26 1a 00 00       	jmp    303f4f <idt_common>
  302529:	8d b4 26 00 00 00 00 	lea    0x0(%esi,%eiz,1),%esi
  302530:	6a ff                	push   $0xffffffff
  302532:	6a 52                	push   $0x52
  302534:	e9 16 1a 00 00       	jmp    303f4f <idt_common>
  302539:	8d b4 26 00 00 00 00 	lea    0x0(%esi,%eiz,1),%esi
  302540:	6a ff                	push   $0xffffffff
  302542:	6a 53                	push   $0x53
  302544:	e9 06 1a 00 00       	jmp    303f4f <idt_common>
  302549:	8d b4 26 00 00 00 00 	lea    0x0(%esi,%eiz,1),%esi
  302550:	6a ff                	push   $0xffffffff
  302552:	6a 54                	push   $0x54
  302554:	e9 f6 19 00 00       	jmp    303f4f <idt_common>
  302559:	8d b4 26 00 00 00 00 	lea    0x0(%esi,%eiz,1),%esi
  302560:	6a ff                	push   $0xffffffff
  302562:	6a 55                	push   $0x55
  302564:	e9 e6 19 00 00       	jmp    303f4f <idt_common>
  302569:	8d b4 26 00 00 00 00 	lea    0x0(%esi,%eiz,1),%esi
  302570:	6a ff                	push   $0xffffffff
  302572:	6a 56                	push   $0x56
  302574:	e9 d6 19 00 00       	jmp    303f4f <idt_common>
  302579:	8d b4 26 00 00 00 00 	lea    0x0(%esi,%eiz,1),%esi
  302580:	6a ff                	push   $0xffffffff
  302582:	6a 57                	push   $0x57
  302584:	e9 c6 19 00 00       	jmp    303f4f <idt_common>
  302589:	8d b4 26 00 00 00 00 	lea    0x0(%esi,%eiz,1),%esi
  302590:	6a ff                	push   $0xffffffff
  302592:	6a 58                	push   $0x58
  302594:	e9 b6 19 00 00       	jmp    303f4f <idt_common>
  302599:	8d b4 26 00 00 00 00 	lea    0x0(%esi,%eiz,1),%esi
  3025a0:	6a ff                	push   $0xffffffff
  3025a2:	6a 59                	push   $0x59
  3025a4:	e9 a6 19 00 00       	jmp    303f4f <idt_common>
  3025a9:	8d b4 26 00 00 00 00 	lea    0x0(%esi,%eiz,1),%esi
  3025b0:	6a ff                	push   $0xffffffff
  3025b2:	6a 5a                	push   $0x5a
  3025b4:	e9 96 19 00 00       	jmp    303f4f <idt_common>
  3025b9:	8d b4 26 00 00 00 00 	lea    0x0(%esi,%eiz,1),%esi
  3025c0:	6a ff                	push   $0xffffffff
  3025c2:	6a 5b                	push   $0x5b
  3025c4:	e9 86 19 00 00       	jmp    303f4f <idt_common>
  3025c9:	8d b4 26 00 00 00 00 	lea    0x0(%esi,%eiz,1),%esi
  3025d0:	6a ff                	push   $0xffffffff
  3025d2:	6a 5c                	push   $0x5c
  3025d4:	e9 76 19 00 00       	jmp    303f4f <idt_common>
  3025d9:	8d b4 26 00 00 00 00 	lea    0x0(%esi,%eiz,1),%esi
  3025e0:	6a ff                	push   $0xffffffff
  3025e2:	6a 5d                	push   $0x5d
  3025e4:	e9 66 19 00 00       	jmp    303f4f <idt_common>
  3025e9:	8d b4 26 00 00 00 00 	lea    0x0(%esi,%eiz,1),%esi
  3025f0:	6a ff                	push   $0xffffffff
  3025f2:	6a 5e                	push   $0x5e
  3025f4:	e9 56 19 00 00       	jmp    303f4f <idt_common>
  3025f9:	8d b4 26 00 00 00 00 	lea    0x0(%esi,%eiz,1),%esi
  302600:	6a ff                	push   $0xffffffff
  302602:	6a 5f                	push   $0x5f
  302604:	e9 46 19 00 00       	jmp    303f4f <idt_common>
  302609:	8d b4 26 00 00 00 00 	lea    0x0(%esi,%eiz,1),%esi
  302610:	6a ff                	push   $0xffffffff
  302612:	6a 60                	push   $0x60
  302614:	e9 36 19 00 00       	jmp    303f4f <idt_common>
  302619:	8d b4 26 00 00 00 00 	lea    0x0(%esi,%eiz,1),%esi
  302620:	6a ff                	push   $0xffffffff
  302622:	6a 61                	push   $0x61
  302624:	e9 26 19 00 00       	jmp    303f4f <idt_common>
  302629:	8d b4 26 00 00 00 00 	lea    0x0(%esi,%eiz,1),%esi
  302630:	6a ff                	push   $0xffffffff
  302632:	6a 62                	push   $0x62
  302634:	e9 16 19 00 00       	jmp    303f4f <idt_common>
  302639:	8d b4 26 00 00 00 00 	lea    0x0(%esi,%eiz,1),%esi
  302640:	6a ff                	push   $0xffffffff
  302642:	6a 63                	push   $0x63
  302644:	e9 06 19 00 00       	jmp    303f4f <idt_common>
  302649:	8d b4 26 00 00 00 00 	lea    0x0(%esi,%eiz,1),%esi
  302650:	6a ff                	push   $0xffffffff
  302652:	6a 64                	push   $0x64
  302654:	e9 f6 18 00 00       	jmp    303f4f <idt_common>
  302659:	8d b4 26 00 00 00 00 	lea    0x0(%esi,%eiz,1),%esi
  302660:	6a ff                	push   $0xffffffff
  302662:	6a 65                	push   $0x65
  302664:	e9 e6 18 00 00       	jmp    303f4f <idt_common>
  302669:	8d b4 26 00 00 00 00 	lea    0x0(%esi,%eiz,1),%esi
  302670:	6a ff                	push   $0xffffffff
  302672:	6a 66                	push   $0x66
  302674:	e9 d6 18 00 00       	jmp    303f4f <idt_common>
  302679:	8d b4 26 00 00 00 00 	lea    0x0(%esi,%eiz,1),%esi
  302680:	6a ff                	push   $0xffffffff
  302682:	6a 67                	push   $0x67
  302684:	e9 c6 18 00 00       	jmp    303f4f <idt_common>
  302689:	8d b4 26 00 00 00 00 	lea    0x0(%esi,%eiz,1),%esi
  302690:	6a ff                	push   $0xffffffff
  302692:	6a 68                	push   $0x68
  302694:	e9 b6 18 00 00       	jmp    303f4f <idt_common>
  302699:	8d b4 26 00 00 00 00 	lea    0x0(%esi,%eiz,1),%esi
  3026a0:	6a ff                	push   $0xffffffff
  3026a2:	6a 69                	push   $0x69
  3026a4:	e9 a6 18 00 00       	jmp    303f4f <idt_common>
  3026a9:	8d b4 26 00 00 00 00 	lea    0x0(%esi,%eiz,1),%esi
  3026b0:	6a ff                	push   $0xffffffff
  3026b2:	6a 6a                	push   $0x6a
  3026b4:	e9 96 18 00 00       	jmp    303f4f <idt_common>
  3026b9:	8d b4 26 00 00 00 00 	lea    0x0(%esi,%eiz,1),%esi
  3026c0:	6a ff                	push   $0xffffffff
  3026c2:	6a 6b                	push   $0x6b
  3026c4:	e9 86 18 00 00       	jmp    303f4f <idt_common>
  3026c9:	8d b4 26 00 00 00 00 	lea    0x0(%esi,%eiz,1),%esi
  3026d0:	6a ff                	push   $0xffffffff
  3026d2:	6a 6c                	push   $0x6c
  3026d4:	e9 76 18 00 00       	jmp    303f4f <idt_common>
  3026d9:	8d b4 26 00 00 00 00 	lea    0x0(%esi,%eiz,1),%esi
  3026e0:	6a ff                	push   $0xffffffff
  3026e2:	6a 6d                	push   $0x6d
  3026e4:	e9 66 18 00 00       	jmp    303f4f <idt_common>
  3026e9:	8d b4 26 00 00 00 00 	lea    0x0(%esi,%eiz,1),%esi
  3026f0:	6a ff                	push   $0xffffffff
  3026f2:	6a 6e                	push   $0x6e
  3026f4:	e9 56 18 00 00       	jmp    303f4f <idt_common>
  3026f9:	8d b4 26 00 00 00 00 	lea    0x0(%esi,%eiz,1),%esi
  302700:	6a ff                	push   $0xffffffff
  302702:	6a 6f                	push   $0x6f
  302704:	e9 46 18 00 00       	jmp    303f4f <idt_common>
  302709:	8d b4 26 00 00 00 00 	lea    0x0(%esi,%eiz,1),%esi
  302710:	6a ff                	push   $0xffffffff
  302712:	6a 70                	push   $0x70
  302714:	e9 36 18 00 00       	jmp    303f4f <idt_common>
  302719:	8d b4 26 00 00 00 00 	lea    0x0(%esi,%eiz,1),%esi
  302720:	6a ff                	push   $0xffffffff
  302722:	6a 71                	push   $0x71
  302724:	e9 26 18 00 00       	jmp    303f4f <idt_common>
  302729:	8d b4 26 00 00 00 00 	lea    0x0(%esi,%eiz,1),%esi
  302730:	6a ff                	push   $0xffffffff
  302732:	6a 72                	push   $0x72
  302734:	e9 16 18 00 00       	jmp    303f4f <idt_common>
  302739:	8d b4 26 00 00 00 00 	lea    0x0(%esi,%eiz,1),%esi
  302740:	6a ff                	push   $0xffffffff
  302742:	6a 73                	push   $0x73
  302744:	e9 06 18 00 00       	jmp    303f4f <idt_common>
  302749:	8d b4 26 00 00 00 00 	lea    0x0(%esi,%eiz,1),%esi
  302750:	6a ff                	push   $0xffffffff
  302752:	6a 74                	push   $0x74
  302754:	e9 f6 17 00 00       	jmp    303f4f <idt_common>
  302759:	8d b4 26 00 00 00 00 	lea    0x0(%esi,%eiz,1),%esi
  302760:	6a ff                	push   $0xffffffff
  302762:	6a 75                	push   $0x75
  302764:	e9 e6 17 00 00       	jmp    303f4f <idt_common>
  302769:	8d b4 26 00 00 00 00 	lea    0x0(%esi,%eiz,1),%esi
  302770:	6a ff                	push   $0xffffffff
  302772:	6a 76                	push   $0x76
  302774:	e9 d6 17 00 00       	jmp    303f4f <idt_common>
  302779:	8d b4 26 00 00 00 00 	lea    0x0(%esi,%eiz,1),%esi
  302780:	6a ff                	push   $0xffffffff
  302782:	6a 77                	push   $0x77
  302784:	e9 c6 17 00 00       	jmp    303f4f <idt_common>
  302789:	8d b4 26 00 00 00 00 	lea    0x0(%esi,%eiz,1),%esi
  302790:	6a ff                	push   $0xffffffff
  302792:	6a 78                	push   $0x78
  302794:	e9 b6 17 00 00       	jmp    303f4f <idt_common>
  302799:	8d b4 26 00 00 00 00 	lea    0x0(%esi,%eiz,1),%esi
  3027a0:	6a ff                	push   $0xffffffff
  3027a2:	6a 79                	push   $0x79
  3027a4:	e9 a6 17 00 00       	jmp    303f4f <idt_common>
  3027a9:	8d b4 26 00 00 00 00 	lea    0x0(%esi,%eiz,1),%esi
  3027b0:	6a ff                	push   $0xffffffff
  3027b2:	6a 7a                	push   $0x7a
  3027b4:	e9 96 17 00 00       	jmp    303f4f <idt_common>
  3027b9:	8d b4 26 00 00 00 00 	lea    0x0(%esi,%eiz,1),%esi
  3027c0:	6a ff                	push   $0xffffffff
  3027c2:	6a 7b                	push   $0x7b
  3027c4:	e9 86 17 00 00       	jmp    303f4f <idt_common>
  3027c9:	8d b4 26 00 00 00 00 	lea    0x0(%esi,%eiz,1),%esi
  3027d0:	6a ff                	push   $0xffffffff
  3027d2:	6a 7c                	push   $0x7c
  3027d4:	e9 76 17 00 00       	jmp    303f4f <idt_common>
  3027d9:	8d b4 26 00 00 00 00 	lea    0x0(%esi,%eiz,1),%esi
  3027e0:	6a ff                	push   $0xffffffff
  3027e2:	6a 7d                	push   $0x7d
  3027e4:	e9 66 17 00 00       	jmp    303f4f <idt_common>
  3027e9:	8d b4 26 00 00 00 00 	lea    0x0(%esi,%eiz,1),%esi
  3027f0:	6a ff                	push   $0xffffffff
  3027f2:	6a 7e                	push   $0x7e
  3027f4:	e9 56 17 00 00       	jmp    303f4f <idt_common>
  3027f9:	8d b4 26 00 00 00 00 	lea    0x0(%esi,%eiz,1),%esi
  302800:	6a ff                	push   $0xffffffff
  302802:	6a 7f                	push   $0x7f
  302804:	e9 46 17 00 00       	jmp    303f4f <idt_common>
  302809:	8d b4 26 00 00 00 00 	lea    0x0(%esi,%eiz,1),%esi
  302810:	6a ff                	push   $0xffffffff
  302812:	68 80 00 00 00       	push   $0x80
  302817:	e9 33 17 00 00       	jmp    303f4f <idt_common>
  30281c:	8d 74 26 00          	lea    0x0(%esi,%eiz,1),%esi
  302820:	6a ff                	push   $0xffffffff
  302822:	68 81 00 00 00       	push   $0x81
  302827:	e9 23 17 00 00       	jmp    303f4f <idt_common>
  30282c:	8d 74 26 00          	lea    0x0(%esi,%eiz,1),%esi
  302830:	6a ff                	push   $0xffffffff
  302832:	68 82 00 00 00       	push   $0x82
  302837:	e9 13 17 00 00       	jmp    303f4f <idt_common>
  30283c:	8d 74 26 00          	lea    0x0(%esi,%eiz,1),%esi
  302840:	6a ff                	push   $0xffffffff
  302842:	68 83 00 00 00       	push   $0x83
  302847:	e9 03 17 00 00       	jmp    303f4f <idt_common>
  30284c:	8d 74 26 00          	lea    0x0(%esi,%eiz,1),%esi
  302850:	6a ff                	push   $0xffffffff
  302852:	68 84 00 00 00       	push   $0x84
  302857:	e9 f3 16 00 00       	jmp    303f4f <idt_common>
  30285c:	8d 74 26 00          	lea    0x0(%esi,%eiz,1),%esi
  302860:	6a ff                	push   $0xffffffff
  302862:	68 85 00 00 00       	push   $0x85
  302867:	e9 e3 16 00 00       	jmp    303f4f <idt_common>
  30286c:	8d 74 26 00          	lea    0x0(%esi,%eiz,1),%esi
  302870:	6a ff                	push   $0xffffffff
  302872:	68 86 00 00 00       	push   $0x86
  302877:	e9 d3 16 00 00       	jmp    303f4f <idt_common>
  30287c:	8d 74 26 00          	lea    0x0(%esi,%eiz,1),%esi
  302880:	6a ff                	push   $0xffffffff
  302882:	68 87 00 00 00       	push   $0x87
  302887:	e9 c3 16 00 00       	jmp    303f4f <idt_common>
  30288c:	8d 74 26 00          	lea    0x0(%esi,%eiz,1),%esi
  302890:	6a ff                	push   $0xffffffff
  302892:	68 88 00 00 00       	push   $0x88
  302897:	e9 b3 16 00 00       	jmp    303f4f <idt_common>
  30289c:	8d 74 26 00          	lea    0x0(%esi,%eiz,1),%esi
  3028a0:	6a ff                	push   $0xffffffff
  3028a2:	68 89 00 00 00       	push   $0x89
  3028a7:	e9 a3 16 00 00       	jmp    303f4f <idt_common>
  3028ac:	8d 74 26 00          	lea    0x0(%esi,%eiz,1),%esi
  3028b0:	6a ff                	push   $0xffffffff
  3028b2:	68 8a 00 00 00       	push   $0x8a
  3028b7:	e9 93 16 00 00       	jmp    303f4f <idt_common>
  3028bc:	8d 74 26 00          	lea    0x0(%esi,%eiz,1),%esi
  3028c0:	6a ff                	push   $0xffffffff
  3028c2:	68 8b 00 00 00       	push   $0x8b
  3028c7:	e9 83 16 00 00       	jmp    303f4f <idt_common>
  3028cc:	8d 74 26 00          	lea    0x0(%esi,%eiz,1),%esi
  3028d0:	6a ff                	push   $0xffffffff
  3028d2:	68 8c 00 00 00       	push   $0x8c
  3028d7:	e9 73 16 00 00       	jmp    303f4f <idt_common>
  3028dc:	8d 74 26 00          	lea    0x0(%esi,%eiz,1),%esi
  3028e0:	6a ff                	push   $0xffffffff
  3028e2:	68 8d 00 00 00       	push   $0x8d
  3028e7:	e9 63 16 00 00       	jmp    303f4f <idt_common>
  3028ec:	8d 74 26 00          	lea    0x0(%esi,%eiz,1),%esi
  3028f0:	6a ff                	push   $0xffffffff
  3028f2:	68 8e 00 00 00       	push   $0x8e
  3028f7:	e9 53 16 00 00       	jmp    303f4f <idt_common>
  3028fc:	8d 74 26 00          	lea    0x0(%esi,%eiz,1),%esi
  302900:	6a ff                	push   $0xffffffff
  302902:	68 8f 00 00 00       	push   $0x8f
  302907:	e9 43 16 00 00       	jmp    303f4f <idt_common>
  30290c:	8d 74 26 00          	lea    0x0(%esi,%eiz,1),%esi
  302910:	6a ff                	push   $0xffffffff
  302912:	68 90 00 00 00       	push   $0x90
  302917:	e9 33 16 00 00       	jmp    303f4f <idt_common>
  30291c:	8d 74 26 00          	lea    0x0(%esi,%eiz,1),%esi
  302920:	6a ff                	push   $0xffffffff
  302922:	68 91 00 00 00       	push   $0x91
  302927:	e9 23 16 00 00       	jmp    303f4f <idt_common>
  30292c:	8d 74 26 00          	lea    0x0(%esi,%eiz,1),%esi
  302930:	6a ff                	push   $0xffffffff
  302932:	68 92 00 00 00       	push   $0x92
  302937:	e9 13 16 00 00       	jmp    303f4f <idt_common>
  30293c:	8d 74 26 00          	lea    0x0(%esi,%eiz,1),%esi
  302940:	6a ff                	push   $0xffffffff
  302942:	68 93 00 00 00       	push   $0x93
  302947:	e9 03 16 00 00       	jmp    303f4f <idt_common>
  30294c:	8d 74 26 00          	lea    0x0(%esi,%eiz,1),%esi
  302950:	6a ff                	push   $0xffffffff
  302952:	68 94 00 00 00       	push   $0x94
  302957:	e9 f3 15 00 00       	jmp    303f4f <idt_common>
  30295c:	8d 74 26 00          	lea    0x0(%esi,%eiz,1),%esi
  302960:	6a ff                	push   $0xffffffff
  302962:	68 95 00 00 00       	push   $0x95
  302967:	e9 e3 15 00 00       	jmp    303f4f <idt_common>
  30296c:	8d 74 26 00          	lea    0x0(%esi,%eiz,1),%esi
  302970:	6a ff                	push   $0xffffffff
  302972:	68 96 00 00 00       	push   $0x96
  302977:	e9 d3 15 00 00       	jmp    303f4f <idt_common>
  30297c:	8d 74 26 00          	lea    0x0(%esi,%eiz,1),%esi
  302980:	6a ff                	push   $0xffffffff
  302982:	68 97 00 00 00       	push   $0x97
  302987:	e9 c3 15 00 00       	jmp    303f4f <idt_common>
  30298c:	8d 74 26 00          	lea    0x0(%esi,%eiz,1),%esi
  302990:	6a ff                	push   $0xffffffff
  302992:	68 98 00 00 00       	push   $0x98
  302997:	e9 b3 15 00 00       	jmp    303f4f <idt_common>
  30299c:	8d 74 26 00          	lea    0x0(%esi,%eiz,1),%esi
  3029a0:	6a ff                	push   $0xffffffff
  3029a2:	68 99 00 00 00       	push   $0x99
  3029a7:	e9 a3 15 00 00       	jmp    303f4f <idt_common>
  3029ac:	8d 74 26 00          	lea    0x0(%esi,%eiz,1),%esi
  3029b0:	6a ff                	push   $0xffffffff
  3029b2:	68 9a 00 00 00       	push   $0x9a
  3029b7:	e9 93 15 00 00       	jmp    303f4f <idt_common>
  3029bc:	8d 74 26 00          	lea    0x0(%esi,%eiz,1),%esi
  3029c0:	6a ff                	push   $0xffffffff
  3029c2:	68 9b 00 00 00       	push   $0x9b
  3029c7:	e9 83 15 00 00       	jmp    303f4f <idt_common>
  3029cc:	8d 74 26 00          	lea    0x0(%esi,%eiz,1),%esi
  3029d0:	6a ff                	push   $0xffffffff
  3029d2:	68 9c 00 00 00       	push   $0x9c
  3029d7:	e9 73 15 00 00       	jmp    303f4f <idt_common>
  3029dc:	8d 74 26 00          	lea    0x0(%esi,%eiz,1),%esi
  3029e0:	6a ff                	push   $0xffffffff
  3029e2:	68 9d 00 00 00       	push   $0x9d
  3029e7:	e9 63 15 00 00       	jmp    303f4f <idt_common>
  3029ec:	8d 74 26 00          	lea    0x0(%esi,%eiz,1),%esi
  3029f0:	6a ff                	push   $0xffffffff
  3029f2:	68 9e 00 00 00       	push   $0x9e
  3029f7:	e9 53 15 00 00       	jmp    303f4f <idt_common>
  3029fc:	8d 74 26 00          	lea    0x0(%esi,%eiz,1),%esi
  302a00:	6a ff                	push   $0xffffffff
  302a02:	68 9f 00 00 00       	push   $0x9f
  302a07:	e9 43 15 00 00       	jmp    303f4f <idt_common>
  302a0c:	8d 74 26 00          	lea    0x0(%esi,%eiz,1),%esi
  302a10:	6a ff                	push   $0xffffffff
  302a12:	68 a0 00 00 00       	push   $0xa0
  302a17:	e9 33 15 00 00       	jmp    303f4f <idt_common>
  302a1c:	8d 74 26 00          	lea    0x0(%esi,%eiz,1),%esi
  302a20:	6a ff                	push   $0xffffffff
  302a22:	68 a1 00 00 00       	push   $0xa1
  302a27:	e9 23 15 00 00       	jmp    303f4f <idt_common>
  302a2c:	8d 74 26 00          	lea    0x0(%esi,%eiz,1),%esi
  302a30:	6a ff                	push   $0xffffffff
  302a32:	68 a2 00 00 00       	push   $0xa2
  302a37:	e9 13 15 00 00       	jmp    303f4f <idt_common>
  302a3c:	8d 74 26 00          	lea    0x0(%esi,%eiz,1),%esi
  302a40:	6a ff                	push   $0xffffffff
  302a42:	68 a3 00 00 00       	push   $0xa3
  302a47:	e9 03 15 00 00       	jmp    303f4f <idt_common>
  302a4c:	8d 74 26 00          	lea    0x0(%esi,%eiz,1),%esi
  302a50:	6a ff                	push   $0xffffffff
  302a52:	68 a4 00 00 00       	push   $0xa4
  302a57:	e9 f3 14 00 00       	jmp    303f4f <idt_common>
  302a5c:	8d 74 26 00          	lea    0x0(%esi,%eiz,1),%esi
  302a60:	6a ff                	push   $0xffffffff
  302a62:	68 a5 00 00 00       	push   $0xa5
  302a67:	e9 e3 14 00 00       	jmp    303f4f <idt_common>
  302a6c:	8d 74 26 00          	lea    0x0(%esi,%eiz,1),%esi
  302a70:	6a ff                	push   $0xffffffff
  302a72:	68 a6 00 00 00       	push   $0xa6
  302a77:	e9 d3 14 00 00       	jmp    303f4f <idt_common>
  302a7c:	8d 74 26 00          	lea    0x0(%esi,%eiz,1),%esi
  302a80:	6a ff                	push   $0xffffffff
  302a82:	68 a7 00 00 00       	push   $0xa7
  302a87:	e9 c3 14 00 00       	jmp    303f4f <idt_common>
  302a8c:	8d 74 26 00          	lea    0x0(%esi,%eiz,1),%esi
  302a90:	6a ff                	push   $0xffffffff
  302a92:	68 a8 00 00 00       	push   $0xa8
  302a97:	e9 b3 14 00 00       	jmp    303f4f <idt_common>
  302a9c:	8d 74 26 00          	lea    0x0(%esi,%eiz,1),%esi
  302aa0:	6a ff                	push   $0xffffffff
  302aa2:	68 a9 00 00 00       	push   $0xa9
  302aa7:	e9 a3 14 00 00       	jmp    303f4f <idt_common>
  302aac:	8d 74 26 00          	lea    0x0(%esi,%eiz,1),%esi
  302ab0:	6a ff                	push   $0xffffffff
  302ab2:	68 aa 00 00 00       	push   $0xaa
  302ab7:	e9 93 14 00 00       	jmp    303f4f <idt_common>
  302abc:	8d 74 26 00          	lea    0x0(%esi,%eiz,1),%esi
  302ac0:	6a ff                	push   $0xffffffff
  302ac2:	68 ab 00 00 00       	push   $0xab
  302ac7:	e9 83 14 00 00       	jmp    303f4f <idt_common>
  302acc:	8d 74 26 00          	lea    0x0(%esi,%eiz,1),%esi
  302ad0:	6a ff                	push   $0xffffffff
  302ad2:	68 ac 00 00 00       	push   $0xac
  302ad7:	e9 73 14 00 00       	jmp    303f4f <idt_common>
  302adc:	8d 74 26 00          	lea    0x0(%esi,%eiz,1),%esi
  302ae0:	6a ff                	push   $0xffffffff
  302ae2:	68 ad 00 00 00       	push   $0xad
  302ae7:	e9 63 14 00 00       	jmp    303f4f <idt_common>
  302aec:	8d 74 26 00          	lea    0x0(%esi,%eiz,1),%esi
  302af0:	6a ff                	push   $0xffffffff
  302af2:	68 ae 00 00 00       	push   $0xae
  302af7:	e9 53 14 00 00       	jmp    303f4f <idt_common>
  302afc:	8d 74 26 00          	lea    0x0(%esi,%eiz,1),%esi
  302b00:	6a ff                	push   $0xffffffff
  302b02:	68 af 00 00 00       	push   $0xaf
  302b07:	e9 43 14 00 00       	jmp    303f4f <idt_common>
  302b0c:	8d 74 26 00          	lea    0x0(%esi,%eiz,1),%esi
  302b10:	6a ff                	push   $0xffffffff
  302b12:	68 b0 00 00 00       	push   $0xb0
  302b17:	e9 33 14 00 00       	jmp    303f4f <idt_common>
  302b1c:	8d 74 26 00          	lea    0x0(%esi,%eiz,1),%esi
  302b20:	6a ff                	push   $0xffffffff
  302b22:	68 b1 00 00 00       	push   $0xb1
  302b27:	e9 23 14 00 00       	jmp    303f4f <idt_common>
  302b2c:	8d 74 26 00          	lea    0x0(%esi,%eiz,1),%esi
  302b30:	6a ff                	push   $0xffffffff
  302b32:	68 b2 00 00 00       	push   $0xb2
  302b37:	e9 13 14 00 00       	jmp    303f4f <idt_common>
  302b3c:	8d 74 26 00          	lea    0x0(%esi,%eiz,1),%esi
  302b40:	6a ff                	push   $0xffffffff
  302b42:	68 b3 00 00 00       	push   $0xb3
  302b47:	e9 03 14 00 00       	jmp    303f4f <idt_common>
  302b4c:	8d 74 26 00          	lea    0x0(%esi,%eiz,1),%esi
  302b50:	6a ff                	push   $0xffffffff
  302b52:	68 b4 00 00 00       	push   $0xb4
  302b57:	e9 f3 13 00 00       	jmp    303f4f <idt_common>
  302b5c:	8d 74 26 00          	lea    0x0(%esi,%eiz,1),%esi
  302b60:	6a ff                	push   $0xffffffff
  302b62:	68 b5 00 00 00       	push   $0xb5
  302b67:	e9 e3 13 00 00       	jmp    303f4f <idt_common>
  302b6c:	8d 74 26 00          	lea    0x0(%esi,%eiz,1),%esi
  302b70:	6a ff                	push   $0xffffffff
  302b72:	68 b6 00 00 00       	push   $0xb6
  302b77:	e9 d3 13 00 00       	jmp    303f4f <idt_common>
  302b7c:	8d 74 26 00          	lea    0x0(%esi,%eiz,1),%esi
  302b80:	6a ff                	push   $0xffffffff
  302b82:	68 b7 00 00 00       	push   $0xb7
  302b87:	e9 c3 13 00 00       	jmp    303f4f <idt_common>
  302b8c:	8d 74 26 00          	lea    0x0(%esi,%eiz,1),%esi
  302b90:	6a ff                	push   $0xffffffff
  302b92:	68 b8 00 00 00       	push   $0xb8
  302b97:	e9 b3 13 00 00       	jmp    303f4f <idt_common>
  302b9c:	8d 74 26 00          	lea    0x0(%esi,%eiz,1),%esi
  302ba0:	6a ff                	push   $0xffffffff
  302ba2:	68 b9 00 00 00       	push   $0xb9
  302ba7:	e9 a3 13 00 00       	jmp    303f4f <idt_common>
  302bac:	8d 74 26 00          	lea    0x0(%esi,%eiz,1),%esi
  302bb0:	6a ff                	push   $0xffffffff
  302bb2:	68 ba 00 00 00       	push   $0xba
  302bb7:	e9 93 13 00 00       	jmp    303f4f <idt_common>
  302bbc:	8d 74 26 00          	lea    0x0(%esi,%eiz,1),%esi
  302bc0:	6a ff                	push   $0xffffffff
  302bc2:	68 bb 00 00 00       	push   $0xbb
  302bc7:	e9 83 13 00 00       	jmp    303f4f <idt_common>
  302bcc:	8d 74 26 00          	lea    0x0(%esi,%eiz,1),%esi
  302bd0:	6a ff                	push   $0xffffffff
  302bd2:	68 bc 00 00 00       	push   $0xbc
  302bd7:	e9 73 13 00 00       	jmp    303f4f <idt_common>
  302bdc:	8d 74 26 00          	lea    0x0(%esi,%eiz,1),%esi
  302be0:	6a ff                	push   $0xffffffff
  302be2:	68 bd 00 00 00       	push   $0xbd
  302be7:	e9 63 13 00 00       	jmp    303f4f <idt_common>
  302bec:	8d 74 26 00          	lea    0x0(%esi,%eiz,1),%esi
  302bf0:	6a ff                	push   $0xffffffff
  302bf2:	68 be 00 00 00       	push   $0xbe
  302bf7:	e9 53 13 00 00       	jmp    303f4f <idt_common>
  302bfc:	8d 74 26 00          	lea    0x0(%esi,%eiz,1),%esi
  302c00:	6a ff                	push   $0xffffffff
  302c02:	68 bf 00 00 00       	push   $0xbf
  302c07:	e9 43 13 00 00       	jmp    303f4f <idt_common>
  302c0c:	8d 74 26 00          	lea    0x0(%esi,%eiz,1),%esi
  302c10:	6a ff                	push   $0xffffffff
  302c12:	68 c0 00 00 00       	push   $0xc0
  302c17:	e9 33 13 00 00       	jmp    303f4f <idt_common>
  302c1c:	8d 74 26 00          	lea    0x0(%esi,%eiz,1),%esi
  302c20:	6a ff                	push   $0xffffffff
  302c22:	68 c1 00 00 00       	push   $0xc1
  302c27:	e9 23 13 00 00       	jmp    303f4f <idt_common>
  302c2c:	8d 74 26 00          	lea    0x0(%esi,%eiz,1),%esi
  302c30:	6a ff                	push   $0xffffffff
  302c32:	68 c2 00 00 00       	push   $0xc2
  302c37:	e9 13 13 00 00       	jmp    303f4f <idt_common>
  302c3c:	8d 74 26 00          	lea    0x0(%esi,%eiz,1),%esi
  302c40:	6a ff                	push   $0xffffffff
  302c42:	68 c3 00 00 00       	push   $0xc3
  302c47:	e9 03 13 00 00       	jmp    303f4f <idt_common>
  302c4c:	8d 74 26 00          	lea    0x0(%esi,%eiz,1),%esi
  302c50:	6a ff                	push   $0xffffffff
  302c52:	68 c4 00 00 00       	push   $0xc4
  302c57:	e9 f3 12 00 00       	jmp    303f4f <idt_common>
  302c5c:	8d 74 26 00          	lea    0x0(%esi,%eiz,1),%esi
  302c60:	6a ff                	push   $0xffffffff
  302c62:	68 c5 00 00 00       	push   $0xc5
  302c67:	e9 e3 12 00 00       	jmp    303f4f <idt_common>
  302c6c:	8d 74 26 00          	lea    0x0(%esi,%eiz,1),%esi
  302c70:	6a ff                	push   $0xffffffff
  302c72:	68 c6 00 00 00       	push   $0xc6
  302c77:	e9 d3 12 00 00       	jmp    303f4f <idt_common>
  302c7c:	8d 74 26 00          	lea    0x0(%esi,%eiz,1),%esi
  302c80:	6a ff                	push   $0xffffffff
  302c82:	68 c7 00 00 00       	push   $0xc7
  302c87:	e9 c3 12 00 00       	jmp    303f4f <idt_common>
  302c8c:	8d 74 26 00          	lea    0x0(%esi,%eiz,1),%esi
  302c90:	6a ff                	push   $0xffffffff
  302c92:	68 c8 00 00 00       	push   $0xc8
  302c97:	e9 b3 12 00 00       	jmp    303f4f <idt_common>
  302c9c:	8d 74 26 00          	lea    0x0(%esi,%eiz,1),%esi
  302ca0:	6a ff                	push   $0xffffffff
  302ca2:	68 c9 00 00 00       	push   $0xc9
  302ca7:	e9 a3 12 00 00       	jmp    303f4f <idt_common>
  302cac:	8d 74 26 00          	lea    0x0(%esi,%eiz,1),%esi
  302cb0:	6a ff                	push   $0xffffffff
  302cb2:	68 ca 00 00 00       	push   $0xca
  302cb7:	e9 93 12 00 00       	jmp    303f4f <idt_common>
  302cbc:	8d 74 26 00          	lea    0x0(%esi,%eiz,1),%esi
  302cc0:	6a ff                	push   $0xffffffff
  302cc2:	68 cb 00 00 00       	push   $0xcb
  302cc7:	e9 83 12 00 00       	jmp    303f4f <idt_common>
  302ccc:	8d 74 26 00          	lea    0x0(%esi,%eiz,1),%esi
  302cd0:	6a ff                	push   $0xffffffff
  302cd2:	68 cc 00 00 00       	push   $0xcc
  302cd7:	e9 73 12 00 00       	jmp    303f4f <idt_common>
  302cdc:	8d 74 26 00          	lea    0x0(%esi,%eiz,1),%esi
  302ce0:	6a ff                	push   $0xffffffff
  302ce2:	68 cd 00 00 00       	push   $0xcd
  302ce7:	e9 63 12 00 00       	jmp    303f4f <idt_common>
  302cec:	8d 74 26 00          	lea    0x0(%esi,%eiz,1),%esi
  302cf0:	6a ff                	push   $0xffffffff
  302cf2:	68 ce 00 00 00       	push   $0xce
  302cf7:	e9 53 12 00 00       	jmp    303f4f <idt_common>
  302cfc:	8d 74 26 00          	lea    0x0(%esi,%eiz,1),%esi
  302d00:	6a ff                	push   $0xffffffff
  302d02:	68 cf 00 00 00       	push   $0xcf
  302d07:	e9 43 12 00 00       	jmp    303f4f <idt_common>
  302d0c:	8d 74 26 00          	lea    0x0(%esi,%eiz,1),%esi
  302d10:	6a ff                	push   $0xffffffff
  302d12:	68 d0 00 00 00       	push   $0xd0
  302d17:	e9 33 12 00 00       	jmp    303f4f <idt_common>
  302d1c:	8d 74 26 00          	lea    0x0(%esi,%eiz,1),%esi
  302d20:	6a ff                	push   $0xffffffff
  302d22:	68 d1 00 00 00       	push   $0xd1
  302d27:	e9 23 12 00 00       	jmp    303f4f <idt_common>
  302d2c:	8d 74 26 00          	lea    0x0(%esi,%eiz,1),%esi
  302d30:	6a ff                	push   $0xffffffff
  302d32:	68 d2 00 00 00       	push   $0xd2
  302d37:	e9 13 12 00 00       	jmp    303f4f <idt_common>
  302d3c:	8d 74 26 00          	lea    0x0(%esi,%eiz,1),%esi
  302d40:	6a ff                	push   $0xffffffff
  302d42:	68 d3 00 00 00       	push   $0xd3
  302d47:	e9 03 12 00 00       	jmp    303f4f <idt_common>
  302d4c:	8d 74 26 00          	lea    0x0(%esi,%eiz,1),%esi
  302d50:	6a ff                	push   $0xffffffff
  302d52:	68 d4 00 00 00       	push   $0xd4
  302d57:	e9 f3 11 00 00       	jmp    303f4f <idt_common>
  302d5c:	8d 74 26 00          	lea    0x0(%esi,%eiz,1),%esi
  302d60:	6a ff                	push   $0xffffffff
  302d62:	68 d5 00 00 00       	push   $0xd5
  302d67:	e9 e3 11 00 00       	jmp    303f4f <idt_common>
  302d6c:	8d 74 26 00          	lea    0x0(%esi,%eiz,1),%esi
  302d70:	6a ff                	push   $0xffffffff
  302d72:	68 d6 00 00 00       	push   $0xd6
  302d77:	e9 d3 11 00 00       	jmp    303f4f <idt_common>
  302d7c:	8d 74 26 00          	lea    0x0(%esi,%eiz,1),%esi
  302d80:	6a ff                	push   $0xffffffff
  302d82:	68 d7 00 00 00       	push   $0xd7
  302d87:	e9 c3 11 00 00       	jmp    303f4f <idt_common>
  302d8c:	8d 74 26 00          	lea    0x0(%esi,%eiz,1),%esi
  302d90:	6a ff                	push   $0xffffffff
  302d92:	68 d8 00 00 00       	push   $0xd8
  302d97:	e9 b3 11 00 00       	jmp    303f4f <idt_common>
  302d9c:	8d 74 26 00          	lea    0x0(%esi,%eiz,1),%esi
  302da0:	6a ff                	push   $0xffffffff
  302da2:	68 d9 00 00 00       	push   $0xd9
  302da7:	e9 a3 11 00 00       	jmp    303f4f <idt_common>
  302dac:	8d 74 26 00          	lea    0x0(%esi,%eiz,1),%esi
  302db0:	6a ff                	push   $0xffffffff
  302db2:	68 da 00 00 00       	push   $0xda
  302db7:	e9 93 11 00 00       	jmp    303f4f <idt_common>
  302dbc:	8d 74 26 00          	lea    0x0(%esi,%eiz,1),%esi
  302dc0:	6a ff                	push   $0xffffffff
  302dc2:	68 db 00 00 00       	push   $0xdb
  302dc7:	e9 83 11 00 00       	jmp    303f4f <idt_common>
  302dcc:	8d 74 26 00          	lea    0x0(%esi,%eiz,1),%esi
  302dd0:	6a ff                	push   $0xffffffff
  302dd2:	68 dc 00 00 00       	push   $0xdc
  302dd7:	e9 73 11 00 00       	jmp    303f4f <idt_common>
  302ddc:	8d 74 26 00          	lea    0x0(%esi,%eiz,1),%esi
  302de0:	6a ff                	push   $0xffffffff
  302de2:	68 dd 00 00 00       	push   $0xdd
  302de7:	e9 63 11 00 00       	jmp    303f4f <idt_common>
  302dec:	8d 74 26 00          	lea    0x0(%esi,%eiz,1),%esi
  302df0:	6a ff                	push   $0xffffffff
  302df2:	68 de 00 00 00       	push   $0xde
  302df7:	e9 53 11 00 00       	jmp    303f4f <idt_common>
  302dfc:	8d 74 26 00          	lea    0x0(%esi,%eiz,1),%esi
  302e00:	6a ff                	push   $0xffffffff
  302e02:	68 df 00 00 00       	push   $0xdf
  302e07:	e9 43 11 00 00       	jmp    303f4f <idt_common>
  302e0c:	8d 74 26 00          	lea    0x0(%esi,%eiz,1),%esi
  302e10:	6a ff                	push   $0xffffffff
  302e12:	68 e0 00 00 00       	push   $0xe0
  302e17:	e9 33 11 00 00       	jmp    303f4f <idt_common>
  302e1c:	8d 74 26 00          	lea    0x0(%esi,%eiz,1),%esi
  302e20:	6a ff                	push   $0xffffffff
  302e22:	68 e1 00 00 00       	push   $0xe1
  302e27:	e9 23 11 00 00       	jmp    303f4f <idt_common>
  302e2c:	8d 74 26 00          	lea    0x0(%esi,%eiz,1),%esi
  302e30:	6a ff                	push   $0xffffffff
  302e32:	68 e2 00 00 00       	push   $0xe2
  302e37:	e9 13 11 00 00       	jmp    303f4f <idt_common>
  302e3c:	8d 74 26 00          	lea    0x0(%esi,%eiz,1),%esi
  302e40:	6a ff                	push   $0xffffffff
  302e42:	68 e3 00 00 00       	push   $0xe3
  302e47:	e9 03 11 00 00       	jmp    303f4f <idt_common>
  302e4c:	8d 74 26 00          	lea    0x0(%esi,%eiz,1),%esi
  302e50:	6a ff                	push   $0xffffffff
  302e52:	68 e4 00 00 00       	push   $0xe4
  302e57:	e9 f3 10 00 00       	jmp    303f4f <idt_common>
  302e5c:	8d 74 26 00          	lea    0x0(%esi,%eiz,1),%esi
  302e60:	6a ff                	push   $0xffffffff
  302e62:	68 e5 00 00 00       	push   $0xe5
  302e67:	e9 e3 10 00 00       	jmp    303f4f <idt_common>
  302e6c:	8d 74 26 00          	lea    0x0(%esi,%eiz,1),%esi
  302e70:	6a ff                	push   $0xffffffff
  302e72:	68 e6 00 00 00       	push   $0xe6
  302e77:	e9 d3 10 00 00       	jmp    303f4f <idt_common>
  302e7c:	8d 74 26 00          	lea    0x0(%esi,%eiz,1),%esi
  302e80:	6a ff                	push   $0xffffffff
  302e82:	68 e7 00 00 00       	push   $0xe7
  302e87:	e9 c3 10 00 00       	jmp    303f4f <idt_common>
  302e8c:	8d 74 26 00          	lea    0x0(%esi,%eiz,1),%esi
  302e90:	6a ff                	push   $0xffffffff
  302e92:	68 e8 00 00 00       	push   $0xe8
  302e97:	e9 b3 10 00 00       	jmp    303f4f <idt_common>
  302e9c:	8d 74 26 00          	lea    0x0(%esi,%eiz,1),%esi
  302ea0:	6a ff                	push   $0xffffffff
  302ea2:	68 e9 00 00 00       	push   $0xe9
  302ea7:	e9 a3 10 00 00       	jmp    303f4f <idt_common>
  302eac:	8d 74 26 00          	lea    0x0(%esi,%eiz,1),%esi
  302eb0:	6a ff                	push   $0xffffffff
  302eb2:	68 ea 00 00 00       	push   $0xea
  302eb7:	e9 93 10 00 00       	jmp    303f4f <idt_common>
  302ebc:	8d 74 26 00          	lea    0x0(%esi,%eiz,1),%esi
  302ec0:	6a ff                	push   $0xffffffff
  302ec2:	68 eb 00 00 00       	push   $0xeb
  302ec7:	e9 83 10 00 00       	jmp    303f4f <idt_common>
  302ecc:	8d 74 26 00          	lea    0x0(%esi,%eiz,1),%esi
  302ed0:	6a ff                	push   $0xffffffff
  302ed2:	68 ec 00 00 00       	push   $0xec
  302ed7:	e9 73 10 00 00       	jmp    303f4f <idt_common>
  302edc:	8d 74 26 00          	lea    0x0(%esi,%eiz,1),%esi
  302ee0:	6a ff                	push   $0xffffffff
  302ee2:	68 ed 00 00 00       	push   $0xed
  302ee7:	e9 63 10 00 00       	jmp    303f4f <idt_common>
  302eec:	8d 74 26 00          	lea    0x0(%esi,%eiz,1),%esi
  302ef0:	6a ff                	push   $0xffffffff
  302ef2:	68 ee 00 00 00       	push   $0xee
  302ef7:	e9 53 10 00 00       	jmp    303f4f <idt_common>
  302efc:	8d 74 26 00          	lea    0x0(%esi,%eiz,1),%esi
  302f00:	6a ff                	push   $0xffffffff
  302f02:	68 ef 00 00 00       	push   $0xef
  302f07:	e9 43 10 00 00       	jmp    303f4f <idt_common>
  302f0c:	8d 74 26 00          	lea    0x0(%esi,%eiz,1),%esi
  302f10:	6a ff                	push   $0xffffffff
  302f12:	68 f0 00 00 00       	push   $0xf0
  302f17:	e9 33 10 00 00       	jmp    303f4f <idt_common>
  302f1c:	8d 74 26 00          	lea    0x0(%esi,%eiz,1),%esi
  302f20:	6a ff                	push   $0xffffffff
  302f22:	68 f1 00 00 00       	push   $0xf1
  302f27:	e9 23 10 00 00       	jmp    303f4f <idt_common>
  302f2c:	8d 74 26 00          	lea    0x0(%esi,%eiz,1),%esi
  302f30:	6a ff                	push   $0xffffffff
  302f32:	68 f2 00 00 00       	push   $0xf2
  302f37:	e9 13 10 00 00       	jmp    303f4f <idt_common>
  302f3c:	8d 74 26 00          	lea    0x0(%esi,%eiz,1),%esi
  302f40:	6a ff                	push   $0xffffffff
  302f42:	68 f3 00 00 00       	push   $0xf3
  302f47:	e9 03 10 00 00       	jmp    303f4f <idt_common>
  302f4c:	8d 74 26 00          	lea    0x0(%esi,%eiz,1),%esi
  302f50:	6a ff                	push   $0xffffffff
  302f52:	68 f4 00 00 00       	push   $0xf4
  302f57:	e9 f3 0f 00 00       	jmp    303f4f <idt_common>
  302f5c:	8d 74 26 00          	lea    0x0(%esi,%eiz,1),%esi
  302f60:	6a ff                	push   $0xffffffff
  302f62:	68 f5 00 00 00       	push   $0xf5
  302f67:	e9 e3 0f 00 00       	jmp    303f4f <idt_common>
  302f6c:	8d 74 26 00          	lea    0x0(%esi,%eiz,1),%esi
  302f70:	6a ff                	push   $0xffffffff
  302f72:	68 f6 00 00 00       	push   $0xf6
  302f77:	e9 d3 0f 00 00       	jmp    303f4f <idt_common>
  302f7c:	8d 74 26 00          	lea    0x0(%esi,%eiz,1),%esi
  302f80:	6a ff                	push   $0xffffffff
  302f82:	68 f7 00 00 00       	push   $0xf7
  302f87:	e9 c3 0f 00 00       	jmp    303f4f <idt_common>
  302f8c:	8d 74 26 00          	lea    0x0(%esi,%eiz,1),%esi
  302f90:	6a ff                	push   $0xffffffff
  302f92:	68 f8 00 00 00       	push   $0xf8
  302f97:	e9 b3 0f 00 00       	jmp    303f4f <idt_common>
  302f9c:	8d 74 26 00          	lea    0x0(%esi,%eiz,1),%esi
  302fa0:	6a ff                	push   $0xffffffff
  302fa2:	68 f9 00 00 00       	push   $0xf9
  302fa7:	e9 a3 0f 00 00       	jmp    303f4f <idt_common>
  302fac:	8d 74 26 00          	lea    0x0(%esi,%eiz,1),%esi
  302fb0:	6a ff                	push   $0xffffffff
  302fb2:	68 fa 00 00 00       	push   $0xfa
  302fb7:	e9 93 0f 00 00       	jmp    303f4f <idt_common>
  302fbc:	8d 74 26 00          	lea    0x0(%esi,%eiz,1),%esi
  302fc0:	6a ff                	push   $0xffffffff
  302fc2:	68 fb 00 00 00       	push   $0xfb
  302fc7:	e9 83 0f 00 00       	jmp    303f4f <idt_common>
  302fcc:	8d 74 26 00          	lea    0x0(%esi,%eiz,1),%esi
  302fd0:	6a ff                	push   $0xffffffff
  302fd2:	68 fc 00 00 00       	push   $0xfc
  302fd7:	e9 73 0f 00 00       	jmp    303f4f <idt_common>
  302fdc:	8d 74 26 00          	lea    0x0(%esi,%eiz,1),%esi
  302fe0:	6a ff                	push   $0xffffffff
  302fe2:	68 fd 00 00 00       	push   $0xfd
  302fe7:	e9 63 0f 00 00       	jmp    303f4f <idt_common>
  302fec:	8d 74 26 00          	lea    0x0(%esi,%eiz,1),%esi
  302ff0:	6a ff                	push   $0xffffffff
  302ff2:	68 fe 00 00 00       	push   $0xfe
  302ff7:	e9 53 0f 00 00       	jmp    303f4f <idt_common>
  302ffc:	8d 74 26 00          	lea    0x0(%esi,%eiz,1),%esi
  303000:	6a ff                	push   $0xffffffff
  303002:	68 ff 00 00 00       	push   $0xff
  303007:	e9 43 0f 00 00       	jmp    303f4f <idt_common>

Disassembly of section .text:

00303010 <entry>:
  303010:	fa                   	cli    
  303011:	bc 10 20 30 00       	mov    $0x302010,%esp
  303016:	6a 00                	push   $0x0
  303018:	9d                   	popf   
  303019:	89 d8                	mov    %ebx,%eax
  30301b:	e8 03 00 00 00       	call   303023 <start>

00303020 <halt>:
  303020:	f4                   	hlt    
  303021:	eb fd                	jmp    303020 <halt>

00303023 <start>:
  303023:	55                   	push   %ebp
  303024:	89 e5                	mov    %esp,%ebp
  303026:	83 ec 18             	sub    $0x18,%esp
  303029:	89 45 f4             	mov    %eax,-0xc(%ebp)
  30302c:	a1 20 59 30 00       	mov    0x305920,%eax
  303031:	8b 55 f4             	mov    -0xc(%ebp),%edx
  303034:	89 10                	mov    %edx,(%eax)
  303036:	e8 77 0b 00 00       	call   303bb2 <pic_init>
  30303b:	e8 fa 09 00 00       	call   303a3a <uart_init>
  303040:	e8 f5 0b 00 00       	call   303c3a <intr_init>
  303045:	83 ec 0c             	sub    $0xc,%esp
  303048:	68 ec 52 30 00       	push   $0x3052ec
  30304d:	e8 7f 00 00 00       	call   3030d1 <printf>
  303052:	83 c4 10             	add    $0x10,%esp
  303055:	e8 07 1d 00 00       	call   304d61 <tp>
  30305a:	83 ec 0c             	sub    $0xc,%esp
  30305d:	68 0f 53 30 00       	push   $0x30530f
  303062:	e8 42 00 00 00       	call   3030a9 <panic>
  303067:	83 c4 10             	add    $0x10,%esp
  30306a:	90                   	nop
  30306b:	c9                   	leave  
  30306c:	c3                   	ret    

0030306d <__buf_add>:
  30306d:	55                   	push   %ebp
  30306e:	89 e5                	mov    %esp,%ebp
  303070:	53                   	push   %ebx
  303071:	83 ec 04             	sub    $0x4,%esp
  303074:	8b 45 10             	mov    0x10(%ebp),%eax
  303077:	88 45 f8             	mov    %al,-0x8(%ebp)
  30307a:	8b 45 08             	mov    0x8(%ebp),%eax
  30307d:	8b 40 08             	mov    0x8(%eax),%eax
  303080:	39 45 0c             	cmp    %eax,0xc(%ebp)
  303083:	76 1d                	jbe    3030a2 <__buf_add+0x35>
  303085:	8b 45 08             	mov    0x8(%ebp),%eax
  303088:	8b 18                	mov    (%eax),%ebx
  30308a:	8b 45 08             	mov    0x8(%ebp),%eax
  30308d:	8b 40 08             	mov    0x8(%eax),%eax
  303090:	8d 48 01             	lea    0x1(%eax),%ecx
  303093:	8b 55 08             	mov    0x8(%ebp),%edx
  303096:	89 4a 08             	mov    %ecx,0x8(%edx)
  303099:	8d 14 03             	lea    (%ebx,%eax,1),%edx
  30309c:	0f b6 45 f8          	movzbl -0x8(%ebp),%eax
  3030a0:	88 02                	mov    %al,(%edx)
  3030a2:	90                   	nop
  3030a3:	83 c4 04             	add    $0x4,%esp
  3030a6:	5b                   	pop    %ebx
  3030a7:	5d                   	pop    %ebp
  3030a8:	c3                   	ret    

003030a9 <panic>:
  3030a9:	55                   	push   %ebp
  3030aa:	89 e5                	mov    %esp,%ebp
  3030ac:	83 ec 18             	sub    $0x18,%esp
  3030af:	fa                   	cli    
  3030b0:	8d 45 0c             	lea    0xc(%ebp),%eax
  3030b3:	89 45 f4             	mov    %eax,-0xc(%ebp)
  3030b6:	8b 45 f4             	mov    -0xc(%ebp),%eax
  3030b9:	83 ec 08             	sub    $0x8,%esp
  3030bc:	50                   	push   %eax
  3030bd:	ff 75 08             	pushl  0x8(%ebp)
  3030c0:	e8 5b 00 00 00       	call   303120 <__vprintf>
  3030c5:	83 c4 10             	add    $0x10,%esp
  3030c8:	e8 a5 0a 00 00       	call   303b72 <uart_flush>
  3030cd:	fa                   	cli    
  3030ce:	f4                   	hlt    
  3030cf:	eb fc                	jmp    3030cd <panic+0x24>

003030d1 <printf>:
  3030d1:	55                   	push   %ebp
  3030d2:	89 e5                	mov    %esp,%ebp
  3030d4:	83 ec 18             	sub    $0x18,%esp
  3030d7:	8d 45 0c             	lea    0xc(%ebp),%eax
  3030da:	89 45 f0             	mov    %eax,-0x10(%ebp)
  3030dd:	8b 45 f0             	mov    -0x10(%ebp),%eax
  3030e0:	83 ec 08             	sub    $0x8,%esp
  3030e3:	50                   	push   %eax
  3030e4:	ff 75 08             	pushl  0x8(%ebp)
  3030e7:	e8 34 00 00 00       	call   303120 <__vprintf>
  3030ec:	83 c4 10             	add    $0x10,%esp
  3030ef:	89 45 f4             	mov    %eax,-0xc(%ebp)
  3030f2:	8b 45 f4             	mov    -0xc(%ebp),%eax
  3030f5:	c9                   	leave  
  3030f6:	c3                   	ret    

003030f7 <snprintf>:
  3030f7:	55                   	push   %ebp
  3030f8:	89 e5                	mov    %esp,%ebp
  3030fa:	83 ec 18             	sub    $0x18,%esp
  3030fd:	8d 45 14             	lea    0x14(%ebp),%eax
  303100:	89 45 f0             	mov    %eax,-0x10(%ebp)
  303103:	8b 45 f0             	mov    -0x10(%ebp),%eax
  303106:	50                   	push   %eax
  303107:	ff 75 10             	pushl  0x10(%ebp)
  30310a:	ff 75 0c             	pushl  0xc(%ebp)
  30310d:	ff 75 08             	pushl  0x8(%ebp)
  303110:	e8 f9 03 00 00       	call   30350e <__vsnprintf>
  303115:	83 c4 10             	add    $0x10,%esp
  303118:	89 45 f4             	mov    %eax,-0xc(%ebp)
  30311b:	8b 45 f4             	mov    -0xc(%ebp),%eax
  30311e:	c9                   	leave  
  30311f:	c3                   	ret    

00303120 <__vprintf>:
  303120:	55                   	push   %ebp
  303121:	89 e5                	mov    %esp,%ebp
  303123:	83 ec 18             	sub    $0x18,%esp
  303126:	ff 75 0c             	pushl  0xc(%ebp)
  303129:	ff 75 08             	pushl  0x8(%ebp)
  30312c:	68 00 04 00 00       	push   $0x400
  303131:	68 c0 59 30 00       	push   $0x3059c0
  303136:	e8 d3 03 00 00       	call   30350e <__vsnprintf>
  30313b:	83 c4 10             	add    $0x10,%esp
  30313e:	89 45 f4             	mov    %eax,-0xc(%ebp)
  303141:	8b 45 f4             	mov    -0xc(%ebp),%eax
  303144:	83 e8 01             	sub    $0x1,%eax
  303147:	83 ec 08             	sub    $0x8,%esp
  30314a:	50                   	push   %eax
  30314b:	68 c0 59 30 00       	push   $0x3059c0
  303150:	e8 f1 09 00 00       	call   303b46 <uart_write>
  303155:	83 c4 10             	add    $0x10,%esp
  303158:	8b 45 f4             	mov    -0xc(%ebp),%eax
  30315b:	c9                   	leave  
  30315c:	c3                   	ret    

0030315d <__format_add_str>:
  30315d:	55                   	push   %ebp
  30315e:	89 e5                	mov    %esp,%ebp
  303160:	eb 1e                	jmp    303180 <__format_add_str+0x23>
  303162:	8b 45 10             	mov    0x10(%ebp),%eax
  303165:	8d 50 01             	lea    0x1(%eax),%edx
  303168:	89 55 10             	mov    %edx,0x10(%ebp)
  30316b:	0f b6 00             	movzbl (%eax),%eax
  30316e:	0f be c0             	movsbl %al,%eax
  303171:	50                   	push   %eax
  303172:	ff 75 0c             	pushl  0xc(%ebp)
  303175:	ff 75 08             	pushl  0x8(%ebp)
  303178:	e8 f0 fe ff ff       	call   30306d <__buf_add>
  30317d:	83 c4 0c             	add    $0xc,%esp
  303180:	8b 45 10             	mov    0x10(%ebp),%eax
  303183:	0f b6 00             	movzbl (%eax),%eax
  303186:	84 c0                	test   %al,%al
  303188:	75 d8                	jne    303162 <__format_add_str+0x5>
  30318a:	90                   	nop
  30318b:	c9                   	leave  
  30318c:	c3                   	ret    

0030318d <__format_add_chr>:
  30318d:	55                   	push   %ebp
  30318e:	89 e5                	mov    %esp,%ebp
  303190:	8b 45 10             	mov    0x10(%ebp),%eax
  303193:	0f be c0             	movsbl %al,%eax
  303196:	50                   	push   %eax
  303197:	ff 75 0c             	pushl  0xc(%ebp)
  30319a:	ff 75 08             	pushl  0x8(%ebp)
  30319d:	e8 cb fe ff ff       	call   30306d <__buf_add>
  3031a2:	83 c4 0c             	add    $0xc,%esp
  3031a5:	90                   	nop
  3031a6:	c9                   	leave  
  3031a7:	c3                   	ret    

003031a8 <__format_add_bin>:
  3031a8:	55                   	push   %ebp
  3031a9:	89 e5                	mov    %esp,%ebp
  3031ab:	56                   	push   %esi
  3031ac:	53                   	push   %ebx
  3031ad:	83 ec 18             	sub    $0x18,%esp
  3031b0:	8b 45 10             	mov    0x10(%ebp),%eax
  3031b3:	89 45 e0             	mov    %eax,-0x20(%ebp)
  3031b6:	8b 45 14             	mov    0x14(%ebp),%eax
  3031b9:	89 45 e4             	mov    %eax,-0x1c(%ebp)
  3031bc:	c7 45 f4 00 00 00 00 	movl   $0x0,-0xc(%ebp)
  3031c3:	eb 4e                	jmp    303213 <__format_add_bin+0x6b>
  3031c5:	8b 45 18             	mov    0x18(%ebp),%eax
  3031c8:	2b 45 f4             	sub    -0xc(%ebp),%eax
  3031cb:	8d 48 ff             	lea    -0x1(%eax),%ecx
  3031ce:	8b 45 e0             	mov    -0x20(%ebp),%eax
  3031d1:	8b 55 e4             	mov    -0x1c(%ebp),%edx
  3031d4:	0f ad d0             	shrd   %cl,%edx,%eax
  3031d7:	d3 ea                	shr    %cl,%edx
  3031d9:	f6 c1 20             	test   $0x20,%cl
  3031dc:	74 04                	je     3031e2 <__format_add_bin+0x3a>
  3031de:	89 d0                	mov    %edx,%eax
  3031e0:	31 d2                	xor    %edx,%edx
  3031e2:	89 c3                	mov    %eax,%ebx
  3031e4:	89 d6                	mov    %edx,%esi
  3031e6:	89 d8                	mov    %ebx,%eax
  3031e8:	83 e0 01             	and    $0x1,%eax
  3031eb:	89 45 f0             	mov    %eax,-0x10(%ebp)
  3031ee:	83 7d f0 00          	cmpl   $0x0,-0x10(%ebp)
  3031f2:	74 07                	je     3031fb <__format_add_bin+0x53>
  3031f4:	b8 31 00 00 00       	mov    $0x31,%eax
  3031f9:	eb 05                	jmp    303200 <__format_add_bin+0x58>
  3031fb:	b8 30 00 00 00       	mov    $0x30,%eax
  303200:	50                   	push   %eax
  303201:	ff 75 0c             	pushl  0xc(%ebp)
  303204:	ff 75 08             	pushl  0x8(%ebp)
  303207:	e8 61 fe ff ff       	call   30306d <__buf_add>
  30320c:	83 c4 0c             	add    $0xc,%esp
  30320f:	83 45 f4 01          	addl   $0x1,-0xc(%ebp)
  303213:	8b 45 f4             	mov    -0xc(%ebp),%eax
  303216:	3b 45 18             	cmp    0x18(%ebp),%eax
  303219:	72 aa                	jb     3031c5 <__format_add_bin+0x1d>
  30321b:	90                   	nop
  30321c:	8d 65 f8             	lea    -0x8(%ebp),%esp
  30321f:	5b                   	pop    %ebx
  303220:	5e                   	pop    %esi
  303221:	5d                   	pop    %ebp
  303222:	c3                   	ret    

00303223 <__format_add_idec>:
  303223:	55                   	push   %ebp
  303224:	89 e5                	mov    %esp,%ebp
  303226:	57                   	push   %edi
  303227:	56                   	push   %esi
  303228:	53                   	push   %ebx
  303229:	83 ec 4c             	sub    $0x4c,%esp
  30322c:	8b 4d 10             	mov    0x10(%ebp),%ecx
  30322f:	89 4d b0             	mov    %ecx,-0x50(%ebp)
  303232:	8b 4d 14             	mov    0x14(%ebp),%ecx
  303235:	89 4d b4             	mov    %ecx,-0x4c(%ebp)
  303238:	8b 4d b0             	mov    -0x50(%ebp),%ecx
  30323b:	80 f5 00             	xor    $0x0,%ch
  30323e:	89 c8                	mov    %ecx,%eax
  303240:	8b 4d b4             	mov    -0x4c(%ebp),%ecx
  303243:	80 f5 00             	xor    $0x0,%ch
  303246:	89 ca                	mov    %ecx,%edx
  303248:	09 d0                	or     %edx,%eax
  30324a:	85 c0                	test   %eax,%eax
  30324c:	75 15                	jne    303263 <__format_add_idec+0x40>
  30324e:	6a 30                	push   $0x30
  303250:	ff 75 0c             	pushl  0xc(%ebp)
  303253:	ff 75 08             	pushl  0x8(%ebp)
  303256:	e8 12 fe ff ff       	call   30306d <__buf_add>
  30325b:	83 c4 0c             	add    $0xc,%esp
  30325e:	e9 b9 00 00 00       	jmp    30331c <__format_add_idec+0xf9>
  303263:	8d 45 d0             	lea    -0x30(%ebp),%eax
  303266:	89 45 c4             	mov    %eax,-0x3c(%ebp)
  303269:	c7 45 cc 00 00 00 00 	movl   $0x0,-0x34(%ebp)
  303270:	83 7d b4 00          	cmpl   $0x0,-0x4c(%ebp)
  303274:	79 5f                	jns    3032d5 <__format_add_idec+0xb2>
  303276:	6a 2d                	push   $0x2d
  303278:	ff 75 0c             	pushl  0xc(%ebp)
  30327b:	ff 75 08             	pushl  0x8(%ebp)
  30327e:	e8 ea fd ff ff       	call   30306d <__buf_add>
  303283:	83 c4 0c             	add    $0xc,%esp
  303286:	f7 5d b0             	negl   -0x50(%ebp)
  303289:	83 55 b4 00          	adcl   $0x0,-0x4c(%ebp)
  30328d:	f7 5d b4             	negl   -0x4c(%ebp)
  303290:	eb 43                	jmp    3032d5 <__format_add_idec+0xb2>
  303292:	8b 45 b0             	mov    -0x50(%ebp),%eax
  303295:	8b 55 b4             	mov    -0x4c(%ebp),%edx
  303298:	6a 00                	push   $0x0
  30329a:	6a 0a                	push   $0xa
  30329c:	52                   	push   %edx
  30329d:	50                   	push   %eax
  30329e:	e8 6d 1c 00 00       	call   304f10 <__moddi3>
  3032a3:	83 c4 10             	add    $0x10,%esp
  3032a6:	8d 78 30             	lea    0x30(%eax),%edi
  3032a9:	8b 4d c4             	mov    -0x3c(%ebp),%ecx
  3032ac:	8b 45 cc             	mov    -0x34(%ebp),%eax
  3032af:	8d 50 01             	lea    0x1(%eax),%edx
  3032b2:	89 55 cc             	mov    %edx,-0x34(%ebp)
  3032b5:	01 c8                	add    %ecx,%eax
  3032b7:	89 fa                	mov    %edi,%edx
  3032b9:	88 10                	mov    %dl,(%eax)
  3032bb:	8b 45 b0             	mov    -0x50(%ebp),%eax
  3032be:	8b 55 b4             	mov    -0x4c(%ebp),%edx
  3032c1:	6a 00                	push   $0x0
  3032c3:	6a 0a                	push   $0xa
  3032c5:	52                   	push   %edx
  3032c6:	50                   	push   %eax
  3032c7:	e8 f4 1a 00 00       	call   304dc0 <__divdi3>
  3032cc:	83 c4 10             	add    $0x10,%esp
  3032cf:	89 45 b0             	mov    %eax,-0x50(%ebp)
  3032d2:	89 55 b4             	mov    %edx,-0x4c(%ebp)
  3032d5:	8b 45 b0             	mov    -0x50(%ebp),%eax
  3032d8:	80 f4 00             	xor    $0x0,%ah
  3032db:	89 c3                	mov    %eax,%ebx
  3032dd:	8b 45 b4             	mov    -0x4c(%ebp),%eax
  3032e0:	80 f4 00             	xor    $0x0,%ah
  3032e3:	89 c6                	mov    %eax,%esi
  3032e5:	89 f0                	mov    %esi,%eax
  3032e7:	09 d8                	or     %ebx,%eax
  3032e9:	85 c0                	test   %eax,%eax
  3032eb:	75 a5                	jne    303292 <__format_add_idec+0x6f>
  3032ed:	eb 20                	jmp    30330f <__format_add_idec+0xec>
  3032ef:	8b 55 c4             	mov    -0x3c(%ebp),%edx
  3032f2:	8b 45 cc             	mov    -0x34(%ebp),%eax
  3032f5:	01 d0                	add    %edx,%eax
  3032f7:	0f b6 00             	movzbl (%eax),%eax
  3032fa:	0f be c0             	movsbl %al,%eax
  3032fd:	83 ec 04             	sub    $0x4,%esp
  303300:	50                   	push   %eax
  303301:	ff 75 0c             	pushl  0xc(%ebp)
  303304:	ff 75 08             	pushl  0x8(%ebp)
  303307:	e8 61 fd ff ff       	call   30306d <__buf_add>
  30330c:	83 c4 10             	add    $0x10,%esp
  30330f:	8b 45 cc             	mov    -0x34(%ebp),%eax
  303312:	8d 50 ff             	lea    -0x1(%eax),%edx
  303315:	89 55 cc             	mov    %edx,-0x34(%ebp)
  303318:	85 c0                	test   %eax,%eax
  30331a:	75 d3                	jne    3032ef <__format_add_idec+0xcc>
  30331c:	8d 65 f4             	lea    -0xc(%ebp),%esp
  30331f:	5b                   	pop    %ebx
  303320:	5e                   	pop    %esi
  303321:	5f                   	pop    %edi
  303322:	5d                   	pop    %ebp
  303323:	c3                   	ret    

00303324 <__format_add_udec>:
  303324:	55                   	push   %ebp
  303325:	89 e5                	mov    %esp,%ebp
  303327:	57                   	push   %edi
  303328:	56                   	push   %esi
  303329:	53                   	push   %ebx
  30332a:	83 ec 4c             	sub    $0x4c,%esp
  30332d:	8b 4d 10             	mov    0x10(%ebp),%ecx
  303330:	89 4d b0             	mov    %ecx,-0x50(%ebp)
  303333:	8b 4d 14             	mov    0x14(%ebp),%ecx
  303336:	89 4d b4             	mov    %ecx,-0x4c(%ebp)
  303339:	8b 4d b0             	mov    -0x50(%ebp),%ecx
  30333c:	80 f5 00             	xor    $0x0,%ch
  30333f:	89 c8                	mov    %ecx,%eax
  303341:	8b 4d b4             	mov    -0x4c(%ebp),%ecx
  303344:	80 f5 00             	xor    $0x0,%ch
  303347:	89 ca                	mov    %ecx,%edx
  303349:	09 d0                	or     %edx,%eax
  30334b:	85 c0                	test   %eax,%eax
  30334d:	75 15                	jne    303364 <__format_add_udec+0x40>
  30334f:	6a 30                	push   $0x30
  303351:	ff 75 0c             	pushl  0xc(%ebp)
  303354:	ff 75 08             	pushl  0x8(%ebp)
  303357:	e8 11 fd ff ff       	call   30306d <__buf_add>
  30335c:	83 c4 0c             	add    $0xc,%esp
  30335f:	e9 99 00 00 00       	jmp    3033fd <__format_add_udec+0xd9>
  303364:	8d 45 d0             	lea    -0x30(%ebp),%eax
  303367:	89 45 c4             	mov    %eax,-0x3c(%ebp)
  30336a:	c7 45 cc 00 00 00 00 	movl   $0x0,-0x34(%ebp)
  303371:	eb 43                	jmp    3033b6 <__format_add_udec+0x92>
  303373:	8b 45 b0             	mov    -0x50(%ebp),%eax
  303376:	8b 55 b4             	mov    -0x4c(%ebp),%edx
  303379:	6a 00                	push   $0x0
  30337b:	6a 0a                	push   $0xa
  30337d:	52                   	push   %edx
  30337e:	50                   	push   %eax
  30337f:	e8 4c 1e 00 00       	call   3051d0 <__umoddi3>
  303384:	83 c4 10             	add    $0x10,%esp
  303387:	8d 78 30             	lea    0x30(%eax),%edi
  30338a:	8b 4d c4             	mov    -0x3c(%ebp),%ecx
  30338d:	8b 45 cc             	mov    -0x34(%ebp),%eax
  303390:	8d 50 01             	lea    0x1(%eax),%edx
  303393:	89 55 cc             	mov    %edx,-0x34(%ebp)
  303396:	01 c8                	add    %ecx,%eax
  303398:	89 fa                	mov    %edi,%edx
  30339a:	88 10                	mov    %dl,(%eax)
  30339c:	8b 45 b0             	mov    -0x50(%ebp),%eax
  30339f:	8b 55 b4             	mov    -0x4c(%ebp),%edx
  3033a2:	6a 00                	push   $0x0
  3033a4:	6a 0a                	push   $0xa
  3033a6:	52                   	push   %edx
  3033a7:	50                   	push   %eax
  3033a8:	e8 03 1d 00 00       	call   3050b0 <__udivdi3>
  3033ad:	83 c4 10             	add    $0x10,%esp
  3033b0:	89 45 b0             	mov    %eax,-0x50(%ebp)
  3033b3:	89 55 b4             	mov    %edx,-0x4c(%ebp)
  3033b6:	8b 45 b0             	mov    -0x50(%ebp),%eax
  3033b9:	80 f4 00             	xor    $0x0,%ah
  3033bc:	89 c3                	mov    %eax,%ebx
  3033be:	8b 45 b4             	mov    -0x4c(%ebp),%eax
  3033c1:	80 f4 00             	xor    $0x0,%ah
  3033c4:	89 c6                	mov    %eax,%esi
  3033c6:	89 f0                	mov    %esi,%eax
  3033c8:	09 d8                	or     %ebx,%eax
  3033ca:	85 c0                	test   %eax,%eax
  3033cc:	75 a5                	jne    303373 <__format_add_udec+0x4f>
  3033ce:	eb 20                	jmp    3033f0 <__format_add_udec+0xcc>
  3033d0:	8b 55 c4             	mov    -0x3c(%ebp),%edx
  3033d3:	8b 45 cc             	mov    -0x34(%ebp),%eax
  3033d6:	01 d0                	add    %edx,%eax
  3033d8:	0f b6 00             	movzbl (%eax),%eax
  3033db:	0f be c0             	movsbl %al,%eax
  3033de:	83 ec 04             	sub    $0x4,%esp
  3033e1:	50                   	push   %eax
  3033e2:	ff 75 0c             	pushl  0xc(%ebp)
  3033e5:	ff 75 08             	pushl  0x8(%ebp)
  3033e8:	e8 80 fc ff ff       	call   30306d <__buf_add>
  3033ed:	83 c4 10             	add    $0x10,%esp
  3033f0:	8b 45 cc             	mov    -0x34(%ebp),%eax
  3033f3:	8d 50 ff             	lea    -0x1(%eax),%edx
  3033f6:	89 55 cc             	mov    %edx,-0x34(%ebp)
  3033f9:	85 c0                	test   %eax,%eax
  3033fb:	75 d3                	jne    3033d0 <__format_add_udec+0xac>
  3033fd:	8d 65 f4             	lea    -0xc(%ebp),%esp
  303400:	5b                   	pop    %ebx
  303401:	5e                   	pop    %esi
  303402:	5f                   	pop    %edi
  303403:	5d                   	pop    %ebp
  303404:	c3                   	ret    

00303405 <uint64_to_hex>:
  303405:	55                   	push   %ebp
  303406:	89 e5                	mov    %esp,%ebp
  303408:	57                   	push   %edi
  303409:	56                   	push   %esi
  30340a:	53                   	push   %ebx
  30340b:	83 ec 34             	sub    $0x34,%esp
  30340e:	8b 45 10             	mov    0x10(%ebp),%eax
  303411:	89 45 c8             	mov    %eax,-0x38(%ebp)
  303414:	8b 45 14             	mov    0x14(%ebp),%eax
  303417:	89 45 cc             	mov    %eax,-0x34(%ebp)
  30341a:	c7 45 ec 00 00 00 00 	movl   $0x0,-0x14(%ebp)
  303421:	83 7d 18 00          	cmpl   $0x0,0x18(%ebp)
  303425:	74 06                	je     30342d <uint64_to_hex+0x28>
  303427:	83 7d 18 10          	cmpl   $0x10,0x18(%ebp)
  30342b:	76 4b                	jbe    303478 <uint64_to_hex+0x73>
  30342d:	c7 45 18 ff ff ff ff 	movl   $0xffffffff,0x18(%ebp)
  303434:	eb 42                	jmp    303478 <uint64_to_hex+0x73>
  303436:	8b 45 c8             	mov    -0x38(%ebp),%eax
  303439:	83 e0 0f             	and    $0xf,%eax
  30343c:	89 c6                	mov    %eax,%esi
  30343e:	8b 45 cc             	mov    -0x34(%ebp),%eax
  303441:	83 e0 00             	and    $0x0,%eax
  303444:	89 c7                	mov    %eax,%edi
  303446:	8d 86 24 59 30 00    	lea    0x305924(%esi),%eax
  30344c:	0f b6 10             	movzbl (%eax),%edx
  30344f:	8d 45 d8             	lea    -0x28(%ebp),%eax
  303452:	89 45 c4             	mov    %eax,-0x3c(%ebp)
  303455:	8b 45 ec             	mov    -0x14(%ebp),%eax
  303458:	03 45 c4             	add    -0x3c(%ebp),%eax
  30345b:	88 10                	mov    %dl,(%eax)
  30345d:	8b 45 c8             	mov    -0x38(%ebp),%eax
  303460:	8b 55 cc             	mov    -0x34(%ebp),%edx
  303463:	0f ac d0 04          	shrd   $0x4,%edx,%eax
  303467:	c1 ea 04             	shr    $0x4,%edx
  30346a:	89 45 c8             	mov    %eax,-0x38(%ebp)
  30346d:	89 55 cc             	mov    %edx,-0x34(%ebp)
  303470:	83 45 ec 01          	addl   $0x1,-0x14(%ebp)
  303474:	83 6d 18 01          	subl   $0x1,0x18(%ebp)
  303478:	83 7d 18 00          	cmpl   $0x0,0x18(%ebp)
  30347c:	74 24                	je     3034a2 <uint64_to_hex+0x9d>
  30347e:	83 7d 18 10          	cmpl   $0x10,0x18(%ebp)
  303482:	76 b2                	jbe    303436 <uint64_to_hex+0x31>
  303484:	8b 45 c8             	mov    -0x38(%ebp),%eax
  303487:	80 f4 00             	xor    $0x0,%ah
  30348a:	89 c1                	mov    %eax,%ecx
  30348c:	8b 45 cc             	mov    -0x34(%ebp),%eax
  30348f:	80 f4 00             	xor    $0x0,%ah
  303492:	89 c3                	mov    %eax,%ebx
  303494:	89 d8                	mov    %ebx,%eax
  303496:	09 c8                	or     %ecx,%eax
  303498:	85 c0                	test   %eax,%eax
  30349a:	75 9a                	jne    303436 <uint64_to_hex+0x31>
  30349c:	83 7d ec 00          	cmpl   $0x0,-0x14(%ebp)
  3034a0:	74 94                	je     303436 <uint64_to_hex+0x31>
  3034a2:	8b 45 ec             	mov    -0x14(%ebp),%eax
  3034a5:	89 45 e8             	mov    %eax,-0x18(%ebp)
  3034a8:	eb 1d                	jmp    3034c7 <uint64_to_hex+0xc2>
  3034aa:	8d 55 d8             	lea    -0x28(%ebp),%edx
  3034ad:	8b 45 ec             	mov    -0x14(%ebp),%eax
  3034b0:	01 d0                	add    %edx,%eax
  3034b2:	0f b6 00             	movzbl (%eax),%eax
  3034b5:	0f be c0             	movsbl %al,%eax
  3034b8:	50                   	push   %eax
  3034b9:	ff 75 0c             	pushl  0xc(%ebp)
  3034bc:	ff 75 08             	pushl  0x8(%ebp)
  3034bf:	e8 a9 fb ff ff       	call   30306d <__buf_add>
  3034c4:	83 c4 0c             	add    $0xc,%esp
  3034c7:	8b 45 ec             	mov    -0x14(%ebp),%eax
  3034ca:	8d 50 ff             	lea    -0x1(%eax),%edx
  3034cd:	89 55 ec             	mov    %edx,-0x14(%ebp)
  3034d0:	85 c0                	test   %eax,%eax
  3034d2:	75 d6                	jne    3034aa <uint64_to_hex+0xa5>
  3034d4:	8b 45 e8             	mov    -0x18(%ebp),%eax
  3034d7:	8d 65 f4             	lea    -0xc(%ebp),%esp
  3034da:	5b                   	pop    %ebx
  3034db:	5e                   	pop    %esi
  3034dc:	5f                   	pop    %edi
  3034dd:	5d                   	pop    %ebp
  3034de:	c3                   	ret    

003034df <__format_add_hex>:
  3034df:	55                   	push   %ebp
  3034e0:	89 e5                	mov    %esp,%ebp
  3034e2:	83 ec 08             	sub    $0x8,%esp
  3034e5:	8b 45 10             	mov    0x10(%ebp),%eax
  3034e8:	89 45 f8             	mov    %eax,-0x8(%ebp)
  3034eb:	8b 45 14             	mov    0x14(%ebp),%eax
  3034ee:	89 45 fc             	mov    %eax,-0x4(%ebp)
  3034f1:	83 ec 04             	sub    $0x4,%esp
  3034f4:	ff 75 18             	pushl  0x18(%ebp)
  3034f7:	ff 75 fc             	pushl  -0x4(%ebp)
  3034fa:	ff 75 f8             	pushl  -0x8(%ebp)
  3034fd:	ff 75 0c             	pushl  0xc(%ebp)
  303500:	ff 75 08             	pushl  0x8(%ebp)
  303503:	e8 fd fe ff ff       	call   303405 <uint64_to_hex>
  303508:	83 c4 18             	add    $0x18,%esp
  30350b:	90                   	nop
  30350c:	c9                   	leave  
  30350d:	c3                   	ret    

0030350e <__vsnprintf>:
  30350e:	55                   	push   %ebp
  30350f:	89 e5                	mov    %esp,%ebp
  303511:	83 ec 78             	sub    $0x78,%esp
  303514:	8b 45 08             	mov    0x8(%ebp),%eax
  303517:	89 45 94             	mov    %eax,-0x6c(%ebp)
  30351a:	c7 45 9c 00 00 00 00 	movl   $0x0,-0x64(%ebp)
  303521:	c7 45 f0 00 00 00 00 	movl   $0x0,-0x10(%ebp)
  303528:	c7 45 ec 00 00 00 00 	movl   $0x0,-0x14(%ebp)
  30352f:	c7 45 f4 04 00 00 00 	movl   $0x4,-0xc(%ebp)
  303536:	83 7d 0c 00          	cmpl   $0x0,0xc(%ebp)
  30353a:	0f 84 ac 03 00 00    	je     3038ec <__vsnprintf+0x3de>
  303540:	83 6d 0c 01          	subl   $0x1,0xc(%ebp)
  303544:	e9 a3 03 00 00       	jmp    3038ec <__vsnprintf+0x3de>
  303549:	8b 45 10             	mov    0x10(%ebp),%eax
  30354c:	8d 50 01             	lea    0x1(%eax),%edx
  30354f:	89 55 10             	mov    %edx,0x10(%ebp)
  303552:	0f b6 00             	movzbl (%eax),%eax
  303555:	88 45 d7             	mov    %al,-0x29(%ebp)
  303558:	83 7d f0 00          	cmpl   $0x0,-0x10(%ebp)
  30355c:	0f 84 5d 03 00 00    	je     3038bf <__vsnprintf+0x3b1>
  303562:	80 7d d7 6c          	cmpb   $0x6c,-0x29(%ebp)
  303566:	75 1e                	jne    303586 <__vsnprintf+0x78>
  303568:	83 7d ec 00          	cmpl   $0x0,-0x14(%ebp)
  30356c:	74 0c                	je     30357a <__vsnprintf+0x6c>
  30356e:	c7 45 f4 08 00 00 00 	movl   $0x8,-0xc(%ebp)
  303575:	e9 72 03 00 00       	jmp    3038ec <__vsnprintf+0x3de>
  30357a:	c7 45 ec 01 00 00 00 	movl   $0x1,-0x14(%ebp)
  303581:	e9 66 03 00 00       	jmp    3038ec <__vsnprintf+0x3de>
  303586:	80 7d d7 68          	cmpb   $0x68,-0x29(%ebp)
  30358a:	75 0d                	jne    303599 <__vsnprintf+0x8b>
  30358c:	8b 45 f4             	mov    -0xc(%ebp),%eax
  30358f:	d1 e8                	shr    %eax
  303591:	89 45 f4             	mov    %eax,-0xc(%ebp)
  303594:	e9 53 03 00 00       	jmp    3038ec <__vsnprintf+0x3de>
  303599:	80 7d d7 73          	cmpb   $0x73,-0x29(%ebp)
  30359d:	75 25                	jne    3035c4 <__vsnprintf+0xb6>
  30359f:	8b 45 14             	mov    0x14(%ebp),%eax
  3035a2:	8d 50 04             	lea    0x4(%eax),%edx
  3035a5:	89 55 14             	mov    %edx,0x14(%ebp)
  3035a8:	8b 00                	mov    (%eax),%eax
  3035aa:	89 45 a0             	mov    %eax,-0x60(%ebp)
  3035ad:	ff 75 a0             	pushl  -0x60(%ebp)
  3035b0:	ff 75 0c             	pushl  0xc(%ebp)
  3035b3:	8d 45 94             	lea    -0x6c(%ebp),%eax
  3035b6:	50                   	push   %eax
  3035b7:	e8 a1 fb ff ff       	call   30315d <__format_add_str>
  3035bc:	83 c4 0c             	add    $0xc,%esp
  3035bf:	e9 eb 02 00 00       	jmp    3038af <__vsnprintf+0x3a1>
  3035c4:	80 7d d7 63          	cmpb   $0x63,-0x29(%ebp)
  3035c8:	75 25                	jne    3035ef <__vsnprintf+0xe1>
  3035ca:	8b 45 14             	mov    0x14(%ebp),%eax
  3035cd:	8d 50 04             	lea    0x4(%eax),%edx
  3035d0:	89 55 14             	mov    %edx,0x14(%ebp)
  3035d3:	8b 00                	mov    (%eax),%eax
  3035d5:	89 45 a4             	mov    %eax,-0x5c(%ebp)
  3035d8:	ff 75 a4             	pushl  -0x5c(%ebp)
  3035db:	ff 75 0c             	pushl  0xc(%ebp)
  3035de:	8d 45 94             	lea    -0x6c(%ebp),%eax
  3035e1:	50                   	push   %eax
  3035e2:	e8 a6 fb ff ff       	call   30318d <__format_add_chr>
  3035e7:	83 c4 0c             	add    $0xc,%esp
  3035ea:	e9 c0 02 00 00       	jmp    3038af <__vsnprintf+0x3a1>
  3035ef:	80 7d d7 62          	cmpb   $0x62,-0x29(%ebp)
  3035f3:	75 34                	jne    303629 <__vsnprintf+0x11b>
  3035f5:	8b 45 14             	mov    0x14(%ebp),%eax
  3035f8:	8d 50 04             	lea    0x4(%eax),%edx
  3035fb:	89 55 14             	mov    %edx,0x14(%ebp)
  3035fe:	8b 00                	mov    (%eax),%eax
  303600:	89 45 a8             	mov    %eax,-0x58(%ebp)
  303603:	c7 45 ac 00 00 00 00 	movl   $0x0,-0x54(%ebp)
  30360a:	83 ec 04             	sub    $0x4,%esp
  30360d:	6a 20                	push   $0x20
  30360f:	ff 75 ac             	pushl  -0x54(%ebp)
  303612:	ff 75 a8             	pushl  -0x58(%ebp)
  303615:	ff 75 0c             	pushl  0xc(%ebp)
  303618:	8d 45 94             	lea    -0x6c(%ebp),%eax
  30361b:	50                   	push   %eax
  30361c:	e8 87 fb ff ff       	call   3031a8 <__format_add_bin>
  303621:	83 c4 18             	add    $0x18,%esp
  303624:	e9 86 02 00 00       	jmp    3038af <__vsnprintf+0x3a1>
  303629:	80 7d d7 42          	cmpb   $0x42,-0x29(%ebp)
  30362d:	75 33                	jne    303662 <__vsnprintf+0x154>
  30362f:	8b 45 14             	mov    0x14(%ebp),%eax
  303632:	8d 50 08             	lea    0x8(%eax),%edx
  303635:	89 55 14             	mov    %edx,0x14(%ebp)
  303638:	8b 50 04             	mov    0x4(%eax),%edx
  30363b:	8b 00                	mov    (%eax),%eax
  30363d:	89 45 b0             	mov    %eax,-0x50(%ebp)
  303640:	89 55 b4             	mov    %edx,-0x4c(%ebp)
  303643:	83 ec 04             	sub    $0x4,%esp
  303646:	6a 40                	push   $0x40
  303648:	ff 75 b4             	pushl  -0x4c(%ebp)
  30364b:	ff 75 b0             	pushl  -0x50(%ebp)
  30364e:	ff 75 0c             	pushl  0xc(%ebp)
  303651:	8d 45 94             	lea    -0x6c(%ebp),%eax
  303654:	50                   	push   %eax
  303655:	e8 4e fb ff ff       	call   3031a8 <__format_add_bin>
  30365a:	83 c4 18             	add    $0x18,%esp
  30365d:	e9 4d 02 00 00       	jmp    3038af <__vsnprintf+0x3a1>
  303662:	80 7d d7 64          	cmpb   $0x64,-0x29(%ebp)
  303666:	74 0a                	je     303672 <__vsnprintf+0x164>
  303668:	80 7d d7 69          	cmpb   $0x69,-0x29(%ebp)
  30366c:	0f 85 80 00 00 00    	jne    3036f2 <__vsnprintf+0x1e4>
  303672:	83 7d f4 07          	cmpl   $0x7,-0xc(%ebp)
  303676:	76 16                	jbe    30368e <__vsnprintf+0x180>
  303678:	8b 45 14             	mov    0x14(%ebp),%eax
  30367b:	8d 50 08             	lea    0x8(%eax),%edx
  30367e:	89 55 14             	mov    %edx,0x14(%ebp)
  303681:	8b 50 04             	mov    0x4(%eax),%edx
  303684:	8b 00                	mov    (%eax),%eax
  303686:	89 45 e0             	mov    %eax,-0x20(%ebp)
  303689:	89 55 e4             	mov    %edx,-0x1c(%ebp)
  30368c:	eb 4a                	jmp    3036d8 <__vsnprintf+0x1ca>
  30368e:	83 7d f4 04          	cmpl   $0x4,-0xc(%ebp)
  303692:	75 14                	jne    3036a8 <__vsnprintf+0x19a>
  303694:	8b 45 14             	mov    0x14(%ebp),%eax
  303697:	8d 50 04             	lea    0x4(%eax),%edx
  30369a:	89 55 14             	mov    %edx,0x14(%ebp)
  30369d:	8b 00                	mov    (%eax),%eax
  30369f:	99                   	cltd   
  3036a0:	89 45 e0             	mov    %eax,-0x20(%ebp)
  3036a3:	89 55 e4             	mov    %edx,-0x1c(%ebp)
  3036a6:	eb 30                	jmp    3036d8 <__vsnprintf+0x1ca>
  3036a8:	83 7d f4 02          	cmpl   $0x2,-0xc(%ebp)
  3036ac:	75 15                	jne    3036c3 <__vsnprintf+0x1b5>
  3036ae:	8b 45 14             	mov    0x14(%ebp),%eax
  3036b1:	8d 50 04             	lea    0x4(%eax),%edx
  3036b4:	89 55 14             	mov    %edx,0x14(%ebp)
  3036b7:	8b 00                	mov    (%eax),%eax
  3036b9:	98                   	cwtl   
  3036ba:	99                   	cltd   
  3036bb:	89 45 e0             	mov    %eax,-0x20(%ebp)
  3036be:	89 55 e4             	mov    %edx,-0x1c(%ebp)
  3036c1:	eb 15                	jmp    3036d8 <__vsnprintf+0x1ca>
  3036c3:	8b 45 14             	mov    0x14(%ebp),%eax
  3036c6:	8d 50 04             	lea    0x4(%eax),%edx
  3036c9:	89 55 14             	mov    %edx,0x14(%ebp)
  3036cc:	8b 00                	mov    (%eax),%eax
  3036ce:	0f be c0             	movsbl %al,%eax
  3036d1:	99                   	cltd   
  3036d2:	89 45 e0             	mov    %eax,-0x20(%ebp)
  3036d5:	89 55 e4             	mov    %edx,-0x1c(%ebp)
  3036d8:	ff 75 e4             	pushl  -0x1c(%ebp)
  3036db:	ff 75 e0             	pushl  -0x20(%ebp)
  3036de:	ff 75 0c             	pushl  0xc(%ebp)
  3036e1:	8d 45 94             	lea    -0x6c(%ebp),%eax
  3036e4:	50                   	push   %eax
  3036e5:	e8 39 fb ff ff       	call   303223 <__format_add_idec>
  3036ea:	83 c4 10             	add    $0x10,%esp
  3036ed:	e9 bd 01 00 00       	jmp    3038af <__vsnprintf+0x3a1>
  3036f2:	80 7d d7 75          	cmpb   $0x75,-0x29(%ebp)
  3036f6:	74 0a                	je     303702 <__vsnprintf+0x1f4>
  3036f8:	80 7d d7 78          	cmpb   $0x78,-0x29(%ebp)
  3036fc:	0f 85 b0 00 00 00    	jne    3037b2 <__vsnprintf+0x2a4>
  303702:	83 7d f4 07          	cmpl   $0x7,-0xc(%ebp)
  303706:	76 16                	jbe    30371e <__vsnprintf+0x210>
  303708:	8b 45 14             	mov    0x14(%ebp),%eax
  30370b:	8d 50 08             	lea    0x8(%eax),%edx
  30370e:	89 55 14             	mov    %edx,0x14(%ebp)
  303711:	8b 50 04             	mov    0x4(%eax),%edx
  303714:	8b 00                	mov    (%eax),%eax
  303716:	89 45 d8             	mov    %eax,-0x28(%ebp)
  303719:	89 55 dc             	mov    %edx,-0x24(%ebp)
  30371c:	eb 55                	jmp    303773 <__vsnprintf+0x265>
  30371e:	83 7d f4 04          	cmpl   $0x4,-0xc(%ebp)
  303722:	75 17                	jne    30373b <__vsnprintf+0x22d>
  303724:	8b 45 14             	mov    0x14(%ebp),%eax
  303727:	8d 50 04             	lea    0x4(%eax),%edx
  30372a:	89 55 14             	mov    %edx,0x14(%ebp)
  30372d:	8b 00                	mov    (%eax),%eax
  30372f:	89 45 d8             	mov    %eax,-0x28(%ebp)
  303732:	c7 45 dc 00 00 00 00 	movl   $0x0,-0x24(%ebp)
  303739:	eb 38                	jmp    303773 <__vsnprintf+0x265>
  30373b:	83 7d f4 02          	cmpl   $0x2,-0xc(%ebp)
  30373f:	75 1a                	jne    30375b <__vsnprintf+0x24d>
  303741:	8b 45 14             	mov    0x14(%ebp),%eax
  303744:	8d 50 04             	lea    0x4(%eax),%edx
  303747:	89 55 14             	mov    %edx,0x14(%ebp)
  30374a:	8b 00                	mov    (%eax),%eax
  30374c:	0f b7 c0             	movzwl %ax,%eax
  30374f:	89 45 d8             	mov    %eax,-0x28(%ebp)
  303752:	c7 45 dc 00 00 00 00 	movl   $0x0,-0x24(%ebp)
  303759:	eb 18                	jmp    303773 <__vsnprintf+0x265>
  30375b:	8b 45 14             	mov    0x14(%ebp),%eax
  30375e:	8d 50 04             	lea    0x4(%eax),%edx
  303761:	89 55 14             	mov    %edx,0x14(%ebp)
  303764:	8b 00                	mov    (%eax),%eax
  303766:	0f b6 c0             	movzbl %al,%eax
  303769:	89 45 d8             	mov    %eax,-0x28(%ebp)
  30376c:	c7 45 dc 00 00 00 00 	movl   $0x0,-0x24(%ebp)
  303773:	80 7d d7 75          	cmpb   $0x75,-0x29(%ebp)
  303777:	75 1a                	jne    303793 <__vsnprintf+0x285>
  303779:	ff 75 dc             	pushl  -0x24(%ebp)
  30377c:	ff 75 d8             	pushl  -0x28(%ebp)
  30377f:	ff 75 0c             	pushl  0xc(%ebp)
  303782:	8d 45 94             	lea    -0x6c(%ebp),%eax
  303785:	50                   	push   %eax
  303786:	e8 99 fb ff ff       	call   303324 <__format_add_udec>
  30378b:	83 c4 10             	add    $0x10,%esp
  30378e:	e9 1c 01 00 00       	jmp    3038af <__vsnprintf+0x3a1>
  303793:	83 ec 0c             	sub    $0xc,%esp
  303796:	6a 00                	push   $0x0
  303798:	ff 75 dc             	pushl  -0x24(%ebp)
  30379b:	ff 75 d8             	pushl  -0x28(%ebp)
  30379e:	ff 75 0c             	pushl  0xc(%ebp)
  3037a1:	8d 45 94             	lea    -0x6c(%ebp),%eax
  3037a4:	50                   	push   %eax
  3037a5:	e8 35 fd ff ff       	call   3034df <__format_add_hex>
  3037aa:	83 c4 20             	add    $0x20,%esp
  3037ad:	e9 fd 00 00 00       	jmp    3038af <__vsnprintf+0x3a1>
  3037b2:	80 7d d7 44          	cmpb   $0x44,-0x29(%ebp)
  3037b6:	75 2e                	jne    3037e6 <__vsnprintf+0x2d8>
  3037b8:	8b 45 14             	mov    0x14(%ebp),%eax
  3037bb:	8d 50 08             	lea    0x8(%eax),%edx
  3037be:	89 55 14             	mov    %edx,0x14(%ebp)
  3037c1:	8b 50 04             	mov    0x4(%eax),%edx
  3037c4:	8b 00                	mov    (%eax),%eax
  3037c6:	89 45 b8             	mov    %eax,-0x48(%ebp)
  3037c9:	89 55 bc             	mov    %edx,-0x44(%ebp)
  3037cc:	ff 75 bc             	pushl  -0x44(%ebp)
  3037cf:	ff 75 b8             	pushl  -0x48(%ebp)
  3037d2:	ff 75 0c             	pushl  0xc(%ebp)
  3037d5:	8d 45 94             	lea    -0x6c(%ebp),%eax
  3037d8:	50                   	push   %eax
  3037d9:	e8 45 fa ff ff       	call   303223 <__format_add_idec>
  3037de:	83 c4 10             	add    $0x10,%esp
  3037e1:	e9 c9 00 00 00       	jmp    3038af <__vsnprintf+0x3a1>
  3037e6:	80 7d d7 58          	cmpb   $0x58,-0x29(%ebp)
  3037ea:	75 33                	jne    30381f <__vsnprintf+0x311>
  3037ec:	8b 45 14             	mov    0x14(%ebp),%eax
  3037ef:	8d 50 08             	lea    0x8(%eax),%edx
  3037f2:	89 55 14             	mov    %edx,0x14(%ebp)
  3037f5:	8b 50 04             	mov    0x4(%eax),%edx
  3037f8:	8b 00                	mov    (%eax),%eax
  3037fa:	89 45 c0             	mov    %eax,-0x40(%ebp)
  3037fd:	89 55 c4             	mov    %edx,-0x3c(%ebp)
  303800:	83 ec 0c             	sub    $0xc,%esp
  303803:	6a 00                	push   $0x0
  303805:	ff 75 c4             	pushl  -0x3c(%ebp)
  303808:	ff 75 c0             	pushl  -0x40(%ebp)
  30380b:	ff 75 0c             	pushl  0xc(%ebp)
  30380e:	8d 45 94             	lea    -0x6c(%ebp),%eax
  303811:	50                   	push   %eax
  303812:	e8 c8 fc ff ff       	call   3034df <__format_add_hex>
  303817:	83 c4 20             	add    $0x20,%esp
  30381a:	e9 90 00 00 00       	jmp    3038af <__vsnprintf+0x3a1>
  30381f:	80 7d d7 70          	cmpb   $0x70,-0x29(%ebp)
  303823:	75 48                	jne    30386d <__vsnprintf+0x35f>
  303825:	8b 45 14             	mov    0x14(%ebp),%eax
  303828:	8d 50 04             	lea    0x4(%eax),%edx
  30382b:	89 55 14             	mov    %edx,0x14(%ebp)
  30382e:	8b 00                	mov    (%eax),%eax
  303830:	89 45 c8             	mov    %eax,-0x38(%ebp)
  303833:	c7 45 cc 00 00 00 00 	movl   $0x0,-0x34(%ebp)
  30383a:	83 ec 04             	sub    $0x4,%esp
  30383d:	68 18 53 30 00       	push   $0x305318
  303842:	ff 75 0c             	pushl  0xc(%ebp)
  303845:	8d 45 94             	lea    -0x6c(%ebp),%eax
  303848:	50                   	push   %eax
  303849:	e8 0f f9 ff ff       	call   30315d <__format_add_str>
  30384e:	83 c4 10             	add    $0x10,%esp
  303851:	83 ec 0c             	sub    $0xc,%esp
  303854:	6a 00                	push   $0x0
  303856:	ff 75 cc             	pushl  -0x34(%ebp)
  303859:	ff 75 c8             	pushl  -0x38(%ebp)
  30385c:	ff 75 0c             	pushl  0xc(%ebp)
  30385f:	8d 45 94             	lea    -0x6c(%ebp),%eax
  303862:	50                   	push   %eax
  303863:	e8 77 fc ff ff       	call   3034df <__format_add_hex>
  303868:	83 c4 20             	add    $0x20,%esp
  30386b:	eb 42                	jmp    3038af <__vsnprintf+0x3a1>
  30386d:	80 7d d7 2f          	cmpb   $0x2f,-0x29(%ebp)
  303871:	7e 08                	jle    30387b <__vsnprintf+0x36d>
  303873:	80 7d d7 39          	cmpb   $0x39,-0x29(%ebp)
  303877:	7f 02                	jg     30387b <__vsnprintf+0x36d>
  303879:	eb 71                	jmp    3038ec <__vsnprintf+0x3de>
  30387b:	80 7d d7 25          	cmpb   $0x25,-0x29(%ebp)
  30387f:	75 19                	jne    30389a <__vsnprintf+0x38c>
  303881:	0f be 45 d7          	movsbl -0x29(%ebp),%eax
  303885:	83 ec 04             	sub    $0x4,%esp
  303888:	50                   	push   %eax
  303889:	ff 75 0c             	pushl  0xc(%ebp)
  30388c:	8d 45 94             	lea    -0x6c(%ebp),%eax
  30388f:	50                   	push   %eax
  303890:	e8 d8 f7 ff ff       	call   30306d <__buf_add>
  303895:	83 c4 10             	add    $0x10,%esp
  303898:	eb 15                	jmp    3038af <__vsnprintf+0x3a1>
  30389a:	0f be 45 d7          	movsbl -0x29(%ebp),%eax
  30389e:	83 ec 08             	sub    $0x8,%esp
  3038a1:	50                   	push   %eax
  3038a2:	68 1b 53 30 00       	push   $0x30531b
  3038a7:	e8 fd f7 ff ff       	call   3030a9 <panic>
  3038ac:	83 c4 10             	add    $0x10,%esp
  3038af:	c7 45 f0 00 00 00 00 	movl   $0x0,-0x10(%ebp)
  3038b6:	c7 45 ec 00 00 00 00 	movl   $0x0,-0x14(%ebp)
  3038bd:	eb 2d                	jmp    3038ec <__vsnprintf+0x3de>
  3038bf:	80 7d d7 25          	cmpb   $0x25,-0x29(%ebp)
  3038c3:	75 10                	jne    3038d5 <__vsnprintf+0x3c7>
  3038c5:	c7 45 f0 01 00 00 00 	movl   $0x1,-0x10(%ebp)
  3038cc:	c7 45 f4 04 00 00 00 	movl   $0x4,-0xc(%ebp)
  3038d3:	eb 17                	jmp    3038ec <__vsnprintf+0x3de>
  3038d5:	0f be 45 d7          	movsbl -0x29(%ebp),%eax
  3038d9:	83 ec 04             	sub    $0x4,%esp
  3038dc:	50                   	push   %eax
  3038dd:	ff 75 0c             	pushl  0xc(%ebp)
  3038e0:	8d 45 94             	lea    -0x6c(%ebp),%eax
  3038e3:	50                   	push   %eax
  3038e4:	e8 84 f7 ff ff       	call   30306d <__buf_add>
  3038e9:	83 c4 10             	add    $0x10,%esp
  3038ec:	8b 45 10             	mov    0x10(%ebp),%eax
  3038ef:	0f b6 00             	movzbl (%eax),%eax
  3038f2:	84 c0                	test   %al,%al
  3038f4:	0f 85 4f fc ff ff    	jne    303549 <__vsnprintf+0x3b>
  3038fa:	8b 4d 94             	mov    -0x6c(%ebp),%ecx
  3038fd:	8b 45 9c             	mov    -0x64(%ebp),%eax
  303900:	8d 50 01             	lea    0x1(%eax),%edx
  303903:	89 55 9c             	mov    %edx,-0x64(%ebp)
  303906:	01 c8                	add    %ecx,%eax
  303908:	c6 00 00             	movb   $0x0,(%eax)
  30390b:	8b 45 9c             	mov    -0x64(%ebp),%eax
  30390e:	c9                   	leave  
  30390f:	c3                   	ret    

00303910 <__uart_flush_recv>:
  303910:	55                   	push   %ebp
  303911:	89 e5                	mov    %esp,%ebp
  303913:	83 ec 14             	sub    $0x14,%esp
  303916:	8b 45 08             	mov    0x8(%ebp),%eax
  303919:	66 89 45 ec          	mov    %ax,-0x14(%ebp)
  30391d:	eb 0a                	jmp    303929 <__uart_flush_recv+0x19>
  30391f:	0f b7 45 ec          	movzwl -0x14(%ebp),%eax
  303923:	89 c2                	mov    %eax,%edx
  303925:	ec                   	in     (%dx),%al
  303926:	88 45 fe             	mov    %al,-0x2(%ebp)
  303929:	0f b7 45 ec          	movzwl -0x14(%ebp),%eax
  30392d:	83 c0 05             	add    $0x5,%eax
  303930:	89 c2                	mov    %eax,%edx
  303932:	ec                   	in     (%dx),%al
  303933:	88 45 ff             	mov    %al,-0x1(%ebp)
  303936:	0f b6 45 ff          	movzbl -0x1(%ebp),%eax
  30393a:	0f b6 c0             	movzbl %al,%eax
  30393d:	83 e0 01             	and    $0x1,%eax
  303940:	85 c0                	test   %eax,%eax
  303942:	75 db                	jne    30391f <__uart_flush_recv+0xf>
  303944:	90                   	nop
  303945:	c9                   	leave  
  303946:	c3                   	ret    

00303947 <__uart_fifo_init>:
  303947:	55                   	push   %ebp
  303948:	89 e5                	mov    %esp,%ebp
  30394a:	83 ec 14             	sub    $0x14,%esp
  30394d:	8b 45 08             	mov    0x8(%ebp),%eax
  303950:	66 89 45 ec          	mov    %ax,-0x14(%ebp)
  303954:	0f b7 45 ec          	movzwl -0x14(%ebp),%eax
  303958:	8d 50 03             	lea    0x3(%eax),%edx
  30395b:	b8 bf 00 00 00       	mov    $0xbf,%eax
  303960:	ee                   	out    %al,(%dx)
  303961:	c6 45 fe 00          	movb   $0x0,-0x2(%ebp)
  303965:	0f b6 45 fe          	movzbl -0x2(%ebp),%eax
  303969:	83 c8 10             	or     $0x10,%eax
  30396c:	88 45 fe             	mov    %al,-0x2(%ebp)
  30396f:	0f b6 45 fe          	movzbl -0x2(%ebp),%eax
  303973:	0f b7 55 ec          	movzwl -0x14(%ebp),%edx
  303977:	83 c2 02             	add    $0x2,%edx
  30397a:	ee                   	out    %al,(%dx)
  30397b:	0f b6 45 ff          	movzbl -0x1(%ebp),%eax
  30397f:	83 e0 fe             	and    $0xfffffffe,%eax
  303982:	88 45 ff             	mov    %al,-0x1(%ebp)
  303985:	0f b6 45 ff          	movzbl -0x1(%ebp),%eax
  303989:	83 e0 f7             	and    $0xfffffff7,%eax
  30398c:	88 45 ff             	mov    %al,-0x1(%ebp)
  30398f:	0f b6 45 ff          	movzbl -0x1(%ebp),%eax
  303993:	0f b7 55 ec          	movzwl -0x14(%ebp),%edx
  303997:	83 c2 02             	add    $0x2,%edx
  30399a:	ee                   	out    %al,(%dx)
  30399b:	0f b7 45 ec          	movzwl -0x14(%ebp),%eax
  30399f:	8d 50 03             	lea    0x3(%eax),%edx
  3039a2:	b8 00 00 00 00       	mov    $0x0,%eax
  3039a7:	ee                   	out    %al,(%dx)
  3039a8:	c6 45 fe 00          	movb   $0x0,-0x2(%ebp)
  3039ac:	0f b6 45 fe          	movzbl -0x2(%ebp),%eax
  3039b0:	83 c8 40             	or     $0x40,%eax
  3039b3:	88 45 fe             	mov    %al,-0x2(%ebp)
  3039b6:	0f b6 45 fe          	movzbl -0x2(%ebp),%eax
  3039ba:	83 c8 80             	or     $0xffffff80,%eax
  3039bd:	88 45 fe             	mov    %al,-0x2(%ebp)
  3039c0:	0f b6 45 fe          	movzbl -0x2(%ebp),%eax
  3039c4:	0f b7 55 ec          	movzwl -0x14(%ebp),%edx
  3039c8:	83 c2 02             	add    $0x2,%edx
  3039cb:	ee                   	out    %al,(%dx)
  3039cc:	90                   	nop
  3039cd:	c9                   	leave  
  3039ce:	c3                   	ret    

003039cf <__uart_common_init>:
  3039cf:	55                   	push   %ebp
  3039d0:	89 e5                	mov    %esp,%ebp
  3039d2:	83 ec 14             	sub    $0x14,%esp
  3039d5:	8b 45 08             	mov    0x8(%ebp),%eax
  3039d8:	66 89 45 ec          	mov    %ax,-0x14(%ebp)
  3039dc:	0f b7 45 ec          	movzwl -0x14(%ebp),%eax
  3039e0:	8d 50 03             	lea    0x3(%eax),%edx
  3039e3:	b8 80 00 00 00       	mov    $0x80,%eax
  3039e8:	ee                   	out    %al,(%dx)
  3039e9:	b8 01 00 00 00       	mov    $0x1,%eax
  3039ee:	0f b7 55 ec          	movzwl -0x14(%ebp),%edx
  3039f2:	ee                   	out    %al,(%dx)
  3039f3:	0f b7 45 ec          	movzwl -0x14(%ebp),%eax
  3039f7:	8d 50 01             	lea    0x1(%eax),%edx
  3039fa:	b8 00 00 00 00       	mov    $0x0,%eax
  3039ff:	ee                   	out    %al,(%dx)
  303a00:	c6 45 fe 00          	movb   $0x0,-0x2(%ebp)
  303a04:	0f b6 45 fe          	movzbl -0x2(%ebp),%eax
  303a08:	83 c8 03             	or     $0x3,%eax
  303a0b:	88 45 fe             	mov    %al,-0x2(%ebp)
  303a0e:	0f b6 45 fe          	movzbl -0x2(%ebp),%eax
  303a12:	0f b7 55 ec          	movzwl -0x14(%ebp),%edx
  303a16:	83 c2 03             	add    $0x3,%edx
  303a19:	ee                   	out    %al,(%dx)
  303a1a:	c6 45 ff 00          	movb   $0x0,-0x1(%ebp)
  303a1e:	0f b6 45 ff          	movzbl -0x1(%ebp),%eax
  303a22:	0f b7 55 ec          	movzwl -0x14(%ebp),%edx
  303a26:	83 c2 01             	add    $0x1,%edx
  303a29:	ee                   	out    %al,(%dx)
  303a2a:	0f b7 45 ec          	movzwl -0x14(%ebp),%eax
  303a2e:	50                   	push   %eax
  303a2f:	e8 dc fe ff ff       	call   303910 <__uart_flush_recv>
  303a34:	83 c4 04             	add    $0x4,%esp
  303a37:	90                   	nop
  303a38:	c9                   	leave  
  303a39:	c3                   	ret    

00303a3a <uart_init>:
  303a3a:	55                   	push   %ebp
  303a3b:	89 e5                	mov    %esp,%ebp
  303a3d:	68 f8 03 00 00       	push   $0x3f8
  303a42:	e8 00 ff ff ff       	call   303947 <__uart_fifo_init>
  303a47:	83 c4 04             	add    $0x4,%esp
  303a4a:	68 f8 03 00 00       	push   $0x3f8
  303a4f:	e8 7b ff ff ff       	call   3039cf <__uart_common_init>
  303a54:	83 c4 04             	add    $0x4,%esp
  303a57:	90                   	nop
  303a58:	c9                   	leave  
  303a59:	c3                   	ret    

00303a5a <__uart_read>:
  303a5a:	55                   	push   %ebp
  303a5b:	89 e5                	mov    %esp,%ebp
  303a5d:	83 ec 14             	sub    $0x14,%esp
  303a60:	8b 45 08             	mov    0x8(%ebp),%eax
  303a63:	66 89 45 ec          	mov    %ax,-0x14(%ebp)
  303a67:	eb 2c                	jmp    303a95 <__uart_read+0x3b>
  303a69:	0f b7 45 ec          	movzwl -0x14(%ebp),%eax
  303a6d:	89 c2                	mov    %eax,%edx
  303a6f:	ec                   	in     (%dx),%al
  303a70:	88 45 fe             	mov    %al,-0x2(%ebp)
  303a73:	0f b6 45 fe          	movzbl -0x2(%ebp),%eax
  303a77:	8b 55 0c             	mov    0xc(%ebp),%edx
  303a7a:	8b 0a                	mov    (%edx),%ecx
  303a7c:	8b 55 0c             	mov    0xc(%ebp),%edx
  303a7f:	8b 52 08             	mov    0x8(%edx),%edx
  303a82:	01 ca                	add    %ecx,%edx
  303a84:	88 02                	mov    %al,(%edx)
  303a86:	8b 45 0c             	mov    0xc(%ebp),%eax
  303a89:	8b 40 08             	mov    0x8(%eax),%eax
  303a8c:	8d 50 01             	lea    0x1(%eax),%edx
  303a8f:	8b 45 0c             	mov    0xc(%ebp),%eax
  303a92:	89 50 08             	mov    %edx,0x8(%eax)
  303a95:	0f b7 45 ec          	movzwl -0x14(%ebp),%eax
  303a99:	83 c0 05             	add    $0x5,%eax
  303a9c:	89 c2                	mov    %eax,%edx
  303a9e:	ec                   	in     (%dx),%al
  303a9f:	88 45 ff             	mov    %al,-0x1(%ebp)
  303aa2:	0f b6 45 ff          	movzbl -0x1(%ebp),%eax
  303aa6:	0f b6 c0             	movzbl %al,%eax
  303aa9:	83 e0 01             	and    $0x1,%eax
  303aac:	85 c0                	test   %eax,%eax
  303aae:	74 0b                	je     303abb <__uart_read+0x61>
  303ab0:	8b 45 0c             	mov    0xc(%ebp),%eax
  303ab3:	8b 40 08             	mov    0x8(%eax),%eax
  303ab6:	39 45 10             	cmp    %eax,0x10(%ebp)
  303ab9:	77 ae                	ja     303a69 <__uart_read+0xf>
  303abb:	90                   	nop
  303abc:	c9                   	leave  
  303abd:	c3                   	ret    

00303abe <__uart_write>:
  303abe:	55                   	push   %ebp
  303abf:	89 e5                	mov    %esp,%ebp
  303ac1:	83 ec 14             	sub    $0x14,%esp
  303ac4:	8b 45 08             	mov    0x8(%ebp),%eax
  303ac7:	66 89 45 ec          	mov    %ax,-0x14(%ebp)
  303acb:	eb 3f                	jmp    303b0c <__uart_write+0x4e>
  303acd:	0f b7 45 ec          	movzwl -0x14(%ebp),%eax
  303ad1:	83 c0 05             	add    $0x5,%eax
  303ad4:	89 c2                	mov    %eax,%edx
  303ad6:	ec                   	in     (%dx),%al
  303ad7:	88 45 ff             	mov    %al,-0x1(%ebp)
  303ada:	0f b6 45 ff          	movzbl -0x1(%ebp),%eax
  303ade:	0f b6 c0             	movzbl %al,%eax
  303ae1:	83 e0 20             	and    $0x20,%eax
  303ae4:	85 c0                	test   %eax,%eax
  303ae6:	74 24                	je     303b0c <__uart_write+0x4e>
  303ae8:	8b 45 0c             	mov    0xc(%ebp),%eax
  303aeb:	8b 10                	mov    (%eax),%edx
  303aed:	8b 45 0c             	mov    0xc(%ebp),%eax
  303af0:	8b 40 08             	mov    0x8(%eax),%eax
  303af3:	01 d0                	add    %edx,%eax
  303af5:	0f b6 00             	movzbl (%eax),%eax
  303af8:	0f b7 55 ec          	movzwl -0x14(%ebp),%edx
  303afc:	ee                   	out    %al,(%dx)
  303afd:	8b 45 0c             	mov    0xc(%ebp),%eax
  303b00:	8b 40 08             	mov    0x8(%eax),%eax
  303b03:	8d 50 01             	lea    0x1(%eax),%edx
  303b06:	8b 45 0c             	mov    0xc(%ebp),%eax
  303b09:	89 50 08             	mov    %edx,0x8(%eax)
  303b0c:	8b 45 0c             	mov    0xc(%ebp),%eax
  303b0f:	8b 40 08             	mov    0x8(%eax),%eax
  303b12:	39 45 10             	cmp    %eax,0x10(%ebp)
  303b15:	77 b6                	ja     303acd <__uart_write+0xf>
  303b17:	90                   	nop
  303b18:	c9                   	leave  
  303b19:	c3                   	ret    

00303b1a <uart_read>:
  303b1a:	55                   	push   %ebp
  303b1b:	89 e5                	mov    %esp,%ebp
  303b1d:	83 ec 10             	sub    $0x10,%esp
  303b20:	8b 45 08             	mov    0x8(%ebp),%eax
  303b23:	89 45 f4             	mov    %eax,-0xc(%ebp)
  303b26:	c7 45 fc 00 00 00 00 	movl   $0x0,-0x4(%ebp)
  303b2d:	ff 75 0c             	pushl  0xc(%ebp)
  303b30:	8d 45 f4             	lea    -0xc(%ebp),%eax
  303b33:	50                   	push   %eax
  303b34:	68 f8 03 00 00       	push   $0x3f8
  303b39:	e8 1c ff ff ff       	call   303a5a <__uart_read>
  303b3e:	83 c4 0c             	add    $0xc,%esp
  303b41:	8b 45 fc             	mov    -0x4(%ebp),%eax
  303b44:	c9                   	leave  
  303b45:	c3                   	ret    

00303b46 <uart_write>:
  303b46:	55                   	push   %ebp
  303b47:	89 e5                	mov    %esp,%ebp
  303b49:	83 ec 10             	sub    $0x10,%esp
  303b4c:	8b 45 08             	mov    0x8(%ebp),%eax
  303b4f:	89 45 f4             	mov    %eax,-0xc(%ebp)
  303b52:	c7 45 fc 00 00 00 00 	movl   $0x0,-0x4(%ebp)
  303b59:	ff 75 0c             	pushl  0xc(%ebp)
  303b5c:	8d 45 f4             	lea    -0xc(%ebp),%eax
  303b5f:	50                   	push   %eax
  303b60:	68 f8 03 00 00       	push   $0x3f8
  303b65:	e8 54 ff ff ff       	call   303abe <__uart_write>
  303b6a:	83 c4 0c             	add    $0xc,%esp
  303b6d:	8b 45 fc             	mov    -0x4(%ebp),%eax
  303b70:	c9                   	leave  
  303b71:	c3                   	ret    

00303b72 <uart_flush>:
  303b72:	55                   	push   %ebp
  303b73:	89 e5                	mov    %esp,%ebp
  303b75:	83 ec 10             	sub    $0x10,%esp
  303b78:	c7 45 fc 10 00 00 00 	movl   $0x10,-0x4(%ebp)
  303b7f:	eb 28                	jmp    303ba9 <uart_flush+0x37>
  303b81:	b8 fd 03 00 00       	mov    $0x3fd,%eax
  303b86:	89 c2                	mov    %eax,%edx
  303b88:	ec                   	in     (%dx),%al
  303b89:	88 45 fb             	mov    %al,-0x5(%ebp)
  303b8c:	0f b6 45 fb          	movzbl -0x5(%ebp),%eax
  303b90:	0f b6 c0             	movzbl %al,%eax
  303b93:	83 e0 20             	and    $0x20,%eax
  303b96:	85 c0                	test   %eax,%eax
  303b98:	74 0f                	je     303ba9 <uart_flush+0x37>
  303b9a:	b8 00 00 00 00       	mov    $0x0,%eax
  303b9f:	ba f8 03 00 00       	mov    $0x3f8,%edx
  303ba4:	ee                   	out    %al,(%dx)
  303ba5:	83 6d fc 01          	subl   $0x1,-0x4(%ebp)
  303ba9:	83 7d fc 00          	cmpl   $0x0,-0x4(%ebp)
  303bad:	75 d2                	jne    303b81 <uart_flush+0xf>
  303baf:	90                   	nop
  303bb0:	c9                   	leave  
  303bb1:	c3                   	ret    

00303bb2 <pic_init>:
  303bb2:	55                   	push   %ebp
  303bb3:	89 e5                	mov    %esp,%ebp
  303bb5:	83 ec 10             	sub    $0x10,%esp
  303bb8:	c6 45 ff 11          	movb   $0x11,-0x1(%ebp)
  303bbc:	0f b6 45 ff          	movzbl -0x1(%ebp),%eax
  303bc0:	ba 20 00 00 00       	mov    $0x20,%edx
  303bc5:	ee                   	out    %al,(%dx)
  303bc6:	0f b6 45 ff          	movzbl -0x1(%ebp),%eax
  303bca:	ba a0 00 00 00       	mov    $0xa0,%edx
  303bcf:	ee                   	out    %al,(%dx)
  303bd0:	c6 45 fe 20          	movb   $0x20,-0x2(%ebp)
  303bd4:	0f b6 45 fe          	movzbl -0x2(%ebp),%eax
  303bd8:	ba 21 00 00 00       	mov    $0x21,%edx
  303bdd:	ee                   	out    %al,(%dx)
  303bde:	c6 45 fe 28          	movb   $0x28,-0x2(%ebp)
  303be2:	0f b6 45 fe          	movzbl -0x2(%ebp),%eax
  303be6:	ba a1 00 00 00       	mov    $0xa1,%edx
  303beb:	ee                   	out    %al,(%dx)
  303bec:	c6 45 fd 00          	movb   $0x0,-0x3(%ebp)
  303bf0:	0f b6 45 fd          	movzbl -0x3(%ebp),%eax
  303bf4:	83 c8 04             	or     $0x4,%eax
  303bf7:	88 45 fd             	mov    %al,-0x3(%ebp)
  303bfa:	0f b6 45 fd          	movzbl -0x3(%ebp),%eax
  303bfe:	ba 21 00 00 00       	mov    $0x21,%edx
  303c03:	ee                   	out    %al,(%dx)
  303c04:	c6 45 fd 00          	movb   $0x0,-0x3(%ebp)
  303c08:	0f b6 45 fd          	movzbl -0x3(%ebp),%eax
  303c0c:	83 e0 f8             	and    $0xfffffff8,%eax
  303c0f:	83 c8 02             	or     $0x2,%eax
  303c12:	88 45 fd             	mov    %al,-0x3(%ebp)
  303c15:	0f b6 45 fd          	movzbl -0x3(%ebp),%eax
  303c19:	ba a1 00 00 00       	mov    $0xa1,%edx
  303c1e:	ee                   	out    %al,(%dx)
  303c1f:	c6 45 fc 01          	movb   $0x1,-0x4(%ebp)
  303c23:	0f b6 45 fc          	movzbl -0x4(%ebp),%eax
  303c27:	ba 21 00 00 00       	mov    $0x21,%edx
  303c2c:	ee                   	out    %al,(%dx)
  303c2d:	0f b6 45 fc          	movzbl -0x4(%ebp),%eax
  303c31:	ba a1 00 00 00       	mov    $0xa1,%edx
  303c36:	ee                   	out    %al,(%dx)
  303c37:	90                   	nop
  303c38:	c9                   	leave  
  303c39:	c3                   	ret    

00303c3a <intr_init>:
  303c3a:	55                   	push   %ebp
  303c3b:	89 e5                	mov    %esp,%ebp
  303c3d:	83 ec 20             	sub    $0x20,%esp
  303c40:	c7 45 fc 10 20 30 00 	movl   $0x302010,-0x4(%ebp)
  303c47:	c7 45 f8 00 00 00 00 	movl   $0x0,-0x8(%ebp)
  303c4e:	e9 8d 00 00 00       	jmp    303ce0 <intr_init+0xa6>
  303c53:	8b 45 fc             	mov    -0x4(%ebp),%eax
  303c56:	89 45 ee             	mov    %eax,-0x12(%ebp)
  303c59:	0f b7 4d ee          	movzwl -0x12(%ebp),%ecx
  303c5d:	0f b7 c1             	movzwl %cx,%eax
  303c60:	ba 00 00 00 00       	mov    $0x0,%edx
  303c65:	8b 4d f8             	mov    -0x8(%ebp),%ecx
  303c68:	89 04 cd c0 5d 30 00 	mov    %eax,0x305dc0(,%ecx,8)
  303c6f:	89 14 cd c4 5d 30 00 	mov    %edx,0x305dc4(,%ecx,8)
  303c76:	8b 45 f8             	mov    -0x8(%ebp),%eax
  303c79:	0f b7 14 c5 c2 5d 30 	movzwl 0x305dc2(,%eax,8),%edx
  303c80:	00 
  303c81:	83 e2 00             	and    $0x0,%edx
  303c84:	83 ca 08             	or     $0x8,%edx
  303c87:	66 89 14 c5 c2 5d 30 	mov    %dx,0x305dc2(,%eax,8)
  303c8e:	00 
  303c8f:	8b 45 f8             	mov    -0x8(%ebp),%eax
  303c92:	0f b6 14 c5 c5 5d 30 	movzbl 0x305dc5(,%eax,8),%edx
  303c99:	00 
  303c9a:	83 e2 f0             	and    $0xfffffff0,%edx
  303c9d:	83 ca 0e             	or     $0xe,%edx
  303ca0:	88 14 c5 c5 5d 30 00 	mov    %dl,0x305dc5(,%eax,8)
  303ca7:	0f b7 55 f0          	movzwl -0x10(%ebp),%edx
  303cab:	8b 45 f8             	mov    -0x8(%ebp),%eax
  303cae:	0f b7 0c c5 c6 5d 30 	movzwl 0x305dc6(,%eax,8),%ecx
  303cb5:	00 
  303cb6:	83 e1 00             	and    $0x0,%ecx
  303cb9:	09 ca                	or     %ecx,%edx
  303cbb:	66 89 14 c5 c6 5d 30 	mov    %dx,0x305dc6(,%eax,8)
  303cc2:	00 
  303cc3:	8b 45 f8             	mov    -0x8(%ebp),%eax
  303cc6:	0f b6 14 c5 c5 5d 30 	movzbl 0x305dc5(,%eax,8),%edx
  303ccd:	00 
  303cce:	83 ca 80             	or     $0xffffff80,%edx
  303cd1:	88 14 c5 c5 5d 30 00 	mov    %dl,0x305dc5(,%eax,8)
  303cd8:	83 45 f8 01          	addl   $0x1,-0x8(%ebp)
  303cdc:	83 45 fc 10          	addl   $0x10,-0x4(%ebp)
  303ce0:	81 7d f8 ff 00 00 00 	cmpl   $0xff,-0x8(%ebp)
  303ce7:	0f 86 66 ff ff ff    	jbe    303c53 <intr_init+0x19>
  303ced:	c7 45 f4 c0 5d 30 00 	movl   $0x305dc0,-0xc(%ebp)
  303cf4:	66 c7 45 f2 ff 07    	movw   $0x7ff,-0xe(%ebp)
  303cfa:	0f 01 5d f2          	lidtl  -0xe(%ebp)
  303cfe:	90                   	nop
  303cff:	c9                   	leave  
  303d00:	c3                   	ret    

00303d01 <intr32_hdlr>:
  303d01:	55                   	push   %ebp
  303d02:	89 e5                	mov    %esp,%ebp
  303d04:	83 ec 28             	sub    $0x28,%esp
  303d07:	89 45 e4             	mov    %eax,-0x1c(%ebp)
  303d0a:	89 65 ec             	mov    %esp,-0x14(%ebp)
  303d0d:	8b 45 ec             	mov    -0x14(%ebp),%eax
  303d10:	89 45 f4             	mov    %eax,-0xc(%ebp)
  303d13:	83 ec 0c             	sub    $0xc,%esp
  303d16:	68 38 53 30 00       	push   $0x305338
  303d1b:	e8 b1 f3 ff ff       	call   3030d1 <printf>
  303d20:	83 c4 10             	add    $0x10,%esp
  303d23:	8b 45 e4             	mov    -0x1c(%ebp),%eax
  303d26:	8b 40 28             	mov    0x28(%eax),%eax
  303d29:	89 45 f0             	mov    %eax,-0x10(%ebp)
  303d2c:	81 7d f0 ff ff 1f 00 	cmpl   $0x1fffff,-0x10(%ebp)
  303d33:	76 1b                	jbe    303d50 <intr32_hdlr+0x4f>
  303d35:	81 7d f0 ff ff 3f 00 	cmpl   $0x3fffff,-0x10(%ebp)
  303d3c:	77 12                	ja     303d50 <intr32_hdlr+0x4f>
  303d3e:	83 ec 0c             	sub    $0xc,%esp
  303d41:	68 4e 53 30 00       	push   $0x30534e
  303d46:	e8 86 f3 ff ff       	call   3030d1 <printf>
  303d4b:	83 c4 10             	add    $0x10,%esp
  303d4e:	eb 46                	jmp    303d96 <intr32_hdlr+0x95>
  303d50:	81 7d f0 ff ff 3f 00 	cmpl   $0x3fffff,-0x10(%ebp)
  303d57:	76 1b                	jbe    303d74 <intr32_hdlr+0x73>
  303d59:	81 7d f0 ff ff 7f 00 	cmpl   $0x7fffff,-0x10(%ebp)
  303d60:	77 12                	ja     303d74 <intr32_hdlr+0x73>
  303d62:	83 ec 0c             	sub    $0xc,%esp
  303d65:	68 68 53 30 00       	push   $0x305368
  303d6a:	e8 62 f3 ff ff       	call   3030d1 <printf>
  303d6f:	83 c4 10             	add    $0x10,%esp
  303d72:	eb 22                	jmp    303d96 <intr32_hdlr+0x95>
  303d74:	81 7d f0 ff ff 7f 00 	cmpl   $0x7fffff,-0x10(%ebp)
  303d7b:	76 19                	jbe    303d96 <intr32_hdlr+0x95>
  303d7d:	81 7d f0 ff ff bf 00 	cmpl   $0xbfffff,-0x10(%ebp)
  303d84:	77 10                	ja     303d96 <intr32_hdlr+0x95>
  303d86:	83 ec 0c             	sub    $0xc,%esp
  303d89:	68 81 53 30 00       	push   $0x305381
  303d8e:	e8 3e f3 ff ff       	call   3030d1 <printf>
  303d93:	83 c4 10             	add    $0x10,%esp
  303d96:	a1 c0 65 30 00       	mov    0x3065c0,%eax
  303d9b:	8b 40 04             	mov    0x4(%eax),%eax
  303d9e:	a3 c0 65 30 00       	mov    %eax,0x3065c0
  303da3:	83 ec 08             	sub    $0x8,%esp
  303da6:	ff 75 f4             	pushl  -0xc(%ebp)
  303da9:	68 9a 53 30 00       	push   $0x30539a
  303dae:	e8 1e f3 ff ff       	call   3030d1 <printf>
  303db3:	83 c4 10             	add    $0x10,%esp
  303db6:	a1 c0 65 30 00       	mov    0x3065c0,%eax
  303dbb:	8b 40 0c             	mov    0xc(%eax),%eax
  303dbe:	83 ec 08             	sub    $0x8,%esp
  303dc1:	50                   	push   %eax
  303dc2:	68 b0 53 30 00       	push   $0x3053b0
  303dc7:	e8 05 f3 ff ff       	call   3030d1 <printf>
  303dcc:	83 c4 10             	add    $0x10,%esp
  303dcf:	a1 c0 65 30 00       	mov    0x3065c0,%eax
  303dd4:	8b 40 0c             	mov    0xc(%eax),%eax
  303dd7:	a3 e4 65 30 00       	mov    %eax,0x3065e4
  303ddc:	a1 c0 65 30 00       	mov    0x3065c0,%eax
  303de1:	8b 00                	mov    (%eax),%eax
  303de3:	0f 22 d8             	mov    %eax,%cr3
  303de6:	a1 c0 65 30 00       	mov    0x3065c0,%eax
  303deb:	8b 50 0c             	mov    0xc(%eax),%edx
  303dee:	8b 45 f4             	mov    -0xc(%ebp),%eax
  303df1:	83 ec 0c             	sub    $0xc,%esp
  303df4:	52                   	push   %edx
  303df5:	e8 2b 03 00 00       	call   304125 <switch_stack>
  303dfa:	83 c4 10             	add    $0x10,%esp
  303dfd:	90                   	nop
  303dfe:	c9                   	leave  
  303dff:	c3                   	ret    

00303e00 <intr80_hdlr>:
  303e00:	55                   	push   %ebp
  303e01:	89 e5                	mov    %esp,%ebp
  303e03:	83 ec 08             	sub    $0x8,%esp
  303e06:	83 ec 08             	sub    $0x8,%esp
  303e09:	8b 45 08             	mov    0x8(%ebp),%eax
  303e0c:	ff 70 04             	pushl  0x4(%eax)
  303e0f:	68 bf 53 30 00       	push   $0x3053bf
  303e14:	e8 b8 f2 ff ff       	call   3030d1 <printf>
  303e19:	83 c4 10             	add    $0x10,%esp
  303e1c:	90                   	nop
  303e1d:	c9                   	leave  
  303e1e:	c3                   	ret    

00303e1f <print_intr>:
  303e1f:	55                   	push   %ebp
  303e20:	89 e5                	mov    %esp,%ebp
  303e22:	57                   	push   %edi
  303e23:	56                   	push   %esi
  303e24:	53                   	push   %ebx
  303e25:	83 ec 3c             	sub    $0x3c,%esp
  303e28:	8b 45 08             	mov    0x8(%ebp),%eax
  303e2b:	8b 38                	mov    (%eax),%edi
  303e2d:	8b 45 08             	mov    0x8(%ebp),%eax
  303e30:	8b 40 04             	mov    0x4(%eax),%eax
  303e33:	89 45 e4             	mov    %eax,-0x1c(%ebp)
  303e36:	8b 45 08             	mov    0x8(%ebp),%eax
  303e39:	8b 50 08             	mov    0x8(%eax),%edx
  303e3c:	89 55 e0             	mov    %edx,-0x20(%ebp)
  303e3f:	8b 45 08             	mov    0x8(%ebp),%eax
  303e42:	8b 48 0c             	mov    0xc(%eax),%ecx
  303e45:	89 4d dc             	mov    %ecx,-0x24(%ebp)
  303e48:	8b 45 08             	mov    0x8(%ebp),%eax
  303e4b:	8b 58 10             	mov    0x10(%eax),%ebx
  303e4e:	89 5d d8             	mov    %ebx,-0x28(%ebp)
  303e51:	8b 45 08             	mov    0x8(%ebp),%eax
  303e54:	8b 70 14             	mov    0x14(%eax),%esi
  303e57:	89 75 d4             	mov    %esi,-0x2c(%ebp)
  303e5a:	8b 45 08             	mov    0x8(%ebp),%eax
  303e5d:	8b 40 18             	mov    0x18(%eax),%eax
  303e60:	89 45 d0             	mov    %eax,-0x30(%ebp)
  303e63:	8b 45 08             	mov    0x8(%ebp),%eax
  303e66:	8b 50 1c             	mov    0x1c(%eax),%edx
  303e69:	89 55 cc             	mov    %edx,-0x34(%ebp)
  303e6c:	8b 45 08             	mov    0x8(%ebp),%eax
  303e6f:	8b 48 30             	mov    0x30(%eax),%ecx
  303e72:	89 4d c8             	mov    %ecx,-0x38(%ebp)
  303e75:	8b 45 08             	mov    0x8(%ebp),%eax
  303e78:	8b 58 34             	mov    0x34(%eax),%ebx
  303e7b:	89 5d c4             	mov    %ebx,-0x3c(%ebp)
  303e7e:	8b 45 08             	mov    0x8(%ebp),%eax
  303e81:	8b 70 38             	mov    0x38(%eax),%esi
  303e84:	8b 45 08             	mov    0x8(%ebp),%eax
  303e87:	8b 58 28             	mov    0x28(%eax),%ebx
  303e8a:	8b 45 08             	mov    0x8(%ebp),%eax
  303e8d:	8b 48 2c             	mov    0x2c(%eax),%ecx
  303e90:	8b 45 08             	mov    0x8(%ebp),%eax
  303e93:	8b 50 24             	mov    0x24(%eax),%edx
  303e96:	8b 45 08             	mov    0x8(%ebp),%eax
  303e99:	8b 40 20             	mov    0x20(%eax),%eax
  303e9c:	57                   	push   %edi
  303e9d:	ff 75 e4             	pushl  -0x1c(%ebp)
  303ea0:	ff 75 e0             	pushl  -0x20(%ebp)
  303ea3:	ff 75 dc             	pushl  -0x24(%ebp)
  303ea6:	ff 75 d8             	pushl  -0x28(%ebp)
  303ea9:	ff 75 d4             	pushl  -0x2c(%ebp)
  303eac:	ff 75 d0             	pushl  -0x30(%ebp)
  303eaf:	ff 75 cc             	pushl  -0x34(%ebp)
  303eb2:	ff 75 c8             	pushl  -0x38(%ebp)
  303eb5:	ff 75 c4             	pushl  -0x3c(%ebp)
  303eb8:	56                   	push   %esi
  303eb9:	53                   	push   %ebx
  303eba:	51                   	push   %ecx
  303ebb:	52                   	push   %edx
  303ebc:	50                   	push   %eax
  303ebd:	68 d8 53 30 00       	push   $0x3053d8
  303ec2:	e8 0a f2 ff ff       	call   3030d1 <printf>
  303ec7:	83 c4 40             	add    $0x40,%esp
  303eca:	90                   	nop
  303ecb:	8d 65 f4             	lea    -0xc(%ebp),%esp
  303ece:	5b                   	pop    %ebx
  303ecf:	5e                   	pop    %esi
  303ed0:	5f                   	pop    %edi
  303ed1:	5d                   	pop    %ebp
  303ed2:	c3                   	ret    

00303ed3 <intr_hdlr>:
  303ed3:	55                   	push   %ebp
  303ed4:	89 e5                	mov    %esp,%ebp
  303ed6:	83 ec 28             	sub    $0x28,%esp
  303ed9:	89 45 e4             	mov    %eax,-0x1c(%ebp)
  303edc:	8b 45 e4             	mov    -0x1c(%ebp),%eax
  303edf:	0f b6 40 20          	movzbl 0x20(%eax),%eax
  303ee3:	88 45 f7             	mov    %al,-0x9(%ebp)
  303ee6:	80 7d f7 20          	cmpb   $0x20,-0x9(%ebp)
  303eea:	75 0a                	jne    303ef6 <intr_hdlr+0x23>
  303eec:	8b 45 e4             	mov    -0x1c(%ebp),%eax
  303eef:	e8 0d fe ff ff       	call   303d01 <intr32_hdlr>
  303ef4:	eb 49                	jmp    303f3f <intr_hdlr+0x6c>
  303ef6:	80 7d f7 50          	cmpb   $0x50,-0x9(%ebp)
  303efa:	75 10                	jne    303f0c <intr_hdlr+0x39>
  303efc:	83 ec 0c             	sub    $0xc,%esp
  303eff:	ff 75 e4             	pushl  -0x1c(%ebp)
  303f02:	e8 f9 fe ff ff       	call   303e00 <intr80_hdlr>
  303f07:	83 c4 10             	add    $0x10,%esp
  303f0a:	eb 33                	jmp    303f3f <intr_hdlr+0x6c>
  303f0c:	80 7d f7 1f          	cmpb   $0x1f,-0x9(%ebp)
  303f10:	77 18                	ja     303f2a <intr_hdlr+0x57>
  303f12:	83 ec 0c             	sub    $0xc,%esp
  303f15:	ff 75 e4             	pushl  -0x1c(%ebp)
  303f18:	e8 02 ff ff ff       	call   303e1f <print_intr>
  303f1d:	83 c4 10             	add    $0x10,%esp
  303f20:	8b 45 e4             	mov    -0x1c(%ebp),%eax
  303f23:	e8 34 00 00 00       	call   303f5c <excp_hdlr>
  303f28:	eb 15                	jmp    303f3f <intr_hdlr+0x6c>
  303f2a:	0f b6 45 f7          	movzbl -0x9(%ebp),%eax
  303f2e:	83 ec 08             	sub    $0x8,%esp
  303f31:	50                   	push   %eax
  303f32:	68 b7 54 30 00       	push   $0x3054b7
  303f37:	e8 95 f1 ff ff       	call   3030d1 <printf>
  303f3c:	83 c4 10             	add    $0x10,%esp
  303f3f:	90                   	nop
  303f40:	c9                   	leave  
  303f41:	c3                   	ret    

00303f42 <ack_pic2>:
  303f42:	50                   	push   %eax
  303f43:	b0 20                	mov    $0x20,%al
  303f45:	e6 a0                	out    %al,$0xa0
  303f47:	eb 03                	jmp    303f4c <eoi_pic1>

00303f49 <ack_pic1>:
  303f49:	50                   	push   %eax
  303f4a:	b0 20                	mov    $0x20,%al

00303f4c <eoi_pic1>:
  303f4c:	e6 20                	out    %al,$0x20
  303f4e:	58                   	pop    %eax

00303f4f <idt_common>:
  303f4f:	60                   	pusha  
  303f50:	89 e0                	mov    %esp,%eax
  303f52:	e8 7c ff ff ff       	call   303ed3 <intr_hdlr>

00303f57 <resume_from_intr>:
  303f57:	61                   	popa   
  303f58:	83 c4 08             	add    $0x8,%esp
  303f5b:	cf                   	iret   

00303f5c <excp_hdlr>:
  303f5c:	55                   	push   %ebp
  303f5d:	89 e5                	mov    %esp,%ebp
  303f5f:	56                   	push   %esi
  303f60:	53                   	push   %ebx
  303f61:	83 ec 20             	sub    $0x20,%esp
  303f64:	89 45 e4             	mov    %eax,-0x1c(%ebp)
  303f67:	8b 45 e4             	mov    -0x1c(%ebp),%eax
  303f6a:	0f b6 40 20          	movzbl 0x20(%eax),%eax
  303f6e:	0f b6 c0             	movzbl %al,%eax
  303f71:	8b 04 85 40 59 30 00 	mov    0x305940(,%eax,4),%eax
  303f78:	83 ec 08             	sub    $0x8,%esp
  303f7b:	50                   	push   %eax
  303f7c:	68 01 56 30 00       	push   $0x305601
  303f81:	e8 4b f1 ff ff       	call   3030d1 <printf>
  303f86:	83 c4 10             	add    $0x10,%esp
  303f89:	8b 45 e4             	mov    -0x1c(%ebp),%eax
  303f8c:	0f b6 40 20          	movzbl 0x20(%eax),%eax
  303f90:	0f b6 c0             	movzbl %al,%eax
  303f93:	83 f8 0d             	cmp    $0xd,%eax
  303f96:	74 7f                	je     304017 <excp_hdlr+0xbb>
  303f98:	83 f8 0e             	cmp    $0xe,%eax
  303f9b:	74 1e                	je     303fbb <excp_hdlr+0x5f>
  303f9d:	83 f8 02             	cmp    $0x2,%eax
  303fa0:	0f 85 cb 00 00 00    	jne    304071 <excp_hdlr+0x115>
  303fa6:	83 ec 0c             	sub    $0xc,%esp
  303fa9:	68 11 56 30 00       	push   $0x305611
  303fae:	e8 1e f1 ff ff       	call   3030d1 <printf>
  303fb3:	83 c4 10             	add    $0x10,%esp
  303fb6:	e9 0c 01 00 00       	jmp    3040c7 <excp_hdlr+0x16b>
  303fbb:	0f 20 d0             	mov    %cr2,%eax
  303fbe:	89 45 f4             	mov    %eax,-0xc(%ebp)
  303fc1:	8b 75 f4             	mov    -0xc(%ebp),%esi
  303fc4:	8b 45 e4             	mov    -0x1c(%ebp),%eax
  303fc7:	0f b6 40 24          	movzbl 0x24(%eax),%eax
  303fcb:	c0 e8 04             	shr    $0x4,%al
  303fce:	83 e0 01             	and    $0x1,%eax
  303fd1:	0f b6 d8             	movzbl %al,%ebx
  303fd4:	8b 45 e4             	mov    -0x1c(%ebp),%eax
  303fd7:	0f b6 40 24          	movzbl 0x24(%eax),%eax
  303fdb:	c0 e8 02             	shr    $0x2,%al
  303fde:	83 e0 01             	and    $0x1,%eax
  303fe1:	0f b6 c8             	movzbl %al,%ecx
  303fe4:	8b 45 e4             	mov    -0x1c(%ebp),%eax
  303fe7:	0f b6 40 24          	movzbl 0x24(%eax),%eax
  303feb:	d0 e8                	shr    %al
  303fed:	83 e0 01             	and    $0x1,%eax
  303ff0:	0f b6 d0             	movzbl %al,%edx
  303ff3:	8b 45 e4             	mov    -0x1c(%ebp),%eax
  303ff6:	0f b6 40 24          	movzbl 0x24(%eax),%eax
  303ffa:	83 e0 01             	and    $0x1,%eax
  303ffd:	0f b6 c0             	movzbl %al,%eax
  304000:	83 ec 08             	sub    $0x8,%esp
  304003:	56                   	push   %esi
  304004:	53                   	push   %ebx
  304005:	51                   	push   %ecx
  304006:	52                   	push   %edx
  304007:	50                   	push   %eax
  304008:	68 24 56 30 00       	push   $0x305624
  30400d:	e8 bf f0 ff ff       	call   3030d1 <printf>
  304012:	83 c4 20             	add    $0x20,%esp
  304015:	eb 5a                	jmp    304071 <excp_hdlr+0x115>
  304017:	8b 45 e4             	mov    -0x1c(%ebp),%eax
  30401a:	0f b6 50 24          	movzbl 0x24(%eax),%edx
  30401e:	c0 ea 03             	shr    $0x3,%dl
  304021:	0f b6 d2             	movzbl %dl,%edx
  304024:	0f b6 40 25          	movzbl 0x25(%eax),%eax
  304028:	c1 e0 05             	shl    $0x5,%eax
  30402b:	09 d0                	or     %edx,%eax
  30402d:	0f b7 d8             	movzwl %ax,%ebx
  304030:	8b 45 e4             	mov    -0x1c(%ebp),%eax
  304033:	0f b6 40 24          	movzbl 0x24(%eax),%eax
  304037:	c0 e8 02             	shr    $0x2,%al
  30403a:	83 e0 01             	and    $0x1,%eax
  30403d:	0f b6 c8             	movzbl %al,%ecx
  304040:	8b 45 e4             	mov    -0x1c(%ebp),%eax
  304043:	0f b6 40 24          	movzbl 0x24(%eax),%eax
  304047:	d0 e8                	shr    %al
  304049:	83 e0 01             	and    $0x1,%eax
  30404c:	0f b6 d0             	movzbl %al,%edx
  30404f:	8b 45 e4             	mov    -0x1c(%ebp),%eax
  304052:	0f b6 40 24          	movzbl 0x24(%eax),%eax
  304056:	83 e0 01             	and    $0x1,%eax
  304059:	0f b6 c0             	movzbl %al,%eax
  30405c:	83 ec 0c             	sub    $0xc,%esp
  30405f:	53                   	push   %ebx
  304060:	51                   	push   %ecx
  304061:	52                   	push   %edx
  304062:	50                   	push   %eax
  304063:	68 54 56 30 00       	push   $0x305654
  304068:	e8 64 f0 ff ff       	call   3030d1 <printf>
  30406d:	83 c4 20             	add    $0x20,%esp
  304070:	90                   	nop
  304071:	0f 20 c0             	mov    %cr0,%eax
  304074:	89 45 f0             	mov    %eax,-0x10(%ebp)
  304077:	8b 45 f0             	mov    -0x10(%ebp),%eax
  30407a:	83 ec 08             	sub    $0x8,%esp
  30407d:	50                   	push   %eax
  30407e:	68 7f 56 30 00       	push   $0x30567f
  304083:	e8 49 f0 ff ff       	call   3030d1 <printf>
  304088:	83 c4 10             	add    $0x10,%esp
  30408b:	0f 20 e0             	mov    %cr4,%eax
  30408e:	89 45 ec             	mov    %eax,-0x14(%ebp)
  304091:	8b 45 ec             	mov    -0x14(%ebp),%eax
  304094:	83 ec 08             	sub    $0x8,%esp
  304097:	50                   	push   %eax
  304098:	68 89 56 30 00       	push   $0x305689
  30409d:	e8 2f f0 ff ff       	call   3030d1 <printf>
  3040a2:	83 c4 10             	add    $0x10,%esp
  3040a5:	8b 45 e4             	mov    -0x1c(%ebp),%eax
  3040a8:	8b 40 08             	mov    0x8(%eax),%eax
  3040ab:	83 ec 0c             	sub    $0xc,%esp
  3040ae:	50                   	push   %eax
  3040af:	e8 1a 00 00 00       	call   3040ce <stack_trace>
  3040b4:	83 c4 10             	add    $0x10,%esp
  3040b7:	83 ec 0c             	sub    $0xc,%esp
  3040ba:	68 93 56 30 00       	push   $0x305693
  3040bf:	e8 e5 ef ff ff       	call   3030a9 <panic>
  3040c4:	83 c4 10             	add    $0x10,%esp
  3040c7:	8d 65 f8             	lea    -0x8(%ebp),%esp
  3040ca:	5b                   	pop    %ebx
  3040cb:	5e                   	pop    %esi
  3040cc:	5d                   	pop    %ebp
  3040cd:	c3                   	ret    

003040ce <stack_trace>:
  3040ce:	55                   	push   %ebp
  3040cf:	89 e5                	mov    %esp,%ebp
  3040d1:	83 ec 18             	sub    $0x18,%esp
  3040d4:	83 ec 0c             	sub    $0xc,%esp
  3040d7:	68 a6 56 30 00       	push   $0x3056a6
  3040dc:	e8 f0 ef ff ff       	call   3030d1 <printf>
  3040e1:	83 c4 10             	add    $0x10,%esp
  3040e4:	8b 45 08             	mov    0x8(%ebp),%eax
  3040e7:	89 45 f4             	mov    %eax,-0xc(%ebp)
  3040ea:	eb 27                	jmp    304113 <stack_trace+0x45>
  3040ec:	8b 45 f4             	mov    -0xc(%ebp),%eax
  3040ef:	83 c0 04             	add    $0x4,%eax
  3040f2:	8b 00                	mov    (%eax),%eax
  3040f4:	89 45 f0             	mov    %eax,-0x10(%ebp)
  3040f7:	8b 45 f4             	mov    -0xc(%ebp),%eax
  3040fa:	8b 00                	mov    (%eax),%eax
  3040fc:	89 45 f4             	mov    %eax,-0xc(%ebp)
  3040ff:	8b 45 f0             	mov    -0x10(%ebp),%eax
  304102:	83 ec 08             	sub    $0x8,%esp
  304105:	50                   	push   %eax
  304106:	68 ba 56 30 00       	push   $0x3056ba
  30410b:	e8 c1 ef ff ff       	call   3030d1 <printf>
  304110:	83 c4 10             	add    $0x10,%esp
  304113:	83 7d f4 00          	cmpl   $0x0,-0xc(%ebp)
  304117:	74 09                	je     304122 <stack_trace+0x54>
  304119:	81 7d f4 10 20 30 00 	cmpl   $0x302010,-0xc(%ebp)
  304120:	72 ca                	jb     3040ec <stack_trace+0x1e>
  304122:	90                   	nop
  304123:	c9                   	leave  
  304124:	c3                   	ret    

00304125 <switch_stack>:
  304125:	55                   	push   %ebp
  304126:	89 21                	mov    %esp,(%ecx)
  304128:	89 d4                	mov    %edx,%esp
  30412a:	5d                   	pop    %ebp
  30412b:	c3                   	ret    

0030412c <print_gdt>:
  30412c:	55                   	push   %ebp
  30412d:	89 e5                	mov    %esp,%ebp
  30412f:	83 ec 38             	sub    $0x38,%esp
  304132:	0f 01 45 d0          	sgdtl  -0x30(%ebp)
  304136:	83 ec 0c             	sub    $0xc,%esp
  304139:	68 c0 56 30 00       	push   $0x3056c0
  30413e:	e8 8e ef ff ff       	call   3030d1 <printf>
  304143:	83 c4 10             	add    $0x10,%esp
  304146:	0f b7 45 d0          	movzwl -0x30(%ebp),%eax
  30414a:	0f b7 c0             	movzwl %ax,%eax
  30414d:	83 ec 08             	sub    $0x8,%esp
  304150:	50                   	push   %eax
  304151:	68 cd 56 30 00       	push   $0x3056cd
  304156:	e8 76 ef ff ff       	call   3030d1 <printf>
  30415b:	83 c4 10             	add    $0x10,%esp
  30415e:	66 8c d0             	mov    %ss,%ax
  304161:	66 89 45 f2          	mov    %ax,-0xe(%ebp)
  304165:	0f b7 45 f2          	movzwl -0xe(%ebp),%eax
  304169:	0f b7 c0             	movzwl %ax,%eax
  30416c:	83 ec 08             	sub    $0x8,%esp
  30416f:	50                   	push   %eax
  304170:	68 de 56 30 00       	push   $0x3056de
  304175:	e8 57 ef ff ff       	call   3030d1 <printf>
  30417a:	83 c4 10             	add    $0x10,%esp
  30417d:	66 8c d8             	mov    %ds,%ax
  304180:	66 89 45 f0          	mov    %ax,-0x10(%ebp)
  304184:	0f b7 45 f0          	movzwl -0x10(%ebp),%eax
  304188:	0f b7 c0             	movzwl %ax,%eax
  30418b:	83 ec 08             	sub    $0x8,%esp
  30418e:	50                   	push   %eax
  30418f:	68 e6 56 30 00       	push   $0x3056e6
  304194:	e8 38 ef ff ff       	call   3030d1 <printf>
  304199:	83 c4 10             	add    $0x10,%esp
  30419c:	66 8c c0             	mov    %es,%ax
  30419f:	66 89 45 ee          	mov    %ax,-0x12(%ebp)
  3041a3:	0f b7 45 ee          	movzwl -0x12(%ebp),%eax
  3041a7:	0f b7 c0             	movzwl %ax,%eax
  3041aa:	83 ec 08             	sub    $0x8,%esp
  3041ad:	50                   	push   %eax
  3041ae:	68 ee 56 30 00       	push   $0x3056ee
  3041b3:	e8 19 ef ff ff       	call   3030d1 <printf>
  3041b8:	83 c4 10             	add    $0x10,%esp
  3041bb:	66 8c e0             	mov    %fs,%ax
  3041be:	66 89 45 ec          	mov    %ax,-0x14(%ebp)
  3041c2:	0f b7 45 ec          	movzwl -0x14(%ebp),%eax
  3041c6:	0f b7 c0             	movzwl %ax,%eax
  3041c9:	83 ec 08             	sub    $0x8,%esp
  3041cc:	50                   	push   %eax
  3041cd:	68 f6 56 30 00       	push   $0x3056f6
  3041d2:	e8 fa ee ff ff       	call   3030d1 <printf>
  3041d7:	83 c4 10             	add    $0x10,%esp
  3041da:	66 8c e8             	mov    %gs,%ax
  3041dd:	66 89 45 ea          	mov    %ax,-0x16(%ebp)
  3041e1:	0f b7 45 ea          	movzwl -0x16(%ebp),%eax
  3041e5:	0f b7 c0             	movzwl %ax,%eax
  3041e8:	83 ec 08             	sub    $0x8,%esp
  3041eb:	50                   	push   %eax
  3041ec:	68 fe 56 30 00       	push   $0x3056fe
  3041f1:	e8 db ee ff ff       	call   3030d1 <printf>
  3041f6:	83 c4 10             	add    $0x10,%esp
  3041f9:	0f b7 45 d0          	movzwl -0x30(%ebp),%eax
  3041fd:	0f b7 c0             	movzwl %ax,%eax
  304200:	83 c0 01             	add    $0x1,%eax
  304203:	c1 e8 03             	shr    $0x3,%eax
  304206:	89 45 e4             	mov    %eax,-0x1c(%ebp)
  304209:	c7 45 f4 00 00 00 00 	movl   $0x0,-0xc(%ebp)
  304210:	e9 c8 00 00 00       	jmp    3042dd <print_gdt+0x1b1>
  304215:	8b 45 d2             	mov    -0x2e(%ebp),%eax
  304218:	8b 55 f4             	mov    -0xc(%ebp),%edx
  30421b:	c1 e2 03             	shl    $0x3,%edx
  30421e:	01 d0                	add    %edx,%eax
  304220:	89 45 e0             	mov    %eax,-0x20(%ebp)
  304223:	8b 45 e0             	mov    -0x20(%ebp),%eax
  304226:	0f b7 40 02          	movzwl 0x2(%eax),%eax
  30422a:	0f b7 d0             	movzwl %ax,%edx
  30422d:	8b 45 e0             	mov    -0x20(%ebp),%eax
  304230:	0f b6 40 04          	movzbl 0x4(%eax),%eax
  304234:	0f b6 c0             	movzbl %al,%eax
  304237:	c1 e0 10             	shl    $0x10,%eax
  30423a:	01 c2                	add    %eax,%edx
  30423c:	8b 45 e0             	mov    -0x20(%ebp),%eax
  30423f:	0f b6 40 07          	movzbl 0x7(%eax),%eax
  304243:	0f b6 c0             	movzbl %al,%eax
  304246:	c1 e0 18             	shl    $0x18,%eax
  304249:	01 d0                	add    %edx,%eax
  30424b:	99                   	cltd   
  30424c:	89 45 d8             	mov    %eax,-0x28(%ebp)
  30424f:	89 55 dc             	mov    %edx,-0x24(%ebp)
  304252:	8b 45 e0             	mov    -0x20(%ebp),%eax
  304255:	0f b7 00             	movzwl (%eax),%eax
  304258:	66 89 45 d6          	mov    %ax,-0x2a(%ebp)
  30425c:	83 ec 08             	sub    $0x8,%esp
  30425f:	ff 75 f4             	pushl  -0xc(%ebp)
  304262:	68 08 57 30 00       	push   $0x305708
  304267:	e8 65 ee ff ff       	call   3030d1 <printf>
  30426c:	83 c4 10             	add    $0x10,%esp
  30426f:	0f b7 45 d6          	movzwl -0x2a(%ebp),%eax
  304273:	83 ec 08             	sub    $0x8,%esp
  304276:	50                   	push   %eax
  304277:	68 36 57 30 00       	push   $0x305736
  30427c:	e8 50 ee ff ff       	call   3030d1 <printf>
  304281:	83 c4 10             	add    $0x10,%esp
  304284:	83 ec 04             	sub    $0x4,%esp
  304287:	ff 75 dc             	pushl  -0x24(%ebp)
  30428a:	ff 75 d8             	pushl  -0x28(%ebp)
  30428d:	68 42 57 30 00       	push   $0x305742
  304292:	e8 3a ee ff ff       	call   3030d1 <printf>
  304297:	83 c4 10             	add    $0x10,%esp
  30429a:	8b 45 e0             	mov    -0x20(%ebp),%eax
  30429d:	0f b6 40 05          	movzbl 0x5(%eax),%eax
  3042a1:	c0 e8 05             	shr    $0x5,%al
  3042a4:	83 e0 03             	and    $0x3,%eax
  3042a7:	0f b6 c0             	movzbl %al,%eax
  3042aa:	83 ec 08             	sub    $0x8,%esp
  3042ad:	50                   	push   %eax
  3042ae:	68 4d 57 30 00       	push   $0x30574d
  3042b3:	e8 19 ee ff ff       	call   3030d1 <printf>
  3042b8:	83 c4 10             	add    $0x10,%esp
  3042bb:	8b 45 e0             	mov    -0x20(%ebp),%eax
  3042be:	0f b6 40 05          	movzbl 0x5(%eax),%eax
  3042c2:	83 e0 0f             	and    $0xf,%eax
  3042c5:	0f b6 c0             	movzbl %al,%eax
  3042c8:	83 ec 08             	sub    $0x8,%esp
  3042cb:	50                   	push   %eax
  3042cc:	68 57 57 30 00       	push   $0x305757
  3042d1:	e8 fb ed ff ff       	call   3030d1 <printf>
  3042d6:	83 c4 10             	add    $0x10,%esp
  3042d9:	83 45 f4 01          	addl   $0x1,-0xc(%ebp)
  3042dd:	8b 45 f4             	mov    -0xc(%ebp),%eax
  3042e0:	3b 45 e4             	cmp    -0x1c(%ebp),%eax
  3042e3:	0f 8c 2c ff ff ff    	jl     304215 <print_gdt+0xe9>
  3042e9:	90                   	nop
  3042ea:	c9                   	leave  
  3042eb:	c3                   	ret    

003042ec <set_each_descriptor>:
  3042ec:	55                   	push   %ebp
  3042ed:	89 e5                	mov    %esp,%ebp
  3042ef:	53                   	push   %ebx
  3042f0:	83 ec 08             	sub    $0x8,%esp
  3042f3:	8b 55 0c             	mov    0xc(%ebp),%edx
  3042f6:	8b 45 10             	mov    0x10(%ebp),%eax
  3042f9:	88 55 f8             	mov    %dl,-0x8(%ebp)
  3042fc:	88 45 f4             	mov    %al,-0xc(%ebp)
  3042ff:	0f b6 45 f8          	movzbl -0x8(%ebp),%eax
  304303:	83 e0 0f             	and    $0xf,%eax
  304306:	89 c2                	mov    %eax,%edx
  304308:	8b 45 08             	mov    0x8(%ebp),%eax
  30430b:	89 d1                	mov    %edx,%ecx
  30430d:	83 e1 0f             	and    $0xf,%ecx
  304310:	0f b6 50 05          	movzbl 0x5(%eax),%edx
  304314:	83 e2 f0             	and    $0xfffffff0,%edx
  304317:	09 ca                	or     %ecx,%edx
  304319:	88 50 05             	mov    %dl,0x5(%eax)
  30431c:	0f b6 45 f4          	movzbl -0xc(%ebp),%eax
  304320:	83 e0 03             	and    $0x3,%eax
  304323:	89 c2                	mov    %eax,%edx
  304325:	8b 45 08             	mov    0x8(%ebp),%eax
  304328:	83 e2 03             	and    $0x3,%edx
  30432b:	89 d1                	mov    %edx,%ecx
  30432d:	c1 e1 05             	shl    $0x5,%ecx
  304330:	0f b6 50 05          	movzbl 0x5(%eax),%edx
  304334:	83 e2 9f             	and    $0xffffff9f,%edx
  304337:	09 ca                	or     %ecx,%edx
  304339:	88 50 05             	mov    %dl,0x5(%eax)
  30433c:	8b 45 14             	mov    0x14(%ebp),%eax
  30433f:	89 c2                	mov    %eax,%edx
  304341:	8b 45 08             	mov    0x8(%ebp),%eax
  304344:	0f b7 ca             	movzwl %dx,%ecx
  304347:	0f b6 d9             	movzbl %cl,%ebx
  30434a:	0f b6 48 02          	movzbl 0x2(%eax),%ecx
  30434e:	83 e1 00             	and    $0x0,%ecx
  304351:	09 d9                	or     %ebx,%ecx
  304353:	88 48 02             	mov    %cl,0x2(%eax)
  304356:	66 c1 ea 08          	shr    $0x8,%dx
  30435a:	0f b7 ca             	movzwl %dx,%ecx
  30435d:	0f b6 50 03          	movzbl 0x3(%eax),%edx
  304361:	83 e2 00             	and    $0x0,%edx
  304364:	09 ca                	or     %ecx,%edx
  304366:	88 50 03             	mov    %dl,0x3(%eax)
  304369:	8b 45 14             	mov    0x14(%ebp),%eax
  30436c:	c1 e8 10             	shr    $0x10,%eax
  30436f:	89 c2                	mov    %eax,%edx
  304371:	8b 45 08             	mov    0x8(%ebp),%eax
  304374:	88 50 04             	mov    %dl,0x4(%eax)
  304377:	8b 45 14             	mov    0x14(%ebp),%eax
  30437a:	c1 e8 18             	shr    $0x18,%eax
  30437d:	89 c2                	mov    %eax,%edx
  30437f:	8b 45 08             	mov    0x8(%ebp),%eax
  304382:	88 50 07             	mov    %dl,0x7(%eax)
  304385:	8b 45 18             	mov    0x18(%ebp),%eax
  304388:	89 c2                	mov    %eax,%edx
  30438a:	8b 45 08             	mov    0x8(%ebp),%eax
  30438d:	0f b7 ca             	movzwl %dx,%ecx
  304390:	0f b6 d9             	movzbl %cl,%ebx
  304393:	0f b6 08             	movzbl (%eax),%ecx
  304396:	83 e1 00             	and    $0x0,%ecx
  304399:	09 d9                	or     %ebx,%ecx
  30439b:	88 08                	mov    %cl,(%eax)
  30439d:	66 c1 ea 08          	shr    $0x8,%dx
  3043a1:	0f b7 ca             	movzwl %dx,%ecx
  3043a4:	0f b6 50 01          	movzbl 0x1(%eax),%edx
  3043a8:	83 e2 00             	and    $0x0,%edx
  3043ab:	09 ca                	or     %ecx,%edx
  3043ad:	88 50 01             	mov    %dl,0x1(%eax)
  3043b0:	8b 45 18             	mov    0x18(%ebp),%eax
  3043b3:	c1 e8 10             	shr    $0x10,%eax
  3043b6:	83 e0 0f             	and    $0xf,%eax
  3043b9:	8b 55 08             	mov    0x8(%ebp),%edx
  3043bc:	83 e0 0f             	and    $0xf,%eax
  3043bf:	89 c1                	mov    %eax,%ecx
  3043c1:	0f b6 42 06          	movzbl 0x6(%edx),%eax
  3043c5:	83 e0 f0             	and    $0xfffffff0,%eax
  3043c8:	09 c8                	or     %ecx,%eax
  3043ca:	88 42 06             	mov    %al,0x6(%edx)
  3043cd:	8b 45 08             	mov    0x8(%ebp),%eax
  3043d0:	0f b6 50 05          	movzbl 0x5(%eax),%edx
  3043d4:	83 ca 80             	or     $0xffffff80,%edx
  3043d7:	88 50 05             	mov    %dl,0x5(%eax)
  3043da:	8b 45 08             	mov    0x8(%ebp),%eax
  3043dd:	0f b6 50 06          	movzbl 0x6(%eax),%edx
  3043e1:	83 ca 10             	or     $0x10,%edx
  3043e4:	88 50 06             	mov    %dl,0x6(%eax)
  3043e7:	8b 45 08             	mov    0x8(%ebp),%eax
  3043ea:	0f b6 50 06          	movzbl 0x6(%eax),%edx
  3043ee:	83 ca 40             	or     $0x40,%edx
  3043f1:	88 50 06             	mov    %dl,0x6(%eax)
  3043f4:	8b 45 08             	mov    0x8(%ebp),%eax
  3043f7:	0f b6 50 06          	movzbl 0x6(%eax),%edx
  3043fb:	83 ca 80             	or     $0xffffff80,%edx
  3043fe:	88 50 06             	mov    %dl,0x6(%eax)
  304401:	8b 45 08             	mov    0x8(%ebp),%eax
  304404:	0f b6 50 06          	movzbl 0x6(%eax),%edx
  304408:	83 e2 df             	and    $0xffffffdf,%edx
  30440b:	88 50 06             	mov    %dl,0x6(%eax)
  30440e:	8b 45 08             	mov    0x8(%ebp),%eax
  304411:	0f b6 50 05          	movzbl 0x5(%eax),%edx
  304415:	83 ca 10             	or     $0x10,%edx
  304418:	88 50 05             	mov    %dl,0x5(%eax)
  30441b:	90                   	nop
  30441c:	83 c4 08             	add    $0x8,%esp
  30441f:	5b                   	pop    %ebx
  304420:	5d                   	pop    %ebp
  304421:	c3                   	ret    

00304422 <init_TSS>:
  304422:	55                   	push   %ebp
  304423:	89 e5                	mov    %esp,%ebp
  304425:	83 ec 18             	sub    $0x18,%esp
  304428:	83 ec 0c             	sub    $0xc,%esp
  30442b:	68 63 57 30 00       	push   $0x305763
  304430:	e8 9c ec ff ff       	call   3030d1 <printf>
  304435:	83 c4 10             	add    $0x10,%esp
  304438:	c7 45 f4 e0 65 30 00 	movl   $0x3065e0,-0xc(%ebp)
  30443f:	c7 45 f0 88 20 00 00 	movl   $0x2088,-0x10(%ebp)
  304446:	66 c7 05 e8 65 30 00 	movw   $0x10,0x3065e8
  30444d:	10 00 
  30444f:	89 6d ec             	mov    %ebp,-0x14(%ebp)
  304452:	8b 45 ec             	mov    -0x14(%ebp),%eax
  304455:	a3 e4 65 30 00       	mov    %eax,0x3065e4
  30445a:	83 ec 0c             	sub    $0xc,%esp
  30445d:	ff 75 f0             	pushl  -0x10(%ebp)
  304460:	ff 75 f4             	pushl  -0xc(%ebp)
  304463:	6a 00                	push   $0x0
  304465:	6a 09                	push   $0x9
  304467:	68 a8 86 30 00       	push   $0x3086a8
  30446c:	e8 7b fe ff ff       	call   3042ec <set_each_descriptor>
  304471:	83 c4 20             	add    $0x20,%esp
  304474:	0f b6 05 ad 86 30 00 	movzbl 0x3086ad,%eax
  30447b:	83 e0 ef             	and    $0xffffffef,%eax
  30447e:	a2 ad 86 30 00       	mov    %al,0x3086ad
  304483:	b8 28 00 00 00       	mov    $0x28,%eax
  304488:	0f 00 d8             	ltr    %ax
  30448b:	90                   	nop
  30448c:	c9                   	leave  
  30448d:	c3                   	ret    

0030448e <init_gdt>:
  30448e:	55                   	push   %ebp
  30448f:	89 e5                	mov    %esp,%ebp
  304491:	83 ec 18             	sub    $0x18,%esp
  304494:	83 ec 0c             	sub    $0xc,%esp
  304497:	68 79 57 30 00       	push   $0x305779
  30449c:	e8 30 ec ff ff       	call   3030d1 <printf>
  3044a1:	83 c4 10             	add    $0x10,%esp
  3044a4:	c7 05 80 86 30 00 00 	movl   $0x0,0x308680
  3044ab:	00 00 00 
  3044ae:	c7 05 84 86 30 00 00 	movl   $0x0,0x308684
  3044b5:	00 00 00 
  3044b8:	66 c7 45 f2 2f 00    	movw   $0x2f,-0xe(%ebp)
  3044be:	c7 45 f4 80 86 30 00 	movl   $0x308680,-0xc(%ebp)
  3044c5:	0f 01 55 f2          	lgdtl  -0xe(%ebp)
  3044c9:	83 ec 0c             	sub    $0xc,%esp
  3044cc:	6a ff                	push   $0xffffffff
  3044ce:	6a 00                	push   $0x0
  3044d0:	6a 00                	push   $0x0
  3044d2:	6a 0a                	push   $0xa
  3044d4:	68 88 86 30 00       	push   $0x308688
  3044d9:	e8 0e fe ff ff       	call   3042ec <set_each_descriptor>
  3044de:	83 c4 20             	add    $0x20,%esp
  3044e1:	83 ec 0c             	sub    $0xc,%esp
  3044e4:	6a ff                	push   $0xffffffff
  3044e6:	6a 00                	push   $0x0
  3044e8:	6a 00                	push   $0x0
  3044ea:	6a 02                	push   $0x2
  3044ec:	68 90 86 30 00       	push   $0x308690
  3044f1:	e8 f6 fd ff ff       	call   3042ec <set_each_descriptor>
  3044f6:	83 c4 20             	add    $0x20,%esp
  3044f9:	ea 00 45 30 00 08 00 	ljmp   $0x8,$0x304500
  304500:	b8 10 00 00 00       	mov    $0x10,%eax
  304505:	8e d8                	mov    %eax,%ds
  304507:	b8 10 00 00 00       	mov    $0x10,%eax
  30450c:	8e d0                	mov    %eax,%ss
  30450e:	b8 10 00 00 00       	mov    $0x10,%eax
  304513:	8e e0                	mov    %eax,%fs
  304515:	b8 10 00 00 00       	mov    $0x10,%eax
  30451a:	8e c0                	mov    %eax,%es
  30451c:	b8 10 00 00 00       	mov    $0x10,%eax
  304521:	8e e8                	mov    %eax,%gs
  304523:	83 ec 0c             	sub    $0xc,%esp
  304526:	6a ff                	push   $0xffffffff
  304528:	6a 00                	push   $0x0
  30452a:	6a 03                	push   $0x3
  30452c:	6a 0a                	push   $0xa
  30452e:	68 98 86 30 00       	push   $0x308698
  304533:	e8 b4 fd ff ff       	call   3042ec <set_each_descriptor>
  304538:	83 c4 20             	add    $0x20,%esp
  30453b:	83 ec 0c             	sub    $0xc,%esp
  30453e:	6a ff                	push   $0xffffffff
  304540:	6a 00                	push   $0x0
  304542:	6a 03                	push   $0x3
  304544:	6a 02                	push   $0x2
  304546:	68 a0 86 30 00       	push   $0x3086a0
  30454b:	e8 9c fd ff ff       	call   3042ec <set_each_descriptor>
  304550:	83 c4 20             	add    $0x20,%esp
  304553:	b8 23 00 00 00       	mov    $0x23,%eax
  304558:	8e d8                	mov    %eax,%ds
  30455a:	b8 23 00 00 00       	mov    $0x23,%eax
  30455f:	8e c0                	mov    %eax,%es
  304561:	b8 23 00 00 00       	mov    $0x23,%eax
  304566:	8e e0                	mov    %eax,%fs
  304568:	b8 23 00 00 00       	mov    $0x23,%eax
  30456d:	8e e8                	mov    %eax,%gs
  30456f:	e8 b8 fb ff ff       	call   30412c <print_gdt>
  304574:	90                   	nop
  304575:	c9                   	leave  
  304576:	c3                   	ret    

00304577 <memset>:
  304577:	55                   	push   %ebp
  304578:	89 e5                	mov    %esp,%ebp
  30457a:	57                   	push   %edi
  30457b:	83 ec 24             	sub    $0x24,%esp
  30457e:	8b 45 0c             	mov    0xc(%ebp),%eax
  304581:	88 45 d8             	mov    %al,-0x28(%ebp)
  304584:	8b 45 08             	mov    0x8(%ebp),%eax
  304587:	89 45 e8             	mov    %eax,-0x18(%ebp)
  30458a:	83 7d 10 00          	cmpl   $0x0,0x10(%ebp)
  30458e:	75 08                	jne    304598 <memset+0x21>
  304590:	8b 45 08             	mov    0x8(%ebp),%eax
  304593:	e9 87 00 00 00       	jmp    30461f <memset+0xa8>
  304598:	8b 45 10             	mov    0x10(%ebp),%eax
  30459b:	ba 00 00 00 00       	mov    $0x0,%edx
  3045a0:	b9 04 00 00 00       	mov    $0x4,%ecx
  3045a5:	f7 f1                	div    %ecx
  3045a7:	89 45 f8             	mov    %eax,-0x8(%ebp)
  3045aa:	89 55 f4             	mov    %edx,-0xc(%ebp)
  3045ad:	83 7d f8 00          	cmpl   $0x0,-0x8(%ebp)
  3045b1:	74 4c                	je     3045ff <memset+0x88>
  3045b3:	0f b6 45 d8          	movzbl -0x28(%ebp),%eax
  3045b7:	c1 e0 08             	shl    $0x8,%eax
  3045ba:	89 c2                	mov    %eax,%edx
  3045bc:	0f b6 45 d8          	movzbl -0x28(%ebp),%eax
  3045c0:	09 d0                	or     %edx,%eax
  3045c2:	c1 e0 10             	shl    $0x10,%eax
  3045c5:	89 c2                	mov    %eax,%edx
  3045c7:	0f b6 45 d8          	movzbl -0x28(%ebp),%eax
  3045cb:	c1 e0 08             	shl    $0x8,%eax
  3045ce:	89 c1                	mov    %eax,%ecx
  3045d0:	0f b6 45 d8          	movzbl -0x28(%ebp),%eax
  3045d4:	09 c8                	or     %ecx,%eax
  3045d6:	09 d0                	or     %edx,%eax
  3045d8:	89 45 f0             	mov    %eax,-0x10(%ebp)
  3045db:	9c                   	pushf  
  3045dc:	8f 45 e4             	popl   -0x1c(%ebp)
  3045df:	fc                   	cld    
  3045e0:	8b 55 e8             	mov    -0x18(%ebp),%edx
  3045e3:	8b 45 f0             	mov    -0x10(%ebp),%eax
  3045e6:	8b 4d f8             	mov    -0x8(%ebp),%ecx
  3045e9:	89 d7                	mov    %edx,%edi
  3045eb:	f3 ab                	rep stos %eax,%es:(%edi)
  3045ed:	ff 75 e4             	pushl  -0x1c(%ebp)
  3045f0:	9d                   	popf   
  3045f1:	8b 45 e8             	mov    -0x18(%ebp),%eax
  3045f4:	8b 55 f8             	mov    -0x8(%ebp),%edx
  3045f7:	c1 e2 02             	shl    $0x2,%edx
  3045fa:	01 d0                	add    %edx,%eax
  3045fc:	89 45 e8             	mov    %eax,-0x18(%ebp)
  3045ff:	83 7d f4 00          	cmpl   $0x0,-0xc(%ebp)
  304603:	74 17                	je     30461c <memset+0xa5>
  304605:	9c                   	pushf  
  304606:	8f 45 e0             	popl   -0x20(%ebp)
  304609:	fc                   	cld    
  30460a:	8b 55 e8             	mov    -0x18(%ebp),%edx
  30460d:	0f b6 45 d8          	movzbl -0x28(%ebp),%eax
  304611:	8b 4d f4             	mov    -0xc(%ebp),%ecx
  304614:	89 d7                	mov    %edx,%edi
  304616:	f3 aa                	rep stos %al,%es:(%edi)
  304618:	ff 75 e0             	pushl  -0x20(%ebp)
  30461b:	9d                   	popf   
  30461c:	8b 45 08             	mov    0x8(%ebp),%eax
  30461f:	83 c4 24             	add    $0x24,%esp
  304622:	5f                   	pop    %edi
  304623:	5d                   	pop    %ebp
  304624:	c3                   	ret    

00304625 <set_pte>:
  304625:	55                   	push   %ebp
  304626:	89 e5                	mov    %esp,%ebp
  304628:	53                   	push   %ebx
  304629:	83 ec 10             	sub    $0x10,%esp
  30462c:	c7 45 f8 00 00 00 00 	movl   $0x0,-0x8(%ebp)
  304633:	eb 79                	jmp    3046ae <set_pte+0x89>
  304635:	8b 45 f8             	mov    -0x8(%ebp),%eax
  304638:	8d 14 85 00 00 00 00 	lea    0x0(,%eax,4),%edx
  30463f:	8b 45 08             	mov    0x8(%ebp),%eax
  304642:	01 d0                	add    %edx,%eax
  304644:	8b 55 0c             	mov    0xc(%ebp),%edx
  304647:	83 ca 01             	or     $0x1,%edx
  30464a:	89 10                	mov    %edx,(%eax)
  30464c:	8b 45 10             	mov    0x10(%ebp),%eax
  30464f:	c1 e0 0a             	shl    $0xa,%eax
  304652:	89 c2                	mov    %eax,%edx
  304654:	8b 45 f8             	mov    -0x8(%ebp),%eax
  304657:	01 c2                	add    %eax,%edx
  304659:	8b 45 f8             	mov    -0x8(%ebp),%eax
  30465c:	8d 0c 85 00 00 00 00 	lea    0x0(,%eax,4),%ecx
  304663:	8b 45 08             	mov    0x8(%ebp),%eax
  304666:	01 c8                	add    %ecx,%eax
  304668:	81 e2 ff ff 0f 00    	and    $0xfffff,%edx
  30466e:	89 d1                	mov    %edx,%ecx
  304670:	83 e1 0f             	and    $0xf,%ecx
  304673:	89 cb                	mov    %ecx,%ebx
  304675:	c1 e3 04             	shl    $0x4,%ebx
  304678:	0f b6 48 01          	movzbl 0x1(%eax),%ecx
  30467c:	83 e1 0f             	and    $0xf,%ecx
  30467f:	09 d9                	or     %ebx,%ecx
  304681:	88 48 01             	mov    %cl,0x1(%eax)
  304684:	89 d1                	mov    %edx,%ecx
  304686:	c1 e9 04             	shr    $0x4,%ecx
  304689:	0f b6 d9             	movzbl %cl,%ebx
  30468c:	0f b6 48 02          	movzbl 0x2(%eax),%ecx
  304690:	83 e1 00             	and    $0x0,%ecx
  304693:	09 d9                	or     %ebx,%ecx
  304695:	88 48 02             	mov    %cl,0x2(%eax)
  304698:	c1 ea 0c             	shr    $0xc,%edx
  30469b:	0f b6 ca             	movzbl %dl,%ecx
  30469e:	0f b6 50 03          	movzbl 0x3(%eax),%edx
  3046a2:	83 e2 00             	and    $0x0,%edx
  3046a5:	09 ca                	or     %ecx,%edx
  3046a7:	88 50 03             	mov    %dl,0x3(%eax)
  3046aa:	83 45 f8 01          	addl   $0x1,-0x8(%ebp)
  3046ae:	81 7d f8 ff 03 00 00 	cmpl   $0x3ff,-0x8(%ebp)
  3046b5:	0f 8e 7a ff ff ff    	jle    304635 <set_pte+0x10>
  3046bb:	90                   	nop
  3046bc:	83 c4 10             	add    $0x10,%esp
  3046bf:	5b                   	pop    %ebx
  3046c0:	5d                   	pop    %ebp
  3046c1:	c3                   	ret    

003046c2 <pagination>:
  3046c2:	55                   	push   %ebp
  3046c3:	89 e5                	mov    %esp,%ebp
  3046c5:	83 ec 38             	sub    $0x38,%esp
  3046c8:	83 ec 0c             	sub    $0xc,%esp
  3046cb:	68 90 57 30 00       	push   $0x305790
  3046d0:	e8 fc e9 ff ff       	call   3030d1 <printf>
  3046d5:	83 c4 10             	add    $0x10,%esp
  3046d8:	c7 45 f4 00 00 39 00 	movl   $0x390000,-0xc(%ebp)
  3046df:	c7 45 f0 00 10 39 00 	movl   $0x391000,-0x10(%ebp)
  3046e6:	c7 45 ec 00 20 39 00 	movl   $0x392000,-0x14(%ebp)
  3046ed:	c7 45 e8 00 30 39 00 	movl   $0x393000,-0x18(%ebp)
  3046f4:	c7 45 e4 00 40 39 00 	movl   $0x394000,-0x1c(%ebp)
  3046fb:	c7 45 e0 00 50 39 00 	movl   $0x395000,-0x20(%ebp)
  304702:	c7 45 dc 00 60 39 00 	movl   $0x396000,-0x24(%ebp)
  304709:	c7 45 d8 00 70 39 00 	movl   $0x397000,-0x28(%ebp)
  304710:	c7 45 d4 00 80 39 00 	movl   $0x398000,-0x2c(%ebp)
  304717:	c7 45 d0 00 90 39 00 	movl   $0x399000,-0x30(%ebp)
  30471e:	83 ec 04             	sub    $0x4,%esp
  304721:	68 00 10 00 00       	push   $0x1000
  304726:	6a 00                	push   $0x0
  304728:	ff 75 f4             	pushl  -0xc(%ebp)
  30472b:	e8 47 fe ff ff       	call   304577 <memset>
  304730:	83 c4 10             	add    $0x10,%esp
  304733:	83 ec 04             	sub    $0x4,%esp
  304736:	68 00 10 00 00       	push   $0x1000
  30473b:	6a 00                	push   $0x0
  30473d:	ff 75 f0             	pushl  -0x10(%ebp)
  304740:	e8 32 fe ff ff       	call   304577 <memset>
  304745:	83 c4 10             	add    $0x10,%esp
  304748:	83 ec 04             	sub    $0x4,%esp
  30474b:	68 00 10 00 00       	push   $0x1000
  304750:	6a 00                	push   $0x0
  304752:	ff 75 ec             	pushl  -0x14(%ebp)
  304755:	e8 1d fe ff ff       	call   304577 <memset>
  30475a:	83 c4 10             	add    $0x10,%esp
  30475d:	83 ec 04             	sub    $0x4,%esp
  304760:	68 00 10 00 00       	push   $0x1000
  304765:	6a 00                	push   $0x0
  304767:	ff 75 e8             	pushl  -0x18(%ebp)
  30476a:	e8 08 fe ff ff       	call   304577 <memset>
  30476f:	83 c4 10             	add    $0x10,%esp
  304772:	83 ec 04             	sub    $0x4,%esp
  304775:	68 00 10 00 00       	push   $0x1000
  30477a:	6a 00                	push   $0x0
  30477c:	ff 75 e4             	pushl  -0x1c(%ebp)
  30477f:	e8 f3 fd ff ff       	call   304577 <memset>
  304784:	83 c4 10             	add    $0x10,%esp
  304787:	83 ec 04             	sub    $0x4,%esp
  30478a:	68 00 10 00 00       	push   $0x1000
  30478f:	6a 00                	push   $0x0
  304791:	ff 75 dc             	pushl  -0x24(%ebp)
  304794:	e8 de fd ff ff       	call   304577 <memset>
  304799:	83 c4 10             	add    $0x10,%esp
  30479c:	83 ec 04             	sub    $0x4,%esp
  30479f:	68 00 10 00 00       	push   $0x1000
  3047a4:	6a 00                	push   $0x0
  3047a6:	ff 75 d4             	pushl  -0x2c(%ebp)
  3047a9:	e8 c9 fd ff ff       	call   304577 <memset>
  3047ae:	83 c4 10             	add    $0x10,%esp
  3047b1:	83 ec 04             	sub    $0x4,%esp
  3047b4:	68 00 10 00 00       	push   $0x1000
  3047b9:	6a 00                	push   $0x0
  3047bb:	ff 75 e0             	pushl  -0x20(%ebp)
  3047be:	e8 b4 fd ff ff       	call   304577 <memset>
  3047c3:	83 c4 10             	add    $0x10,%esp
  3047c6:	83 ec 04             	sub    $0x4,%esp
  3047c9:	68 00 10 00 00       	push   $0x1000
  3047ce:	6a 00                	push   $0x0
  3047d0:	ff 75 d8             	pushl  -0x28(%ebp)
  3047d3:	e8 9f fd ff ff       	call   304577 <memset>
  3047d8:	83 c4 10             	add    $0x10,%esp
  3047db:	83 ec 04             	sub    $0x4,%esp
  3047de:	68 00 10 00 00       	push   $0x1000
  3047e3:	6a 00                	push   $0x0
  3047e5:	ff 75 d0             	pushl  -0x30(%ebp)
  3047e8:	e8 8a fd ff ff       	call   304577 <memset>
  3047ed:	83 c4 10             	add    $0x10,%esp
  3047f0:	8b 45 f4             	mov    -0xc(%ebp),%eax
  3047f3:	c7 00 03 00 00 00    	movl   $0x3,(%eax)
  3047f9:	8b 45 f4             	mov    -0xc(%ebp),%eax
  3047fc:	0f b6 50 01          	movzbl 0x1(%eax),%edx
  304800:	83 e2 0f             	and    $0xf,%edx
  304803:	83 ca 30             	or     $0x30,%edx
  304806:	88 50 01             	mov    %dl,0x1(%eax)
  304809:	0f b6 50 02          	movzbl 0x2(%eax),%edx
  30480d:	83 e2 00             	and    $0x0,%edx
  304810:	83 ca 39             	or     $0x39,%edx
  304813:	88 50 02             	mov    %dl,0x2(%eax)
  304816:	0f b6 50 03          	movzbl 0x3(%eax),%edx
  30481a:	83 e2 00             	and    $0x0,%edx
  30481d:	88 50 03             	mov    %dl,0x3(%eax)
  304820:	8b 45 f0             	mov    -0x10(%ebp),%eax
  304823:	c7 00 03 00 00 00    	movl   $0x3,(%eax)
  304829:	8b 45 f0             	mov    -0x10(%ebp),%eax
  30482c:	0f b6 50 01          	movzbl 0x1(%eax),%edx
  304830:	83 e2 0f             	and    $0xf,%edx
  304833:	83 ca 60             	or     $0x60,%edx
  304836:	88 50 01             	mov    %dl,0x1(%eax)
  304839:	0f b6 50 02          	movzbl 0x2(%eax),%edx
  30483d:	83 e2 00             	and    $0x0,%edx
  304840:	83 ca 39             	or     $0x39,%edx
  304843:	88 50 02             	mov    %dl,0x2(%eax)
  304846:	0f b6 50 03          	movzbl 0x3(%eax),%edx
  30484a:	83 e2 00             	and    $0x0,%edx
  30484d:	88 50 03             	mov    %dl,0x3(%eax)
  304850:	8b 45 f0             	mov    -0x10(%ebp),%eax
  304853:	83 c0 04             	add    $0x4,%eax
  304856:	c7 00 03 00 00 00    	movl   $0x3,(%eax)
  30485c:	8b 45 f0             	mov    -0x10(%ebp),%eax
  30485f:	83 c0 04             	add    $0x4,%eax
  304862:	0f b6 50 01          	movzbl 0x1(%eax),%edx
  304866:	83 e2 0f             	and    $0xf,%edx
  304869:	83 ca 40             	or     $0x40,%edx
  30486c:	88 50 01             	mov    %dl,0x1(%eax)
  30486f:	0f b6 50 02          	movzbl 0x2(%eax),%edx
  304873:	83 e2 00             	and    $0x0,%edx
  304876:	83 ca 39             	or     $0x39,%edx
  304879:	88 50 02             	mov    %dl,0x2(%eax)
  30487c:	0f b6 50 03          	movzbl 0x3(%eax),%edx
  304880:	83 e2 00             	and    $0x0,%edx
  304883:	88 50 03             	mov    %dl,0x3(%eax)
  304886:	8b 45 f0             	mov    -0x10(%ebp),%eax
  304889:	83 c0 0c             	add    $0xc,%eax
  30488c:	c7 00 03 00 00 00    	movl   $0x3,(%eax)
  304892:	8b 45 f0             	mov    -0x10(%ebp),%eax
  304895:	83 c0 0c             	add    $0xc,%eax
  304898:	0f b6 50 01          	movzbl 0x1(%eax),%edx
  30489c:	83 e2 0f             	and    $0xf,%edx
  30489f:	83 ca 80             	or     $0xffffff80,%edx
  3048a2:	88 50 01             	mov    %dl,0x1(%eax)
  3048a5:	0f b6 50 02          	movzbl 0x2(%eax),%edx
  3048a9:	83 e2 00             	and    $0x0,%edx
  3048ac:	83 ca 39             	or     $0x39,%edx
  3048af:	88 50 02             	mov    %dl,0x2(%eax)
  3048b2:	0f b6 50 03          	movzbl 0x3(%eax),%edx
  3048b6:	83 e2 00             	and    $0x0,%edx
  3048b9:	88 50 03             	mov    %dl,0x3(%eax)
  3048bc:	8b 45 ec             	mov    -0x14(%ebp),%eax
  3048bf:	c7 00 03 00 00 00    	movl   $0x3,(%eax)
  3048c5:	8b 45 ec             	mov    -0x14(%ebp),%eax
  3048c8:	0f b6 50 01          	movzbl 0x1(%eax),%edx
  3048cc:	83 e2 0f             	and    $0xf,%edx
  3048cf:	83 ca 70             	or     $0x70,%edx
  3048d2:	88 50 01             	mov    %dl,0x1(%eax)
  3048d5:	0f b6 50 02          	movzbl 0x2(%eax),%edx
  3048d9:	83 e2 00             	and    $0x0,%edx
  3048dc:	83 ca 39             	or     $0x39,%edx
  3048df:	88 50 02             	mov    %dl,0x2(%eax)
  3048e2:	0f b6 50 03          	movzbl 0x3(%eax),%edx
  3048e6:	83 e2 00             	and    $0x0,%edx
  3048e9:	88 50 03             	mov    %dl,0x3(%eax)
  3048ec:	8b 45 ec             	mov    -0x14(%ebp),%eax
  3048ef:	83 c0 04             	add    $0x4,%eax
  3048f2:	c7 00 03 00 00 00    	movl   $0x3,(%eax)
  3048f8:	8b 45 ec             	mov    -0x14(%ebp),%eax
  3048fb:	83 c0 04             	add    $0x4,%eax
  3048fe:	0f b6 50 01          	movzbl 0x1(%eax),%edx
  304902:	83 e2 0f             	and    $0xf,%edx
  304905:	83 ca 50             	or     $0x50,%edx
  304908:	88 50 01             	mov    %dl,0x1(%eax)
  30490b:	0f b6 50 02          	movzbl 0x2(%eax),%edx
  30490f:	83 e2 00             	and    $0x0,%edx
  304912:	83 ca 39             	or     $0x39,%edx
  304915:	88 50 02             	mov    %dl,0x2(%eax)
  304918:	0f b6 50 03          	movzbl 0x3(%eax),%edx
  30491c:	83 e2 00             	and    $0x0,%edx
  30491f:	88 50 03             	mov    %dl,0x3(%eax)
  304922:	8b 45 ec             	mov    -0x14(%ebp),%eax
  304925:	83 c0 0c             	add    $0xc,%eax
  304928:	c7 00 03 00 00 00    	movl   $0x3,(%eax)
  30492e:	8b 45 ec             	mov    -0x14(%ebp),%eax
  304931:	83 c0 0c             	add    $0xc,%eax
  304934:	0f b6 50 01          	movzbl 0x1(%eax),%edx
  304938:	83 e2 0f             	and    $0xf,%edx
  30493b:	83 ca 90             	or     $0xffffff90,%edx
  30493e:	88 50 01             	mov    %dl,0x1(%eax)
  304941:	0f b6 50 02          	movzbl 0x2(%eax),%edx
  304945:	83 e2 00             	and    $0x0,%edx
  304948:	83 ca 39             	or     $0x39,%edx
  30494b:	88 50 02             	mov    %dl,0x2(%eax)
  30494e:	0f b6 50 03          	movzbl 0x3(%eax),%edx
  304952:	83 e2 00             	and    $0x0,%edx
  304955:	88 50 03             	mov    %dl,0x3(%eax)
  304958:	83 ec 04             	sub    $0x4,%esp
  30495b:	6a 00                	push   $0x0
  30495d:	6a 02                	push   $0x2
  30495f:	ff 75 e8             	pushl  -0x18(%ebp)
  304962:	e8 be fc ff ff       	call   304625 <set_pte>
  304967:	83 c4 10             	add    $0x10,%esp
  30496a:	83 ec 04             	sub    $0x4,%esp
  30496d:	6a 01                	push   $0x1
  30496f:	6a 06                	push   $0x6
  304971:	ff 75 e4             	pushl  -0x1c(%ebp)
  304974:	e8 ac fc ff ff       	call   304625 <set_pte>
  304979:	83 c4 10             	add    $0x10,%esp
  30497c:	83 ec 04             	sub    $0x4,%esp
  30497f:	6a 00                	push   $0x0
  304981:	6a 06                	push   $0x6
  304983:	ff 75 dc             	pushl  -0x24(%ebp)
  304986:	e8 9a fc ff ff       	call   304625 <set_pte>
  30498b:	83 c4 10             	add    $0x10,%esp
  30498e:	83 ec 04             	sub    $0x4,%esp
  304991:	6a 03                	push   $0x3
  304993:	6a 06                	push   $0x6
  304995:	ff 75 d4             	pushl  -0x2c(%ebp)
  304998:	e8 88 fc ff ff       	call   304625 <set_pte>
  30499d:	83 c4 10             	add    $0x10,%esp
  3049a0:	83 ec 04             	sub    $0x4,%esp
  3049a3:	6a 02                	push   $0x2
  3049a5:	6a 06                	push   $0x6
  3049a7:	ff 75 e0             	pushl  -0x20(%ebp)
  3049aa:	e8 76 fc ff ff       	call   304625 <set_pte>
  3049af:	83 c4 10             	add    $0x10,%esp
  3049b2:	83 ec 04             	sub    $0x4,%esp
  3049b5:	6a 00                	push   $0x0
  3049b7:	6a 06                	push   $0x6
  3049b9:	ff 75 d8             	pushl  -0x28(%ebp)
  3049bc:	e8 64 fc ff ff       	call   304625 <set_pte>
  3049c1:	83 c4 10             	add    $0x10,%esp
  3049c4:	83 ec 04             	sub    $0x4,%esp
  3049c7:	6a 03                	push   $0x3
  3049c9:	6a 06                	push   $0x6
  3049cb:	ff 75 d0             	pushl  -0x30(%ebp)
  3049ce:	e8 52 fc ff ff       	call   304625 <set_pte>
  3049d3:	83 c4 10             	add    $0x10,%esp
  3049d6:	8b 45 e4             	mov    -0x1c(%ebp),%eax
  3049d9:	83 c0 04             	add    $0x4,%eax
  3049dc:	c7 00 07 00 00 00    	movl   $0x7,(%eax)
  3049e2:	8b 45 e4             	mov    -0x1c(%ebp),%eax
  3049e5:	83 c0 04             	add    $0x4,%eax
  3049e8:	0f b6 50 01          	movzbl 0x1(%eax),%edx
  3049ec:	83 e2 0f             	and    $0xf,%edx
  3049ef:	88 50 01             	mov    %dl,0x1(%eax)
  3049f2:	0f b6 50 02          	movzbl 0x2(%eax),%edx
  3049f6:	83 e2 00             	and    $0x0,%edx
  3049f9:	83 ca c1             	or     $0xffffffc1,%edx
  3049fc:	88 50 02             	mov    %dl,0x2(%eax)
  3049ff:	0f b6 50 03          	movzbl 0x3(%eax),%edx
  304a03:	83 e2 00             	and    $0x0,%edx
  304a06:	88 50 03             	mov    %dl,0x3(%eax)
  304a09:	8b 45 e0             	mov    -0x20(%ebp),%eax
  304a0c:	83 c0 04             	add    $0x4,%eax
  304a0f:	c7 00 07 00 00 00    	movl   $0x7,(%eax)
  304a15:	8b 45 e0             	mov    -0x20(%ebp),%eax
  304a18:	83 c0 04             	add    $0x4,%eax
  304a1b:	0f b6 50 01          	movzbl 0x1(%eax),%edx
  304a1f:	83 e2 0f             	and    $0xf,%edx
  304a22:	88 50 01             	mov    %dl,0x1(%eax)
  304a25:	0f b6 50 02          	movzbl 0x2(%eax),%edx
  304a29:	83 e2 00             	and    $0x0,%edx
  304a2c:	83 ca c1             	or     $0xffffffc1,%edx
  304a2f:	88 50 02             	mov    %dl,0x2(%eax)
  304a32:	0f b6 50 03          	movzbl 0x3(%eax),%edx
  304a36:	83 e2 00             	and    $0x0,%edx
  304a39:	88 50 03             	mov    %dl,0x3(%eax)
  304a3c:	b8 00 00 39 00       	mov    $0x390000,%eax
  304a41:	0f 22 d8             	mov    %eax,%cr3
  304a44:	0f 20 c0             	mov    %cr0,%eax
  304a47:	89 45 cc             	mov    %eax,-0x34(%ebp)
  304a4a:	8b 45 cc             	mov    -0x34(%ebp),%eax
  304a4d:	89 45 c8             	mov    %eax,-0x38(%ebp)
  304a50:	0f b6 45 cb          	movzbl -0x35(%ebp),%eax
  304a54:	83 c8 80             	or     $0xffffff80,%eax
  304a57:	88 45 cb             	mov    %al,-0x35(%ebp)
  304a5a:	8b 45 c8             	mov    -0x38(%ebp),%eax
  304a5d:	0f 22 c0             	mov    %eax,%cr0
  304a60:	90                   	nop
  304a61:	c9                   	leave  
  304a62:	c3                   	ret    

00304a63 <memcpy>:
  304a63:	55                   	push   %ebp
  304a64:	89 e5                	mov    %esp,%ebp
  304a66:	57                   	push   %edi
  304a67:	56                   	push   %esi
  304a68:	83 ec 20             	sub    $0x20,%esp
  304a6b:	8b 45 08             	mov    0x8(%ebp),%eax
  304a6e:	89 45 e8             	mov    %eax,-0x18(%ebp)
  304a71:	8b 45 0c             	mov    0xc(%ebp),%eax
  304a74:	89 45 e0             	mov    %eax,-0x20(%ebp)
  304a77:	83 7d 10 00          	cmpl   $0x0,0x10(%ebp)
  304a7b:	75 05                	jne    304a82 <memcpy+0x1f>
  304a7d:	8b 45 08             	mov    0x8(%ebp),%eax
  304a80:	eb 70                	jmp    304af2 <memcpy+0x8f>
  304a82:	8b 45 10             	mov    0x10(%ebp),%eax
  304a85:	ba 00 00 00 00       	mov    $0x0,%edx
  304a8a:	b9 04 00 00 00       	mov    $0x4,%ecx
  304a8f:	f7 f1                	div    %ecx
  304a91:	89 45 f4             	mov    %eax,-0xc(%ebp)
  304a94:	89 55 f0             	mov    %edx,-0x10(%ebp)
  304a97:	83 7d f4 00          	cmpl   $0x0,-0xc(%ebp)
  304a9b:	74 34                	je     304ad1 <memcpy+0x6e>
  304a9d:	9c                   	pushf  
  304a9e:	8f 45 dc             	popl   -0x24(%ebp)
  304aa1:	fc                   	cld    
  304aa2:	8b 45 e8             	mov    -0x18(%ebp),%eax
  304aa5:	8b 55 e0             	mov    -0x20(%ebp),%edx
  304aa8:	8b 4d f4             	mov    -0xc(%ebp),%ecx
  304aab:	89 c7                	mov    %eax,%edi
  304aad:	89 d6                	mov    %edx,%esi
  304aaf:	f3 a5                	rep movsl %ds:(%esi),%es:(%edi)
  304ab1:	ff 75 dc             	pushl  -0x24(%ebp)
  304ab4:	9d                   	popf   
  304ab5:	8b 45 e8             	mov    -0x18(%ebp),%eax
  304ab8:	8b 55 f4             	mov    -0xc(%ebp),%edx
  304abb:	c1 e2 02             	shl    $0x2,%edx
  304abe:	01 d0                	add    %edx,%eax
  304ac0:	89 45 e8             	mov    %eax,-0x18(%ebp)
  304ac3:	8b 45 e0             	mov    -0x20(%ebp),%eax
  304ac6:	8b 55 f4             	mov    -0xc(%ebp),%edx
  304ac9:	c1 e2 02             	shl    $0x2,%edx
  304acc:	01 d0                	add    %edx,%eax
  304ace:	89 45 e0             	mov    %eax,-0x20(%ebp)
  304ad1:	83 7d f0 00          	cmpl   $0x0,-0x10(%ebp)
  304ad5:	74 18                	je     304aef <memcpy+0x8c>
  304ad7:	9c                   	pushf  
  304ad8:	8f 45 d8             	popl   -0x28(%ebp)
  304adb:	fc                   	cld    
  304adc:	8b 45 e8             	mov    -0x18(%ebp),%eax
  304adf:	8b 55 e0             	mov    -0x20(%ebp),%edx
  304ae2:	8b 4d f0             	mov    -0x10(%ebp),%ecx
  304ae5:	89 c7                	mov    %eax,%edi
  304ae7:	89 d6                	mov    %edx,%esi
  304ae9:	f3 a4                	rep movsb %ds:(%esi),%es:(%edi)
  304aeb:	ff 75 d8             	pushl  -0x28(%ebp)
  304aee:	9d                   	popf   
  304aef:	8b 45 08             	mov    0x8(%ebp),%eax
  304af2:	83 c4 20             	add    $0x20,%esp
  304af5:	5e                   	pop    %esi
  304af6:	5f                   	pop    %edi
  304af7:	5d                   	pop    %ebp
  304af8:	c3                   	ret    

00304af9 <init_task>:
  304af9:	55                   	push   %ebp
  304afa:	89 e5                	mov    %esp,%ebp
  304afc:	8b 45 08             	mov    0x8(%ebp),%eax
  304aff:	8b 55 0c             	mov    0xc(%ebp),%edx
  304b02:	89 50 04             	mov    %edx,0x4(%eax)
  304b05:	8b 45 08             	mov    0x8(%ebp),%eax
  304b08:	8b 55 10             	mov    0x10(%ebp),%edx
  304b0b:	89 10                	mov    %edx,(%eax)
  304b0d:	90                   	nop
  304b0e:	5d                   	pop    %ebp
  304b0f:	c3                   	ret    

00304b10 <init_task_stack>:
  304b10:	55                   	push   %ebp
  304b11:	89 e5                	mov    %esp,%ebp
  304b13:	57                   	push   %edi
  304b14:	56                   	push   %esi
  304b15:	53                   	push   %ebx
  304b16:	83 ec 4c             	sub    $0x4c,%esp
  304b19:	8b 45 08             	mov    0x8(%ebp),%eax
  304b1c:	8b 55 0c             	mov    0xc(%ebp),%edx
  304b1f:	89 50 08             	mov    %edx,0x8(%eax)
  304b22:	8b 45 08             	mov    0x8(%ebp),%eax
  304b25:	8b 40 08             	mov    0x8(%eax),%eax
  304b28:	8d 90 10 ff ff ff    	lea    -0xf0(%eax),%edx
  304b2e:	8b 45 08             	mov    0x8(%ebp),%eax
  304b31:	89 50 0c             	mov    %edx,0xc(%eax)
  304b34:	8b 45 08             	mov    0x8(%ebp),%eax
  304b37:	8b 40 0c             	mov    0xc(%eax),%eax
  304b3a:	89 45 e4             	mov    %eax,-0x1c(%ebp)
  304b3d:	8b 45 e4             	mov    -0x1c(%ebp),%eax
  304b40:	c7 40 20 10 00 00 00 	movl   $0x10,0x20(%eax)
  304b47:	8b 45 e4             	mov    -0x1c(%ebp),%eax
  304b4a:	c7 40 24 ff ff ff ff 	movl   $0xffffffff,0x24(%eax)
  304b51:	8b 45 e4             	mov    -0x1c(%ebp),%eax
  304b54:	c7 40 2c 18 00 00 00 	movl   $0x18,0x2c(%eax)
  304b5b:	8b 45 e4             	mov    -0x1c(%ebp),%eax
  304b5e:	8b 55 14             	mov    0x14(%ebp),%edx
  304b61:	89 50 28             	mov    %edx,0x28(%eax)
  304b64:	8b 45 e4             	mov    -0x1c(%ebp),%eax
  304b67:	c7 40 38 20 00 00 00 	movl   $0x20,0x38(%eax)
  304b6e:	8b 55 10             	mov    0x10(%ebp),%edx
  304b71:	8b 45 e4             	mov    -0x1c(%ebp),%eax
  304b74:	89 50 34             	mov    %edx,0x34(%eax)
  304b77:	8b 45 e4             	mov    -0x1c(%ebp),%eax
  304b7a:	c7 40 30 10 00 00 00 	movl   $0x10,0x30(%eax)
  304b81:	8b 45 e4             	mov    -0x1c(%ebp),%eax
  304b84:	c7 40 1c 01 00 00 00 	movl   $0x1,0x1c(%eax)
  304b8b:	8b 45 e4             	mov    -0x1c(%ebp),%eax
  304b8e:	c7 40 18 02 00 00 00 	movl   $0x2,0x18(%eax)
  304b95:	8b 45 e4             	mov    -0x1c(%ebp),%eax
  304b98:	c7 40 14 03 00 00 00 	movl   $0x3,0x14(%eax)
  304b9f:	8b 45 e4             	mov    -0x1c(%ebp),%eax
  304ba2:	c7 40 10 04 00 00 00 	movl   $0x4,0x10(%eax)
  304ba9:	8b 45 e4             	mov    -0x1c(%ebp),%eax
  304bac:	c7 40 0c 05 00 00 00 	movl   $0x5,0xc(%eax)
  304bb3:	8b 55 10             	mov    0x10(%ebp),%edx
  304bb6:	8b 45 e4             	mov    -0x1c(%ebp),%eax
  304bb9:	89 50 08             	mov    %edx,0x8(%eax)
  304bbc:	8b 45 e4             	mov    -0x1c(%ebp),%eax
  304bbf:	c7 40 04 06 00 00 00 	movl   $0x6,0x4(%eax)
  304bc6:	8b 45 e4             	mov    -0x1c(%ebp),%eax
  304bc9:	c7 00 07 00 00 00    	movl   $0x7,(%eax)
  304bcf:	8b 45 e4             	mov    -0x1c(%ebp),%eax
  304bd2:	8b 38                	mov    (%eax),%edi
  304bd4:	8b 45 e4             	mov    -0x1c(%ebp),%eax
  304bd7:	8b 40 04             	mov    0x4(%eax),%eax
  304bda:	89 45 d4             	mov    %eax,-0x2c(%ebp)
  304bdd:	8b 45 e4             	mov    -0x1c(%ebp),%eax
  304be0:	8b 48 08             	mov    0x8(%eax),%ecx
  304be3:	89 4d d0             	mov    %ecx,-0x30(%ebp)
  304be6:	8b 45 e4             	mov    -0x1c(%ebp),%eax
  304be9:	8b 58 0c             	mov    0xc(%eax),%ebx
  304bec:	89 5d cc             	mov    %ebx,-0x34(%ebp)
  304bef:	8b 45 e4             	mov    -0x1c(%ebp),%eax
  304bf2:	8b 70 10             	mov    0x10(%eax),%esi
  304bf5:	89 75 c8             	mov    %esi,-0x38(%ebp)
  304bf8:	8b 45 e4             	mov    -0x1c(%ebp),%eax
  304bfb:	8b 50 14             	mov    0x14(%eax),%edx
  304bfe:	89 55 c4             	mov    %edx,-0x3c(%ebp)
  304c01:	8b 45 e4             	mov    -0x1c(%ebp),%eax
  304c04:	8b 40 18             	mov    0x18(%eax),%eax
  304c07:	89 45 c0             	mov    %eax,-0x40(%ebp)
  304c0a:	8b 45 e4             	mov    -0x1c(%ebp),%eax
  304c0d:	8b 48 1c             	mov    0x1c(%eax),%ecx
  304c10:	89 4d bc             	mov    %ecx,-0x44(%ebp)
  304c13:	8b 45 e4             	mov    -0x1c(%ebp),%eax
  304c16:	8b 58 30             	mov    0x30(%eax),%ebx
  304c19:	89 5d b8             	mov    %ebx,-0x48(%ebp)
  304c1c:	8b 45 e4             	mov    -0x1c(%ebp),%eax
  304c1f:	8b 70 34             	mov    0x34(%eax),%esi
  304c22:	89 75 b4             	mov    %esi,-0x4c(%ebp)
  304c25:	8b 45 e4             	mov    -0x1c(%ebp),%eax
  304c28:	8b 70 38             	mov    0x38(%eax),%esi
  304c2b:	8b 45 e4             	mov    -0x1c(%ebp),%eax
  304c2e:	8b 58 28             	mov    0x28(%eax),%ebx
  304c31:	8b 45 e4             	mov    -0x1c(%ebp),%eax
  304c34:	8b 48 2c             	mov    0x2c(%eax),%ecx
  304c37:	8b 45 e4             	mov    -0x1c(%ebp),%eax
  304c3a:	8b 50 24             	mov    0x24(%eax),%edx
  304c3d:	8b 45 e4             	mov    -0x1c(%ebp),%eax
  304c40:	8b 40 20             	mov    0x20(%eax),%eax
  304c43:	57                   	push   %edi
  304c44:	ff 75 d4             	pushl  -0x2c(%ebp)
  304c47:	ff 75 d0             	pushl  -0x30(%ebp)
  304c4a:	ff 75 cc             	pushl  -0x34(%ebp)
  304c4d:	ff 75 c8             	pushl  -0x38(%ebp)
  304c50:	ff 75 c4             	pushl  -0x3c(%ebp)
  304c53:	ff 75 c0             	pushl  -0x40(%ebp)
  304c56:	ff 75 bc             	pushl  -0x44(%ebp)
  304c59:	ff 75 b8             	pushl  -0x48(%ebp)
  304c5c:	ff 75 b4             	pushl  -0x4c(%ebp)
  304c5f:	56                   	push   %esi
  304c60:	53                   	push   %ebx
  304c61:	51                   	push   %ecx
  304c62:	52                   	push   %edx
  304c63:	50                   	push   %eax
  304c64:	68 a8 57 30 00       	push   $0x3057a8
  304c69:	e8 63 e4 ff ff       	call   3030d1 <printf>
  304c6e:	83 c4 40             	add    $0x40,%esp
  304c71:	8b 45 08             	mov    0x8(%ebp),%eax
  304c74:	8b 40 08             	mov    0x8(%eax),%eax
  304c77:	83 ec 04             	sub    $0x4,%esp
  304c7a:	6a 3c                	push   $0x3c
  304c7c:	ff 75 e4             	pushl  -0x1c(%ebp)
  304c7f:	50                   	push   %eax
  304c80:	e8 de fd ff ff       	call   304a63 <memcpy>
  304c85:	83 c4 10             	add    $0x10,%esp
  304c88:	90                   	nop
  304c89:	8d 65 f4             	lea    -0xc(%ebp),%esp
  304c8c:	5b                   	pop    %ebx
  304c8d:	5e                   	pop    %esi
  304c8e:	5f                   	pop    %edi
  304c8f:	5d                   	pop    %ebp
  304c90:	c3                   	ret    

00304c91 <sys_counter>:
  304c91:	55                   	push   %ebp
  304c92:	89 e5                	mov    %esp,%ebp
  304c94:	8b 75 08             	mov    0x8(%ebp),%esi
  304c97:	cd 50                	int    $0x50
  304c99:	90                   	nop
  304c9a:	5d                   	pop    %ebp
  304c9b:	c3                   	ret    

00304c9c <initialise_all_tasks>:
  304c9c:	55                   	push   %ebp
  304c9d:	89 e5                	mov    %esp,%ebp
  304c9f:	83 ec 18             	sub    $0x18,%esp
  304ca2:	83 ec 0c             	sub    $0xc,%esp
  304ca5:	68 c9 58 30 00       	push   $0x3058c9
  304caa:	e8 22 e4 ff ff       	call   3030d1 <printf>
  304caf:	83 c4 10             	add    $0x10,%esp
  304cb2:	c7 45 f4 00 00 39 00 	movl   $0x390000,-0xc(%ebp)
  304cb9:	c7 45 f0 00 10 39 00 	movl   $0x391000,-0x10(%ebp)
  304cc0:	c7 45 ec 00 20 39 00 	movl   $0x392000,-0x14(%ebp)
  304cc7:	8b 15 b4 86 30 00    	mov    0x3086b4,%edx
  304ccd:	a1 b8 86 30 00       	mov    0x3086b8,%eax
  304cd2:	83 ec 04             	sub    $0x4,%esp
  304cd5:	ff 75 f4             	pushl  -0xc(%ebp)
  304cd8:	52                   	push   %edx
  304cd9:	50                   	push   %eax
  304cda:	e8 1a fe ff ff       	call   304af9 <init_task>
  304cdf:	83 c4 10             	add    $0x10,%esp
  304ce2:	8b 15 b0 86 30 00    	mov    0x3086b0,%edx
  304ce8:	a1 b4 86 30 00       	mov    0x3086b4,%eax
  304ced:	83 ec 04             	sub    $0x4,%esp
  304cf0:	ff 75 f0             	pushl  -0x10(%ebp)
  304cf3:	52                   	push   %edx
  304cf4:	50                   	push   %eax
  304cf5:	e8 ff fd ff ff       	call   304af9 <init_task>
  304cfa:	83 c4 10             	add    $0x10,%esp
  304cfd:	8b 15 b4 86 30 00    	mov    0x3086b4,%edx
  304d03:	a1 b0 86 30 00       	mov    0x3086b0,%eax
  304d08:	83 ec 04             	sub    $0x4,%esp
  304d0b:	ff 75 ec             	pushl  -0x14(%ebp)
  304d0e:	52                   	push   %edx
  304d0f:	50                   	push   %eax
  304d10:	e8 e4 fd ff ff       	call   304af9 <init_task>
  304d15:	83 c4 10             	add    $0x10,%esp
  304d18:	ba 00 00 40 00       	mov    $0x400000,%edx
  304d1d:	a1 b4 86 30 00       	mov    0x3086b4,%eax
  304d22:	52                   	push   %edx
  304d23:	68 00 00 41 00       	push   $0x410000
  304d28:	68 00 00 30 00       	push   $0x300000
  304d2d:	50                   	push   %eax
  304d2e:	e8 dd fd ff ff       	call   304b10 <init_task_stack>
  304d33:	83 c4 10             	add    $0x10,%esp
  304d36:	ba 00 00 80 00       	mov    $0x800000,%edx
  304d3b:	a1 b0 86 30 00       	mov    0x3086b0,%eax
  304d40:	52                   	push   %edx
  304d41:	68 00 00 81 00       	push   $0x810000
  304d46:	68 00 00 31 00       	push   $0x310000
  304d4b:	50                   	push   %eax
  304d4c:	e8 bf fd ff ff       	call   304b10 <init_task_stack>
  304d51:	83 c4 10             	add    $0x10,%esp
  304d54:	a1 b8 86 30 00       	mov    0x3086b8,%eax
  304d59:	a3 c0 65 30 00       	mov    %eax,0x3065c0
  304d5e:	90                   	nop
  304d5f:	c9                   	leave  
  304d60:	c3                   	ret    

00304d61 <tp>:
  304d61:	55                   	push   %ebp
  304d62:	89 e5                	mov    %esp,%ebp
  304d64:	83 ec 18             	sub    $0x18,%esp
  304d67:	e8 22 f7 ff ff       	call   30448e <init_gdt>
  304d6c:	e8 b1 f6 ff ff       	call   304422 <init_TSS>
  304d71:	83 ec 0c             	sub    $0xc,%esp
  304d74:	68 dd 58 30 00       	push   $0x3058dd
  304d79:	e8 53 e3 ff ff       	call   3030d1 <printf>
  304d7e:	83 c4 10             	add    $0x10,%esp
  304d81:	a1 90 59 30 00       	mov    0x305990,%eax
  304d86:	c7 00 00 00 00 00    	movl   $0x0,(%eax)
  304d8c:	a1 94 59 30 00       	mov    0x305994,%eax
  304d91:	c7 00 00 00 00 00    	movl   $0x0,(%eax)
  304d97:	e8 26 f9 ff ff       	call   3046c2 <pagination>
  304d9c:	83 ec 0c             	sub    $0xc,%esp
  304d9f:	68 f8 58 30 00       	push   $0x3058f8
  304da4:	e8 28 e3 ff ff       	call   3030d1 <printf>
  304da9:	83 c4 10             	add    $0x10,%esp
  304dac:	0f 01 4d f2          	sidtl  -0xe(%ebp)
  304db0:	e8 e7 fe ff ff       	call   304c9c <initialise_all_tasks>
  304db5:	fb                   	sti    
  304db6:	90                   	nop
  304db7:	eb fe                	jmp    304db7 <tp+0x56>
  304db9:	66 90                	xchg   %ax,%ax
  304dbb:	66 90                	xchg   %ax,%ax
  304dbd:	66 90                	xchg   %ax,%ax
  304dbf:	90                   	nop

00304dc0 <__divdi3>:
  304dc0:	55                   	push   %ebp
  304dc1:	57                   	push   %edi
  304dc2:	56                   	push   %esi
  304dc3:	53                   	push   %ebx
  304dc4:	83 ec 1c             	sub    $0x1c,%esp
  304dc7:	8b 54 24 34          	mov    0x34(%esp),%edx
  304dcb:	8b 44 24 30          	mov    0x30(%esp),%eax
  304dcf:	c7 44 24 08 00 00 00 	movl   $0x0,0x8(%esp)
  304dd6:	00 
  304dd7:	89 d5                	mov    %edx,%ebp
  304dd9:	89 04 24             	mov    %eax,(%esp)
  304ddc:	89 54 24 04          	mov    %edx,0x4(%esp)
  304de0:	85 ed                	test   %ebp,%ebp
  304de2:	8b 44 24 38          	mov    0x38(%esp),%eax
  304de6:	8b 54 24 3c          	mov    0x3c(%esp),%edx
  304dea:	79 1a                	jns    304e06 <__divdi3+0x46>
  304dec:	f7 1c 24             	negl   (%esp)
  304def:	c7 44 24 08 ff ff ff 	movl   $0xffffffff,0x8(%esp)
  304df6:	ff 
  304df7:	83 54 24 04 00       	adcl   $0x0,0x4(%esp)
  304dfc:	f7 5c 24 04          	negl   0x4(%esp)
  304e00:	8b 7c 24 04          	mov    0x4(%esp),%edi
  304e04:	89 fd                	mov    %edi,%ebp
  304e06:	85 d2                	test   %edx,%edx
  304e08:	89 d3                	mov    %edx,%ebx
  304e0a:	79 0d                	jns    304e19 <__divdi3+0x59>
  304e0c:	f7 d8                	neg    %eax
  304e0e:	f7 54 24 08          	notl   0x8(%esp)
  304e12:	83 d2 00             	adc    $0x0,%edx
  304e15:	f7 da                	neg    %edx
  304e17:	89 d3                	mov    %edx,%ebx
  304e19:	85 db                	test   %ebx,%ebx
  304e1b:	89 c7                	mov    %eax,%edi
  304e1d:	8b 04 24             	mov    (%esp),%eax
  304e20:	75 0e                	jne    304e30 <__divdi3+0x70>
  304e22:	39 ef                	cmp    %ebp,%edi
  304e24:	76 52                	jbe    304e78 <__divdi3+0xb8>
  304e26:	89 ea                	mov    %ebp,%edx
  304e28:	31 f6                	xor    %esi,%esi
  304e2a:	f7 f7                	div    %edi
  304e2c:	89 c1                	mov    %eax,%ecx
  304e2e:	eb 08                	jmp    304e38 <__divdi3+0x78>
  304e30:	39 eb                	cmp    %ebp,%ebx
  304e32:	76 24                	jbe    304e58 <__divdi3+0x98>
  304e34:	31 f6                	xor    %esi,%esi
  304e36:	31 c9                	xor    %ecx,%ecx
  304e38:	89 c8                	mov    %ecx,%eax
  304e3a:	8b 4c 24 08          	mov    0x8(%esp),%ecx
  304e3e:	89 f2                	mov    %esi,%edx
  304e40:	85 c9                	test   %ecx,%ecx
  304e42:	74 07                	je     304e4b <__divdi3+0x8b>
  304e44:	f7 d8                	neg    %eax
  304e46:	83 d2 00             	adc    $0x0,%edx
  304e49:	f7 da                	neg    %edx
  304e4b:	83 c4 1c             	add    $0x1c,%esp
  304e4e:	5b                   	pop    %ebx
  304e4f:	5e                   	pop    %esi
  304e50:	5f                   	pop    %edi
  304e51:	5d                   	pop    %ebp
  304e52:	c3                   	ret    
  304e53:	90                   	nop
  304e54:	8d 74 26 00          	lea    0x0(%esi,%eiz,1),%esi
  304e58:	0f bd f3             	bsr    %ebx,%esi
  304e5b:	83 f6 1f             	xor    $0x1f,%esi
  304e5e:	75 40                	jne    304ea0 <__divdi3+0xe0>
  304e60:	39 eb                	cmp    %ebp,%ebx
  304e62:	72 07                	jb     304e6b <__divdi3+0xab>
  304e64:	31 c9                	xor    %ecx,%ecx
  304e66:	3b 3c 24             	cmp    (%esp),%edi
  304e69:	77 cd                	ja     304e38 <__divdi3+0x78>
  304e6b:	b9 01 00 00 00       	mov    $0x1,%ecx
  304e70:	eb c6                	jmp    304e38 <__divdi3+0x78>
  304e72:	8d b6 00 00 00 00    	lea    0x0(%esi),%esi
  304e78:	85 ff                	test   %edi,%edi
  304e7a:	75 0b                	jne    304e87 <__divdi3+0xc7>
  304e7c:	b8 01 00 00 00       	mov    $0x1,%eax
  304e81:	31 d2                	xor    %edx,%edx
  304e83:	f7 f3                	div    %ebx
  304e85:	89 c7                	mov    %eax,%edi
  304e87:	31 d2                	xor    %edx,%edx
  304e89:	89 e8                	mov    %ebp,%eax
  304e8b:	f7 f7                	div    %edi
  304e8d:	89 c6                	mov    %eax,%esi
  304e8f:	8b 04 24             	mov    (%esp),%eax
  304e92:	f7 f7                	div    %edi
  304e94:	89 c1                	mov    %eax,%ecx
  304e96:	eb a0                	jmp    304e38 <__divdi3+0x78>
  304e98:	90                   	nop
  304e99:	8d b4 26 00 00 00 00 	lea    0x0(%esi,%eiz,1),%esi
  304ea0:	b8 20 00 00 00       	mov    $0x20,%eax
  304ea5:	89 f1                	mov    %esi,%ecx
  304ea7:	89 fa                	mov    %edi,%edx
  304ea9:	29 f0                	sub    %esi,%eax
  304eab:	d3 e3                	shl    %cl,%ebx
  304ead:	89 c1                	mov    %eax,%ecx
  304eaf:	d3 ea                	shr    %cl,%edx
  304eb1:	89 f1                	mov    %esi,%ecx
  304eb3:	09 da                	or     %ebx,%edx
  304eb5:	d3 e7                	shl    %cl,%edi
  304eb7:	89 eb                	mov    %ebp,%ebx
  304eb9:	89 c1                	mov    %eax,%ecx
  304ebb:	89 54 24 0c          	mov    %edx,0xc(%esp)
  304ebf:	8b 14 24             	mov    (%esp),%edx
  304ec2:	d3 eb                	shr    %cl,%ebx
  304ec4:	89 f1                	mov    %esi,%ecx
  304ec6:	d3 e5                	shl    %cl,%ebp
  304ec8:	89 c1                	mov    %eax,%ecx
  304eca:	d3 ea                	shr    %cl,%edx
  304ecc:	09 d5                	or     %edx,%ebp
  304ece:	89 da                	mov    %ebx,%edx
  304ed0:	89 e8                	mov    %ebp,%eax
  304ed2:	f7 74 24 0c          	divl   0xc(%esp)
  304ed6:	89 d3                	mov    %edx,%ebx
  304ed8:	89 c5                	mov    %eax,%ebp
  304eda:	f7 e7                	mul    %edi
  304edc:	39 d3                	cmp    %edx,%ebx
  304ede:	72 20                	jb     304f00 <__divdi3+0x140>
  304ee0:	8b 3c 24             	mov    (%esp),%edi
  304ee3:	89 f1                	mov    %esi,%ecx
  304ee5:	d3 e7                	shl    %cl,%edi
  304ee7:	39 c7                	cmp    %eax,%edi
  304ee9:	73 04                	jae    304eef <__divdi3+0x12f>
  304eeb:	39 d3                	cmp    %edx,%ebx
  304eed:	74 11                	je     304f00 <__divdi3+0x140>
  304eef:	89 e9                	mov    %ebp,%ecx
  304ef1:	31 f6                	xor    %esi,%esi
  304ef3:	e9 40 ff ff ff       	jmp    304e38 <__divdi3+0x78>
  304ef8:	90                   	nop
  304ef9:	8d b4 26 00 00 00 00 	lea    0x0(%esi,%eiz,1),%esi
  304f00:	8d 4d ff             	lea    -0x1(%ebp),%ecx
  304f03:	31 f6                	xor    %esi,%esi
  304f05:	e9 2e ff ff ff       	jmp    304e38 <__divdi3+0x78>
  304f0a:	66 90                	xchg   %ax,%ax
  304f0c:	66 90                	xchg   %ax,%ax
  304f0e:	66 90                	xchg   %ax,%ax

00304f10 <__moddi3>:
  304f10:	55                   	push   %ebp
  304f11:	57                   	push   %edi
  304f12:	56                   	push   %esi
  304f13:	53                   	push   %ebx
  304f14:	83 ec 2c             	sub    $0x2c,%esp
  304f17:	8b 5c 24 44          	mov    0x44(%esp),%ebx
  304f1b:	8b 4c 24 40          	mov    0x40(%esp),%ecx
  304f1f:	8b 44 24 48          	mov    0x48(%esp),%eax
  304f23:	8b 54 24 4c          	mov    0x4c(%esp),%edx
  304f27:	c7 44 24 08 00 00 00 	movl   $0x0,0x8(%esp)
  304f2e:	00 
  304f2f:	85 db                	test   %ebx,%ebx
  304f31:	89 de                	mov    %ebx,%esi
  304f33:	79 11                	jns    304f46 <__moddi3+0x36>
  304f35:	f7 d9                	neg    %ecx
  304f37:	c7 44 24 08 ff ff ff 	movl   $0xffffffff,0x8(%esp)
  304f3e:	ff 
  304f3f:	83 d3 00             	adc    $0x0,%ebx
  304f42:	f7 db                	neg    %ebx
  304f44:	89 de                	mov    %ebx,%esi
  304f46:	85 d2                	test   %edx,%edx
  304f48:	89 d7                	mov    %edx,%edi
  304f4a:	79 09                	jns    304f55 <__moddi3+0x45>
  304f4c:	f7 d8                	neg    %eax
  304f4e:	83 d2 00             	adc    $0x0,%edx
  304f51:	f7 da                	neg    %edx
  304f53:	89 d7                	mov    %edx,%edi
  304f55:	85 ff                	test   %edi,%edi
  304f57:	89 c2                	mov    %eax,%edx
  304f59:	89 44 24 10          	mov    %eax,0x10(%esp)
  304f5d:	89 4c 24 14          	mov    %ecx,0x14(%esp)
  304f61:	89 74 24 0c          	mov    %esi,0xc(%esp)
  304f65:	75 19                	jne    304f80 <__moddi3+0x70>
  304f67:	89 d3                	mov    %edx,%ebx
  304f69:	89 f2                	mov    %esi,%edx
  304f6b:	39 f3                	cmp    %esi,%ebx
  304f6d:	76 61                	jbe    304fd0 <__moddi3+0xc0>
  304f6f:	89 c8                	mov    %ecx,%eax
  304f71:	f7 f3                	div    %ebx
  304f73:	89 54 24 0c          	mov    %edx,0xc(%esp)
  304f77:	8b 44 24 0c          	mov    0xc(%esp),%eax
  304f7b:	31 d2                	xor    %edx,%edx
  304f7d:	eb 09                	jmp    304f88 <__moddi3+0x78>
  304f7f:	90                   	nop
  304f80:	39 f7                	cmp    %esi,%edi
  304f82:	76 1c                	jbe    304fa0 <__moddi3+0x90>
  304f84:	89 c8                	mov    %ecx,%eax
  304f86:	89 f2                	mov    %esi,%edx
  304f88:	8b 4c 24 08          	mov    0x8(%esp),%ecx
  304f8c:	85 c9                	test   %ecx,%ecx
  304f8e:	74 07                	je     304f97 <__moddi3+0x87>
  304f90:	f7 d8                	neg    %eax
  304f92:	83 d2 00             	adc    $0x0,%edx
  304f95:	f7 da                	neg    %edx
  304f97:	83 c4 2c             	add    $0x2c,%esp
  304f9a:	5b                   	pop    %ebx
  304f9b:	5e                   	pop    %esi
  304f9c:	5f                   	pop    %edi
  304f9d:	5d                   	pop    %ebp
  304f9e:	c3                   	ret    
  304f9f:	90                   	nop
  304fa0:	0f bd c7             	bsr    %edi,%eax
  304fa3:	83 f0 1f             	xor    $0x1f,%eax
  304fa6:	89 44 24 18          	mov    %eax,0x18(%esp)
  304faa:	75 54                	jne    305000 <__moddi3+0xf0>
  304fac:	39 f7                	cmp    %esi,%edi
  304fae:	0f 82 dc 00 00 00    	jb     305090 <__moddi3+0x180>
  304fb4:	8b 4c 24 14          	mov    0x14(%esp),%ecx
  304fb8:	39 4c 24 10          	cmp    %ecx,0x10(%esp)
  304fbc:	0f 86 ce 00 00 00    	jbe    305090 <__moddi3+0x180>
  304fc2:	8b 44 24 14          	mov    0x14(%esp),%eax
  304fc6:	8b 54 24 0c          	mov    0xc(%esp),%edx
  304fca:	eb bc                	jmp    304f88 <__moddi3+0x78>
  304fcc:	8d 74 26 00          	lea    0x0(%esi,%eiz,1),%esi
  304fd0:	8b 5c 24 10          	mov    0x10(%esp),%ebx
  304fd4:	85 db                	test   %ebx,%ebx
  304fd6:	75 0d                	jne    304fe5 <__moddi3+0xd5>
  304fd8:	b8 01 00 00 00       	mov    $0x1,%eax
  304fdd:	31 d2                	xor    %edx,%edx
  304fdf:	f7 f7                	div    %edi
  304fe1:	89 44 24 10          	mov    %eax,0x10(%esp)
  304fe5:	8b 5c 24 10          	mov    0x10(%esp),%ebx
  304fe9:	89 f0                	mov    %esi,%eax
  304feb:	31 d2                	xor    %edx,%edx
  304fed:	f7 f3                	div    %ebx
  304fef:	8b 44 24 14          	mov    0x14(%esp),%eax
  304ff3:	f7 f3                	div    %ebx
  304ff5:	89 54 24 0c          	mov    %edx,0xc(%esp)
  304ff9:	e9 79 ff ff ff       	jmp    304f77 <__moddi3+0x67>
  304ffe:	66 90                	xchg   %ax,%ax
  305000:	8b 5c 24 18          	mov    0x18(%esp),%ebx
  305004:	b8 20 00 00 00       	mov    $0x20,%eax
  305009:	8b 6c 24 10          	mov    0x10(%esp),%ebp
  30500d:	89 c2                	mov    %eax,%edx
  30500f:	29 da                	sub    %ebx,%edx
  305011:	89 d9                	mov    %ebx,%ecx
  305013:	89 e8                	mov    %ebp,%eax
  305015:	d3 e7                	shl    %cl,%edi
  305017:	89 d1                	mov    %edx,%ecx
  305019:	89 54 24 1c          	mov    %edx,0x1c(%esp)
  30501d:	d3 e8                	shr    %cl,%eax
  30501f:	89 d9                	mov    %ebx,%ecx
  305021:	d3 e5                	shl    %cl,%ebp
  305023:	09 c7                	or     %eax,%edi
  305025:	89 d1                	mov    %edx,%ecx
  305027:	89 6c 24 0c          	mov    %ebp,0xc(%esp)
  30502b:	8b 6c 24 14          	mov    0x14(%esp),%ebp
  30502f:	89 d8                	mov    %ebx,%eax
  305031:	89 f3                	mov    %esi,%ebx
  305033:	d3 eb                	shr    %cl,%ebx
  305035:	89 c1                	mov    %eax,%ecx
  305037:	d3 e6                	shl    %cl,%esi
  305039:	89 e8                	mov    %ebp,%eax
  30503b:	89 d1                	mov    %edx,%ecx
  30503d:	d3 e8                	shr    %cl,%eax
  30503f:	0f b6 4c 24 18       	movzbl 0x18(%esp),%ecx
  305044:	89 da                	mov    %ebx,%edx
  305046:	09 f0                	or     %esi,%eax
  305048:	89 ee                	mov    %ebp,%esi
  30504a:	f7 f7                	div    %edi
  30504c:	89 d3                	mov    %edx,%ebx
  30504e:	d3 e6                	shl    %cl,%esi
  305050:	f7 64 24 0c          	mull   0xc(%esp)
  305054:	39 d3                	cmp    %edx,%ebx
  305056:	89 c5                	mov    %eax,%ebp
  305058:	89 d1                	mov    %edx,%ecx
  30505a:	72 06                	jb     305062 <__moddi3+0x152>
  30505c:	75 0e                	jne    30506c <__moddi3+0x15c>
  30505e:	39 c6                	cmp    %eax,%esi
  305060:	73 0a                	jae    30506c <__moddi3+0x15c>
  305062:	2b 44 24 0c          	sub    0xc(%esp),%eax
  305066:	19 fa                	sbb    %edi,%edx
  305068:	89 d1                	mov    %edx,%ecx
  30506a:	89 c5                	mov    %eax,%ebp
  30506c:	29 ee                	sub    %ebp,%esi
  30506e:	19 cb                	sbb    %ecx,%ebx
  305070:	0f b6 4c 24 1c       	movzbl 0x1c(%esp),%ecx
  305075:	8b 6c 24 18          	mov    0x18(%esp),%ebp
  305079:	89 df                	mov    %ebx,%edi
  30507b:	d3 e7                	shl    %cl,%edi
  30507d:	89 e9                	mov    %ebp,%ecx
  30507f:	d3 ee                	shr    %cl,%esi
  305081:	d3 eb                	shr    %cl,%ebx
  305083:	09 f7                	or     %esi,%edi
  305085:	89 da                	mov    %ebx,%edx
  305087:	89 f8                	mov    %edi,%eax
  305089:	e9 fa fe ff ff       	jmp    304f88 <__moddi3+0x78>
  30508e:	66 90                	xchg   %ax,%ax
  305090:	8b 44 24 14          	mov    0x14(%esp),%eax
  305094:	89 f2                	mov    %esi,%edx
  305096:	2b 44 24 10          	sub    0x10(%esp),%eax
  30509a:	19 fa                	sbb    %edi,%edx
  30509c:	89 54 24 0c          	mov    %edx,0xc(%esp)
  3050a0:	89 44 24 14          	mov    %eax,0x14(%esp)
  3050a4:	e9 19 ff ff ff       	jmp    304fc2 <__moddi3+0xb2>
  3050a9:	66 90                	xchg   %ax,%ax
  3050ab:	66 90                	xchg   %ax,%ax
  3050ad:	66 90                	xchg   %ax,%ax
  3050af:	90                   	nop

003050b0 <__udivdi3>:
  3050b0:	55                   	push   %ebp
  3050b1:	57                   	push   %edi
  3050b2:	56                   	push   %esi
  3050b3:	53                   	push   %ebx
  3050b4:	83 ec 1c             	sub    $0x1c,%esp
  3050b7:	8b 54 24 3c          	mov    0x3c(%esp),%edx
  3050bb:	8b 6c 24 30          	mov    0x30(%esp),%ebp
  3050bf:	8b 74 24 34          	mov    0x34(%esp),%esi
  3050c3:	8b 5c 24 38          	mov    0x38(%esp),%ebx
  3050c7:	85 d2                	test   %edx,%edx
  3050c9:	75 35                	jne    305100 <__udivdi3+0x50>
  3050cb:	39 f3                	cmp    %esi,%ebx
  3050cd:	0f 87 bd 00 00 00    	ja     305190 <__udivdi3+0xe0>
  3050d3:	85 db                	test   %ebx,%ebx
  3050d5:	89 d9                	mov    %ebx,%ecx
  3050d7:	75 0b                	jne    3050e4 <__udivdi3+0x34>
  3050d9:	b8 01 00 00 00       	mov    $0x1,%eax
  3050de:	31 d2                	xor    %edx,%edx
  3050e0:	f7 f3                	div    %ebx
  3050e2:	89 c1                	mov    %eax,%ecx
  3050e4:	31 d2                	xor    %edx,%edx
  3050e6:	89 f0                	mov    %esi,%eax
  3050e8:	f7 f1                	div    %ecx
  3050ea:	89 c6                	mov    %eax,%esi
  3050ec:	89 e8                	mov    %ebp,%eax
  3050ee:	89 f7                	mov    %esi,%edi
  3050f0:	f7 f1                	div    %ecx
  3050f2:	89 fa                	mov    %edi,%edx
  3050f4:	83 c4 1c             	add    $0x1c,%esp
  3050f7:	5b                   	pop    %ebx
  3050f8:	5e                   	pop    %esi
  3050f9:	5f                   	pop    %edi
  3050fa:	5d                   	pop    %ebp
  3050fb:	c3                   	ret    
  3050fc:	8d 74 26 00          	lea    0x0(%esi,%eiz,1),%esi
  305100:	39 f2                	cmp    %esi,%edx
  305102:	77 7c                	ja     305180 <__udivdi3+0xd0>
  305104:	0f bd fa             	bsr    %edx,%edi
  305107:	83 f7 1f             	xor    $0x1f,%edi
  30510a:	0f 84 98 00 00 00    	je     3051a8 <__udivdi3+0xf8>
  305110:	89 f9                	mov    %edi,%ecx
  305112:	b8 20 00 00 00       	mov    $0x20,%eax
  305117:	29 f8                	sub    %edi,%eax
  305119:	d3 e2                	shl    %cl,%edx
  30511b:	89 54 24 08          	mov    %edx,0x8(%esp)
  30511f:	89 c1                	mov    %eax,%ecx
  305121:	89 da                	mov    %ebx,%edx
  305123:	d3 ea                	shr    %cl,%edx
  305125:	8b 4c 24 08          	mov    0x8(%esp),%ecx
  305129:	09 d1                	or     %edx,%ecx
  30512b:	89 f2                	mov    %esi,%edx
  30512d:	89 4c 24 08          	mov    %ecx,0x8(%esp)
  305131:	89 f9                	mov    %edi,%ecx
  305133:	d3 e3                	shl    %cl,%ebx
  305135:	89 c1                	mov    %eax,%ecx
  305137:	d3 ea                	shr    %cl,%edx
  305139:	89 f9                	mov    %edi,%ecx
  30513b:	89 5c 24 0c          	mov    %ebx,0xc(%esp)
  30513f:	d3 e6                	shl    %cl,%esi
  305141:	89 eb                	mov    %ebp,%ebx
  305143:	89 c1                	mov    %eax,%ecx
  305145:	d3 eb                	shr    %cl,%ebx
  305147:	09 de                	or     %ebx,%esi
  305149:	89 f0                	mov    %esi,%eax
  30514b:	f7 74 24 08          	divl   0x8(%esp)
  30514f:	89 d6                	mov    %edx,%esi
  305151:	89 c3                	mov    %eax,%ebx
  305153:	f7 64 24 0c          	mull   0xc(%esp)
  305157:	39 d6                	cmp    %edx,%esi
  305159:	72 0c                	jb     305167 <__udivdi3+0xb7>
  30515b:	89 f9                	mov    %edi,%ecx
  30515d:	d3 e5                	shl    %cl,%ebp
  30515f:	39 c5                	cmp    %eax,%ebp
  305161:	73 5d                	jae    3051c0 <__udivdi3+0x110>
  305163:	39 d6                	cmp    %edx,%esi
  305165:	75 59                	jne    3051c0 <__udivdi3+0x110>
  305167:	8d 43 ff             	lea    -0x1(%ebx),%eax
  30516a:	31 ff                	xor    %edi,%edi
  30516c:	89 fa                	mov    %edi,%edx
  30516e:	83 c4 1c             	add    $0x1c,%esp
  305171:	5b                   	pop    %ebx
  305172:	5e                   	pop    %esi
  305173:	5f                   	pop    %edi
  305174:	5d                   	pop    %ebp
  305175:	c3                   	ret    
  305176:	8d 76 00             	lea    0x0(%esi),%esi
  305179:	8d bc 27 00 00 00 00 	lea    0x0(%edi,%eiz,1),%edi
  305180:	31 ff                	xor    %edi,%edi
  305182:	31 c0                	xor    %eax,%eax
  305184:	89 fa                	mov    %edi,%edx
  305186:	83 c4 1c             	add    $0x1c,%esp
  305189:	5b                   	pop    %ebx
  30518a:	5e                   	pop    %esi
  30518b:	5f                   	pop    %edi
  30518c:	5d                   	pop    %ebp
  30518d:	c3                   	ret    
  30518e:	66 90                	xchg   %ax,%ax
  305190:	31 ff                	xor    %edi,%edi
  305192:	89 e8                	mov    %ebp,%eax
  305194:	89 f2                	mov    %esi,%edx
  305196:	f7 f3                	div    %ebx
  305198:	89 fa                	mov    %edi,%edx
  30519a:	83 c4 1c             	add    $0x1c,%esp
  30519d:	5b                   	pop    %ebx
  30519e:	5e                   	pop    %esi
  30519f:	5f                   	pop    %edi
  3051a0:	5d                   	pop    %ebp
  3051a1:	c3                   	ret    
  3051a2:	8d b6 00 00 00 00    	lea    0x0(%esi),%esi
  3051a8:	39 f2                	cmp    %esi,%edx
  3051aa:	72 06                	jb     3051b2 <__udivdi3+0x102>
  3051ac:	31 c0                	xor    %eax,%eax
  3051ae:	39 eb                	cmp    %ebp,%ebx
  3051b0:	77 d2                	ja     305184 <__udivdi3+0xd4>
  3051b2:	b8 01 00 00 00       	mov    $0x1,%eax
  3051b7:	eb cb                	jmp    305184 <__udivdi3+0xd4>
  3051b9:	8d b4 26 00 00 00 00 	lea    0x0(%esi,%eiz,1),%esi
  3051c0:	89 d8                	mov    %ebx,%eax
  3051c2:	31 ff                	xor    %edi,%edi
  3051c4:	eb be                	jmp    305184 <__udivdi3+0xd4>
  3051c6:	66 90                	xchg   %ax,%ax
  3051c8:	66 90                	xchg   %ax,%ax
  3051ca:	66 90                	xchg   %ax,%ax
  3051cc:	66 90                	xchg   %ax,%ax
  3051ce:	66 90                	xchg   %ax,%ax

003051d0 <__umoddi3>:
  3051d0:	55                   	push   %ebp
  3051d1:	57                   	push   %edi
  3051d2:	56                   	push   %esi
  3051d3:	53                   	push   %ebx
  3051d4:	83 ec 1c             	sub    $0x1c,%esp
  3051d7:	8b 6c 24 3c          	mov    0x3c(%esp),%ebp
  3051db:	8b 74 24 30          	mov    0x30(%esp),%esi
  3051df:	8b 5c 24 34          	mov    0x34(%esp),%ebx
  3051e3:	8b 7c 24 38          	mov    0x38(%esp),%edi
  3051e7:	85 ed                	test   %ebp,%ebp
  3051e9:	89 f0                	mov    %esi,%eax
  3051eb:	89 da                	mov    %ebx,%edx
  3051ed:	75 19                	jne    305208 <__umoddi3+0x38>
  3051ef:	39 df                	cmp    %ebx,%edi
  3051f1:	0f 86 b1 00 00 00    	jbe    3052a8 <__umoddi3+0xd8>
  3051f7:	f7 f7                	div    %edi
  3051f9:	89 d0                	mov    %edx,%eax
  3051fb:	31 d2                	xor    %edx,%edx
  3051fd:	83 c4 1c             	add    $0x1c,%esp
  305200:	5b                   	pop    %ebx
  305201:	5e                   	pop    %esi
  305202:	5f                   	pop    %edi
  305203:	5d                   	pop    %ebp
  305204:	c3                   	ret    
  305205:	8d 76 00             	lea    0x0(%esi),%esi
  305208:	39 dd                	cmp    %ebx,%ebp
  30520a:	77 f1                	ja     3051fd <__umoddi3+0x2d>
  30520c:	0f bd cd             	bsr    %ebp,%ecx
  30520f:	83 f1 1f             	xor    $0x1f,%ecx
  305212:	89 4c 24 04          	mov    %ecx,0x4(%esp)
  305216:	0f 84 b4 00 00 00    	je     3052d0 <__umoddi3+0x100>
  30521c:	b8 20 00 00 00       	mov    $0x20,%eax
  305221:	89 c2                	mov    %eax,%edx
  305223:	8b 44 24 04          	mov    0x4(%esp),%eax
  305227:	29 c2                	sub    %eax,%edx
  305229:	89 c1                	mov    %eax,%ecx
  30522b:	89 f8                	mov    %edi,%eax
  30522d:	d3 e5                	shl    %cl,%ebp
  30522f:	89 d1                	mov    %edx,%ecx
  305231:	89 54 24 0c          	mov    %edx,0xc(%esp)
  305235:	d3 e8                	shr    %cl,%eax
  305237:	09 c5                	or     %eax,%ebp
  305239:	8b 44 24 04          	mov    0x4(%esp),%eax
  30523d:	89 c1                	mov    %eax,%ecx
  30523f:	d3 e7                	shl    %cl,%edi
  305241:	89 d1                	mov    %edx,%ecx
  305243:	89 7c 24 08          	mov    %edi,0x8(%esp)
  305247:	89 df                	mov    %ebx,%edi
  305249:	d3 ef                	shr    %cl,%edi
  30524b:	89 c1                	mov    %eax,%ecx
  30524d:	89 f0                	mov    %esi,%eax
  30524f:	d3 e3                	shl    %cl,%ebx
  305251:	89 d1                	mov    %edx,%ecx
  305253:	89 fa                	mov    %edi,%edx
  305255:	d3 e8                	shr    %cl,%eax
  305257:	0f b6 4c 24 04       	movzbl 0x4(%esp),%ecx
  30525c:	09 d8                	or     %ebx,%eax
  30525e:	f7 f5                	div    %ebp
  305260:	d3 e6                	shl    %cl,%esi
  305262:	89 d1                	mov    %edx,%ecx
  305264:	f7 64 24 08          	mull   0x8(%esp)
  305268:	39 d1                	cmp    %edx,%ecx
  30526a:	89 c3                	mov    %eax,%ebx
  30526c:	89 d7                	mov    %edx,%edi
  30526e:	72 06                	jb     305276 <__umoddi3+0xa6>
  305270:	75 0e                	jne    305280 <__umoddi3+0xb0>
  305272:	39 c6                	cmp    %eax,%esi
  305274:	73 0a                	jae    305280 <__umoddi3+0xb0>
  305276:	2b 44 24 08          	sub    0x8(%esp),%eax
  30527a:	19 ea                	sbb    %ebp,%edx
  30527c:	89 d7                	mov    %edx,%edi
  30527e:	89 c3                	mov    %eax,%ebx
  305280:	89 ca                	mov    %ecx,%edx
  305282:	0f b6 4c 24 0c       	movzbl 0xc(%esp),%ecx
  305287:	29 de                	sub    %ebx,%esi
  305289:	19 fa                	sbb    %edi,%edx
  30528b:	8b 5c 24 04          	mov    0x4(%esp),%ebx
  30528f:	89 d0                	mov    %edx,%eax
  305291:	d3 e0                	shl    %cl,%eax
  305293:	89 d9                	mov    %ebx,%ecx
  305295:	d3 ee                	shr    %cl,%esi
  305297:	d3 ea                	shr    %cl,%edx
  305299:	09 f0                	or     %esi,%eax
  30529b:	83 c4 1c             	add    $0x1c,%esp
  30529e:	5b                   	pop    %ebx
  30529f:	5e                   	pop    %esi
  3052a0:	5f                   	pop    %edi
  3052a1:	5d                   	pop    %ebp
  3052a2:	c3                   	ret    
  3052a3:	90                   	nop
  3052a4:	8d 74 26 00          	lea    0x0(%esi,%eiz,1),%esi
  3052a8:	85 ff                	test   %edi,%edi
  3052aa:	89 f9                	mov    %edi,%ecx
  3052ac:	75 0b                	jne    3052b9 <__umoddi3+0xe9>
  3052ae:	b8 01 00 00 00       	mov    $0x1,%eax
  3052b3:	31 d2                	xor    %edx,%edx
  3052b5:	f7 f7                	div    %edi
  3052b7:	89 c1                	mov    %eax,%ecx
  3052b9:	89 d8                	mov    %ebx,%eax
  3052bb:	31 d2                	xor    %edx,%edx
  3052bd:	f7 f1                	div    %ecx
  3052bf:	89 f0                	mov    %esi,%eax
  3052c1:	f7 f1                	div    %ecx
  3052c3:	e9 31 ff ff ff       	jmp    3051f9 <__umoddi3+0x29>
  3052c8:	90                   	nop
  3052c9:	8d b4 26 00 00 00 00 	lea    0x0(%esi,%eiz,1),%esi
  3052d0:	39 dd                	cmp    %ebx,%ebp
  3052d2:	72 08                	jb     3052dc <__umoddi3+0x10c>
  3052d4:	39 f7                	cmp    %esi,%edi
  3052d6:	0f 87 21 ff ff ff    	ja     3051fd <__umoddi3+0x2d>
  3052dc:	89 da                	mov    %ebx,%edx
  3052de:	89 f0                	mov    %esi,%eax
  3052e0:	29 f8                	sub    %edi,%eax
  3052e2:	19 ea                	sbb    %ebp,%edx
  3052e4:	e9 14 ff ff ff       	jmp    3051fd <__umoddi3+0x2d>

Disassembly of section .user1:

00400000 <user1>:
  400000:	55                   	push   %ebp
  400001:	89 e5                	mov    %esp,%ebp
  400003:	83 ec 08             	sub    $0x8,%esp
  400006:	83 ec 0c             	sub    $0xc,%esp
  400009:	68 bd 58 30 00       	push   $0x3058bd
  40000e:	e8 be 30 f0 ff       	call   3030d1 <printf>
  400013:	83 c4 10             	add    $0x10,%esp
  400016:	90                   	nop
  400017:	c9                   	leave  
  400018:	c3                   	ret    

Disassembly of section .user2:

00800000 <user2>:
  800000:	55                   	push   %ebp
  800001:	89 e5                	mov    %esp,%ebp
  800003:	83 ec 08             	sub    $0x8,%esp
  800006:	83 ec 0c             	sub    $0xc,%esp
  800009:	68 c3 58 30 00       	push   $0x3058c3
  80000e:	e8 be 30 b0 ff       	call   3030d1 <printf>
  800013:	83 c4 10             	add    $0x10,%esp
  800016:	90                   	nop
  800017:	c9                   	leave  
  800018:	c3                   	ret    
