
kernel.elf:     file format elf32-i386


Disassembly of section .mbh:

00300000 <mbh>:
  300000:	02 b0 ad 1b 03 00    	add    0x31bad(%eax),%dh
  300006:	00 00                	add    %al,(%eax)
  300008:	fb                   	sti    
  300009:	4f                   	dec    %edi
  30000a:	52                   	push   %edx
  30000b:	e4                   	.byte 0xe4

Disassembly of section .stack:

00300010 <__kernel_start__-0x2000>:
	...

Disassembly of section .idt_jmp:

00302010 <idt_trampoline>:
  302010:	6a ff                	push   $0xffffffff
  302012:	6a 00                	push   $0x0
  302014:	e9 fe 1e 00 00       	jmp    303f17 <idt_common>
  302019:	8d b4 26 00 00 00 00 	lea    0x0(%esi,%eiz,1),%esi
  302020:	6a ff                	push   $0xffffffff
  302022:	6a 01                	push   $0x1
  302024:	e9 ee 1e 00 00       	jmp    303f17 <idt_common>
  302029:	8d b4 26 00 00 00 00 	lea    0x0(%esi,%eiz,1),%esi
  302030:	6a ff                	push   $0xffffffff
  302032:	6a 02                	push   $0x2
  302034:	e9 de 1e 00 00       	jmp    303f17 <idt_common>
  302039:	8d b4 26 00 00 00 00 	lea    0x0(%esi,%eiz,1),%esi
  302040:	6a ff                	push   $0xffffffff
  302042:	6a 03                	push   $0x3
  302044:	e9 ce 1e 00 00       	jmp    303f17 <idt_common>
  302049:	8d b4 26 00 00 00 00 	lea    0x0(%esi,%eiz,1),%esi
  302050:	6a ff                	push   $0xffffffff
  302052:	6a 04                	push   $0x4
  302054:	e9 be 1e 00 00       	jmp    303f17 <idt_common>
  302059:	8d b4 26 00 00 00 00 	lea    0x0(%esi,%eiz,1),%esi
  302060:	6a ff                	push   $0xffffffff
  302062:	6a 05                	push   $0x5
  302064:	e9 ae 1e 00 00       	jmp    303f17 <idt_common>
  302069:	8d b4 26 00 00 00 00 	lea    0x0(%esi,%eiz,1),%esi
  302070:	6a ff                	push   $0xffffffff
  302072:	6a 06                	push   $0x6
  302074:	e9 9e 1e 00 00       	jmp    303f17 <idt_common>
  302079:	8d b4 26 00 00 00 00 	lea    0x0(%esi,%eiz,1),%esi
  302080:	6a ff                	push   $0xffffffff
  302082:	6a 07                	push   $0x7
  302084:	e9 8e 1e 00 00       	jmp    303f17 <idt_common>
  302089:	8d b4 26 00 00 00 00 	lea    0x0(%esi,%eiz,1),%esi
  302090:	6a 08                	push   $0x8
  302092:	e9 80 1e 00 00       	jmp    303f17 <idt_common>
  302097:	89 f6                	mov    %esi,%esi
  302099:	8d bc 27 00 00 00 00 	lea    0x0(%edi,%eiz,1),%edi
  3020a0:	6a ff                	push   $0xffffffff
  3020a2:	6a 09                	push   $0x9
  3020a4:	e9 6e 1e 00 00       	jmp    303f17 <idt_common>
  3020a9:	8d b4 26 00 00 00 00 	lea    0x0(%esi,%eiz,1),%esi
  3020b0:	6a 0a                	push   $0xa
  3020b2:	e9 60 1e 00 00       	jmp    303f17 <idt_common>
  3020b7:	89 f6                	mov    %esi,%esi
  3020b9:	8d bc 27 00 00 00 00 	lea    0x0(%edi,%eiz,1),%edi
  3020c0:	6a 0b                	push   $0xb
  3020c2:	e9 50 1e 00 00       	jmp    303f17 <idt_common>
  3020c7:	89 f6                	mov    %esi,%esi
  3020c9:	8d bc 27 00 00 00 00 	lea    0x0(%edi,%eiz,1),%edi
  3020d0:	6a 0c                	push   $0xc
  3020d2:	e9 40 1e 00 00       	jmp    303f17 <idt_common>
  3020d7:	89 f6                	mov    %esi,%esi
  3020d9:	8d bc 27 00 00 00 00 	lea    0x0(%edi,%eiz,1),%edi
  3020e0:	6a 0d                	push   $0xd
  3020e2:	e9 30 1e 00 00       	jmp    303f17 <idt_common>
  3020e7:	89 f6                	mov    %esi,%esi
  3020e9:	8d bc 27 00 00 00 00 	lea    0x0(%edi,%eiz,1),%edi
  3020f0:	6a 0e                	push   $0xe
  3020f2:	e9 20 1e 00 00       	jmp    303f17 <idt_common>
  3020f7:	89 f6                	mov    %esi,%esi
  3020f9:	8d bc 27 00 00 00 00 	lea    0x0(%edi,%eiz,1),%edi
  302100:	6a ff                	push   $0xffffffff
  302102:	6a 0f                	push   $0xf
  302104:	e9 0e 1e 00 00       	jmp    303f17 <idt_common>
  302109:	8d b4 26 00 00 00 00 	lea    0x0(%esi,%eiz,1),%esi
  302110:	6a ff                	push   $0xffffffff
  302112:	6a 10                	push   $0x10
  302114:	e9 fe 1d 00 00       	jmp    303f17 <idt_common>
  302119:	8d b4 26 00 00 00 00 	lea    0x0(%esi,%eiz,1),%esi
  302120:	6a 11                	push   $0x11
  302122:	e9 f0 1d 00 00       	jmp    303f17 <idt_common>
  302127:	89 f6                	mov    %esi,%esi
  302129:	8d bc 27 00 00 00 00 	lea    0x0(%edi,%eiz,1),%edi
  302130:	6a ff                	push   $0xffffffff
  302132:	6a 12                	push   $0x12
  302134:	e9 de 1d 00 00       	jmp    303f17 <idt_common>
  302139:	8d b4 26 00 00 00 00 	lea    0x0(%esi,%eiz,1),%esi
  302140:	6a ff                	push   $0xffffffff
  302142:	6a 13                	push   $0x13
  302144:	e9 ce 1d 00 00       	jmp    303f17 <idt_common>
  302149:	8d b4 26 00 00 00 00 	lea    0x0(%esi,%eiz,1),%esi
  302150:	cf                   	iret   
  302151:	eb 0d                	jmp    302160 <idt_trampoline+0x150>
  302153:	90                   	nop
  302154:	90                   	nop
  302155:	90                   	nop
  302156:	90                   	nop
  302157:	90                   	nop
  302158:	90                   	nop
  302159:	90                   	nop
  30215a:	90                   	nop
  30215b:	90                   	nop
  30215c:	90                   	nop
  30215d:	90                   	nop
  30215e:	90                   	nop
  30215f:	90                   	nop
  302160:	cf                   	iret   
  302161:	eb 0d                	jmp    302170 <idt_trampoline+0x160>
  302163:	90                   	nop
  302164:	90                   	nop
  302165:	90                   	nop
  302166:	90                   	nop
  302167:	90                   	nop
  302168:	90                   	nop
  302169:	90                   	nop
  30216a:	90                   	nop
  30216b:	90                   	nop
  30216c:	90                   	nop
  30216d:	90                   	nop
  30216e:	90                   	nop
  30216f:	90                   	nop
  302170:	cf                   	iret   
  302171:	eb 0d                	jmp    302180 <idt_trampoline+0x170>
  302173:	90                   	nop
  302174:	90                   	nop
  302175:	90                   	nop
  302176:	90                   	nop
  302177:	90                   	nop
  302178:	90                   	nop
  302179:	90                   	nop
  30217a:	90                   	nop
  30217b:	90                   	nop
  30217c:	90                   	nop
  30217d:	90                   	nop
  30217e:	90                   	nop
  30217f:	90                   	nop
  302180:	cf                   	iret   
  302181:	eb 0d                	jmp    302190 <idt_trampoline+0x180>
  302183:	90                   	nop
  302184:	90                   	nop
  302185:	90                   	nop
  302186:	90                   	nop
  302187:	90                   	nop
  302188:	90                   	nop
  302189:	90                   	nop
  30218a:	90                   	nop
  30218b:	90                   	nop
  30218c:	90                   	nop
  30218d:	90                   	nop
  30218e:	90                   	nop
  30218f:	90                   	nop
  302190:	cf                   	iret   
  302191:	eb 0d                	jmp    3021a0 <idt_trampoline+0x190>
  302193:	90                   	nop
  302194:	90                   	nop
  302195:	90                   	nop
  302196:	90                   	nop
  302197:	90                   	nop
  302198:	90                   	nop
  302199:	90                   	nop
  30219a:	90                   	nop
  30219b:	90                   	nop
  30219c:	90                   	nop
  30219d:	90                   	nop
  30219e:	90                   	nop
  30219f:	90                   	nop
  3021a0:	cf                   	iret   
  3021a1:	eb 0d                	jmp    3021b0 <idt_trampoline+0x1a0>
  3021a3:	90                   	nop
  3021a4:	90                   	nop
  3021a5:	90                   	nop
  3021a6:	90                   	nop
  3021a7:	90                   	nop
  3021a8:	90                   	nop
  3021a9:	90                   	nop
  3021aa:	90                   	nop
  3021ab:	90                   	nop
  3021ac:	90                   	nop
  3021ad:	90                   	nop
  3021ae:	90                   	nop
  3021af:	90                   	nop
  3021b0:	cf                   	iret   
  3021b1:	eb 0d                	jmp    3021c0 <idt_trampoline+0x1b0>
  3021b3:	90                   	nop
  3021b4:	90                   	nop
  3021b5:	90                   	nop
  3021b6:	90                   	nop
  3021b7:	90                   	nop
  3021b8:	90                   	nop
  3021b9:	90                   	nop
  3021ba:	90                   	nop
  3021bb:	90                   	nop
  3021bc:	90                   	nop
  3021bd:	90                   	nop
  3021be:	90                   	nop
  3021bf:	90                   	nop
  3021c0:	cf                   	iret   
  3021c1:	eb 0d                	jmp    3021d0 <idt_trampoline+0x1c0>
  3021c3:	90                   	nop
  3021c4:	90                   	nop
  3021c5:	90                   	nop
  3021c6:	90                   	nop
  3021c7:	90                   	nop
  3021c8:	90                   	nop
  3021c9:	90                   	nop
  3021ca:	90                   	nop
  3021cb:	90                   	nop
  3021cc:	90                   	nop
  3021cd:	90                   	nop
  3021ce:	90                   	nop
  3021cf:	90                   	nop
  3021d0:	cf                   	iret   
  3021d1:	eb 0d                	jmp    3021e0 <idt_trampoline+0x1d0>
  3021d3:	90                   	nop
  3021d4:	90                   	nop
  3021d5:	90                   	nop
  3021d6:	90                   	nop
  3021d7:	90                   	nop
  3021d8:	90                   	nop
  3021d9:	90                   	nop
  3021da:	90                   	nop
  3021db:	90                   	nop
  3021dc:	90                   	nop
  3021dd:	90                   	nop
  3021de:	90                   	nop
  3021df:	90                   	nop
  3021e0:	cf                   	iret   
  3021e1:	eb 0d                	jmp    3021f0 <idt_trampoline+0x1e0>
  3021e3:	90                   	nop
  3021e4:	90                   	nop
  3021e5:	90                   	nop
  3021e6:	90                   	nop
  3021e7:	90                   	nop
  3021e8:	90                   	nop
  3021e9:	90                   	nop
  3021ea:	90                   	nop
  3021eb:	90                   	nop
  3021ec:	90                   	nop
  3021ed:	90                   	nop
  3021ee:	90                   	nop
  3021ef:	90                   	nop
  3021f0:	cf                   	iret   
  3021f1:	eb 0d                	jmp    302200 <idt_trampoline+0x1f0>
  3021f3:	90                   	nop
  3021f4:	90                   	nop
  3021f5:	90                   	nop
  3021f6:	90                   	nop
  3021f7:	90                   	nop
  3021f8:	90                   	nop
  3021f9:	90                   	nop
  3021fa:	90                   	nop
  3021fb:	90                   	nop
  3021fc:	90                   	nop
  3021fd:	90                   	nop
  3021fe:	90                   	nop
  3021ff:	90                   	nop
  302200:	cf                   	iret   
  302201:	eb 0d                	jmp    302210 <idt_trampoline+0x200>
  302203:	90                   	nop
  302204:	90                   	nop
  302205:	90                   	nop
  302206:	90                   	nop
  302207:	90                   	nop
  302208:	90                   	nop
  302209:	90                   	nop
  30220a:	90                   	nop
  30220b:	90                   	nop
  30220c:	90                   	nop
  30220d:	90                   	nop
  30220e:	90                   	nop
  30220f:	90                   	nop
  302210:	6a ff                	push   $0xffffffff
  302212:	6a 20                	push   $0x20
  302214:	e9 f8 1c 00 00       	jmp    303f11 <ack_pic1>
  302219:	8d b4 26 00 00 00 00 	lea    0x0(%esi,%eiz,1),%esi
  302220:	6a ff                	push   $0xffffffff
  302222:	6a 21                	push   $0x21
  302224:	e9 e8 1c 00 00       	jmp    303f11 <ack_pic1>
  302229:	8d b4 26 00 00 00 00 	lea    0x0(%esi,%eiz,1),%esi
  302230:	6a ff                	push   $0xffffffff
  302232:	6a 22                	push   $0x22
  302234:	e9 d8 1c 00 00       	jmp    303f11 <ack_pic1>
  302239:	8d b4 26 00 00 00 00 	lea    0x0(%esi,%eiz,1),%esi
  302240:	6a ff                	push   $0xffffffff
  302242:	6a 23                	push   $0x23
  302244:	e9 c8 1c 00 00       	jmp    303f11 <ack_pic1>
  302249:	8d b4 26 00 00 00 00 	lea    0x0(%esi,%eiz,1),%esi
  302250:	6a ff                	push   $0xffffffff
  302252:	6a 24                	push   $0x24
  302254:	e9 b8 1c 00 00       	jmp    303f11 <ack_pic1>
  302259:	8d b4 26 00 00 00 00 	lea    0x0(%esi,%eiz,1),%esi
  302260:	6a ff                	push   $0xffffffff
  302262:	6a 25                	push   $0x25
  302264:	e9 a8 1c 00 00       	jmp    303f11 <ack_pic1>
  302269:	8d b4 26 00 00 00 00 	lea    0x0(%esi,%eiz,1),%esi
  302270:	6a ff                	push   $0xffffffff
  302272:	6a 26                	push   $0x26
  302274:	e9 98 1c 00 00       	jmp    303f11 <ack_pic1>
  302279:	8d b4 26 00 00 00 00 	lea    0x0(%esi,%eiz,1),%esi
  302280:	6a ff                	push   $0xffffffff
  302282:	6a 27                	push   $0x27
  302284:	e9 88 1c 00 00       	jmp    303f11 <ack_pic1>
  302289:	8d b4 26 00 00 00 00 	lea    0x0(%esi,%eiz,1),%esi
  302290:	6a ff                	push   $0xffffffff
  302292:	6a 28                	push   $0x28
  302294:	e9 71 1c 00 00       	jmp    303f0a <ack_pic2>
  302299:	8d b4 26 00 00 00 00 	lea    0x0(%esi,%eiz,1),%esi
  3022a0:	6a ff                	push   $0xffffffff
  3022a2:	6a 29                	push   $0x29
  3022a4:	e9 61 1c 00 00       	jmp    303f0a <ack_pic2>
  3022a9:	8d b4 26 00 00 00 00 	lea    0x0(%esi,%eiz,1),%esi
  3022b0:	6a ff                	push   $0xffffffff
  3022b2:	6a 2a                	push   $0x2a
  3022b4:	e9 51 1c 00 00       	jmp    303f0a <ack_pic2>
  3022b9:	8d b4 26 00 00 00 00 	lea    0x0(%esi,%eiz,1),%esi
  3022c0:	6a ff                	push   $0xffffffff
  3022c2:	6a 2b                	push   $0x2b
  3022c4:	e9 41 1c 00 00       	jmp    303f0a <ack_pic2>
  3022c9:	8d b4 26 00 00 00 00 	lea    0x0(%esi,%eiz,1),%esi
  3022d0:	6a ff                	push   $0xffffffff
  3022d2:	6a 2c                	push   $0x2c
  3022d4:	e9 31 1c 00 00       	jmp    303f0a <ack_pic2>
  3022d9:	8d b4 26 00 00 00 00 	lea    0x0(%esi,%eiz,1),%esi
  3022e0:	6a ff                	push   $0xffffffff
  3022e2:	6a 2d                	push   $0x2d
  3022e4:	e9 21 1c 00 00       	jmp    303f0a <ack_pic2>
  3022e9:	8d b4 26 00 00 00 00 	lea    0x0(%esi,%eiz,1),%esi
  3022f0:	6a ff                	push   $0xffffffff
  3022f2:	6a 2e                	push   $0x2e
  3022f4:	e9 11 1c 00 00       	jmp    303f0a <ack_pic2>
  3022f9:	8d b4 26 00 00 00 00 	lea    0x0(%esi,%eiz,1),%esi
  302300:	6a ff                	push   $0xffffffff
  302302:	6a 2f                	push   $0x2f
  302304:	e9 01 1c 00 00       	jmp    303f0a <ack_pic2>
  302309:	8d b4 26 00 00 00 00 	lea    0x0(%esi,%eiz,1),%esi
  302310:	6a ff                	push   $0xffffffff
  302312:	6a 30                	push   $0x30
  302314:	e9 fe 1b 00 00       	jmp    303f17 <idt_common>
  302319:	8d b4 26 00 00 00 00 	lea    0x0(%esi,%eiz,1),%esi
  302320:	6a ff                	push   $0xffffffff
  302322:	6a 31                	push   $0x31
  302324:	e9 ee 1b 00 00       	jmp    303f17 <idt_common>
  302329:	8d b4 26 00 00 00 00 	lea    0x0(%esi,%eiz,1),%esi
  302330:	6a ff                	push   $0xffffffff
  302332:	6a 32                	push   $0x32
  302334:	e9 de 1b 00 00       	jmp    303f17 <idt_common>
  302339:	8d b4 26 00 00 00 00 	lea    0x0(%esi,%eiz,1),%esi
  302340:	6a ff                	push   $0xffffffff
  302342:	6a 33                	push   $0x33
  302344:	e9 ce 1b 00 00       	jmp    303f17 <idt_common>
  302349:	8d b4 26 00 00 00 00 	lea    0x0(%esi,%eiz,1),%esi
  302350:	6a ff                	push   $0xffffffff
  302352:	6a 34                	push   $0x34
  302354:	e9 be 1b 00 00       	jmp    303f17 <idt_common>
  302359:	8d b4 26 00 00 00 00 	lea    0x0(%esi,%eiz,1),%esi
  302360:	6a ff                	push   $0xffffffff
  302362:	6a 35                	push   $0x35
  302364:	e9 ae 1b 00 00       	jmp    303f17 <idt_common>
  302369:	8d b4 26 00 00 00 00 	lea    0x0(%esi,%eiz,1),%esi
  302370:	6a ff                	push   $0xffffffff
  302372:	6a 36                	push   $0x36
  302374:	e9 9e 1b 00 00       	jmp    303f17 <idt_common>
  302379:	8d b4 26 00 00 00 00 	lea    0x0(%esi,%eiz,1),%esi
  302380:	6a ff                	push   $0xffffffff
  302382:	6a 37                	push   $0x37
  302384:	e9 8e 1b 00 00       	jmp    303f17 <idt_common>
  302389:	8d b4 26 00 00 00 00 	lea    0x0(%esi,%eiz,1),%esi
  302390:	6a ff                	push   $0xffffffff
  302392:	6a 38                	push   $0x38
  302394:	e9 7e 1b 00 00       	jmp    303f17 <idt_common>
  302399:	8d b4 26 00 00 00 00 	lea    0x0(%esi,%eiz,1),%esi
  3023a0:	6a ff                	push   $0xffffffff
  3023a2:	6a 39                	push   $0x39
  3023a4:	e9 6e 1b 00 00       	jmp    303f17 <idt_common>
  3023a9:	8d b4 26 00 00 00 00 	lea    0x0(%esi,%eiz,1),%esi
  3023b0:	6a ff                	push   $0xffffffff
  3023b2:	6a 3a                	push   $0x3a
  3023b4:	e9 5e 1b 00 00       	jmp    303f17 <idt_common>
  3023b9:	8d b4 26 00 00 00 00 	lea    0x0(%esi,%eiz,1),%esi
  3023c0:	6a ff                	push   $0xffffffff
  3023c2:	6a 3b                	push   $0x3b
  3023c4:	e9 4e 1b 00 00       	jmp    303f17 <idt_common>
  3023c9:	8d b4 26 00 00 00 00 	lea    0x0(%esi,%eiz,1),%esi
  3023d0:	6a ff                	push   $0xffffffff
  3023d2:	6a 3c                	push   $0x3c
  3023d4:	e9 3e 1b 00 00       	jmp    303f17 <idt_common>
  3023d9:	8d b4 26 00 00 00 00 	lea    0x0(%esi,%eiz,1),%esi
  3023e0:	6a ff                	push   $0xffffffff
  3023e2:	6a 3d                	push   $0x3d
  3023e4:	e9 2e 1b 00 00       	jmp    303f17 <idt_common>
  3023e9:	8d b4 26 00 00 00 00 	lea    0x0(%esi,%eiz,1),%esi
  3023f0:	6a ff                	push   $0xffffffff
  3023f2:	6a 3e                	push   $0x3e
  3023f4:	e9 1e 1b 00 00       	jmp    303f17 <idt_common>
  3023f9:	8d b4 26 00 00 00 00 	lea    0x0(%esi,%eiz,1),%esi
  302400:	6a ff                	push   $0xffffffff
  302402:	6a 3f                	push   $0x3f
  302404:	e9 0e 1b 00 00       	jmp    303f17 <idt_common>
  302409:	8d b4 26 00 00 00 00 	lea    0x0(%esi,%eiz,1),%esi
  302410:	6a ff                	push   $0xffffffff
  302412:	6a 40                	push   $0x40
  302414:	e9 fe 1a 00 00       	jmp    303f17 <idt_common>
  302419:	8d b4 26 00 00 00 00 	lea    0x0(%esi,%eiz,1),%esi
  302420:	6a ff                	push   $0xffffffff
  302422:	6a 41                	push   $0x41
  302424:	e9 ee 1a 00 00       	jmp    303f17 <idt_common>
  302429:	8d b4 26 00 00 00 00 	lea    0x0(%esi,%eiz,1),%esi
  302430:	6a ff                	push   $0xffffffff
  302432:	6a 42                	push   $0x42
  302434:	e9 de 1a 00 00       	jmp    303f17 <idt_common>
  302439:	8d b4 26 00 00 00 00 	lea    0x0(%esi,%eiz,1),%esi
  302440:	6a ff                	push   $0xffffffff
  302442:	6a 43                	push   $0x43
  302444:	e9 ce 1a 00 00       	jmp    303f17 <idt_common>
  302449:	8d b4 26 00 00 00 00 	lea    0x0(%esi,%eiz,1),%esi
  302450:	6a ff                	push   $0xffffffff
  302452:	6a 44                	push   $0x44
  302454:	e9 be 1a 00 00       	jmp    303f17 <idt_common>
  302459:	8d b4 26 00 00 00 00 	lea    0x0(%esi,%eiz,1),%esi
  302460:	6a ff                	push   $0xffffffff
  302462:	6a 45                	push   $0x45
  302464:	e9 ae 1a 00 00       	jmp    303f17 <idt_common>
  302469:	8d b4 26 00 00 00 00 	lea    0x0(%esi,%eiz,1),%esi
  302470:	6a ff                	push   $0xffffffff
  302472:	6a 46                	push   $0x46
  302474:	e9 9e 1a 00 00       	jmp    303f17 <idt_common>
  302479:	8d b4 26 00 00 00 00 	lea    0x0(%esi,%eiz,1),%esi
  302480:	6a ff                	push   $0xffffffff
  302482:	6a 47                	push   $0x47
  302484:	e9 8e 1a 00 00       	jmp    303f17 <idt_common>
  302489:	8d b4 26 00 00 00 00 	lea    0x0(%esi,%eiz,1),%esi
  302490:	6a ff                	push   $0xffffffff
  302492:	6a 48                	push   $0x48
  302494:	e9 7e 1a 00 00       	jmp    303f17 <idt_common>
  302499:	8d b4 26 00 00 00 00 	lea    0x0(%esi,%eiz,1),%esi
  3024a0:	6a ff                	push   $0xffffffff
  3024a2:	6a 49                	push   $0x49
  3024a4:	e9 6e 1a 00 00       	jmp    303f17 <idt_common>
  3024a9:	8d b4 26 00 00 00 00 	lea    0x0(%esi,%eiz,1),%esi
  3024b0:	6a ff                	push   $0xffffffff
  3024b2:	6a 4a                	push   $0x4a
  3024b4:	e9 5e 1a 00 00       	jmp    303f17 <idt_common>
  3024b9:	8d b4 26 00 00 00 00 	lea    0x0(%esi,%eiz,1),%esi
  3024c0:	6a ff                	push   $0xffffffff
  3024c2:	6a 4b                	push   $0x4b
  3024c4:	e9 4e 1a 00 00       	jmp    303f17 <idt_common>
  3024c9:	8d b4 26 00 00 00 00 	lea    0x0(%esi,%eiz,1),%esi
  3024d0:	6a ff                	push   $0xffffffff
  3024d2:	6a 4c                	push   $0x4c
  3024d4:	e9 3e 1a 00 00       	jmp    303f17 <idt_common>
  3024d9:	8d b4 26 00 00 00 00 	lea    0x0(%esi,%eiz,1),%esi
  3024e0:	6a ff                	push   $0xffffffff
  3024e2:	6a 4d                	push   $0x4d
  3024e4:	e9 2e 1a 00 00       	jmp    303f17 <idt_common>
  3024e9:	8d b4 26 00 00 00 00 	lea    0x0(%esi,%eiz,1),%esi
  3024f0:	6a ff                	push   $0xffffffff
  3024f2:	6a 4e                	push   $0x4e
  3024f4:	e9 1e 1a 00 00       	jmp    303f17 <idt_common>
  3024f9:	8d b4 26 00 00 00 00 	lea    0x0(%esi,%eiz,1),%esi
  302500:	6a ff                	push   $0xffffffff
  302502:	6a 4f                	push   $0x4f
  302504:	e9 0e 1a 00 00       	jmp    303f17 <idt_common>
  302509:	8d b4 26 00 00 00 00 	lea    0x0(%esi,%eiz,1),%esi
  302510:	6a ff                	push   $0xffffffff
  302512:	6a 50                	push   $0x50
  302514:	e9 fe 19 00 00       	jmp    303f17 <idt_common>
  302519:	8d b4 26 00 00 00 00 	lea    0x0(%esi,%eiz,1),%esi
  302520:	6a ff                	push   $0xffffffff
  302522:	6a 51                	push   $0x51
  302524:	e9 ee 19 00 00       	jmp    303f17 <idt_common>
  302529:	8d b4 26 00 00 00 00 	lea    0x0(%esi,%eiz,1),%esi
  302530:	6a ff                	push   $0xffffffff
  302532:	6a 52                	push   $0x52
  302534:	e9 de 19 00 00       	jmp    303f17 <idt_common>
  302539:	8d b4 26 00 00 00 00 	lea    0x0(%esi,%eiz,1),%esi
  302540:	6a ff                	push   $0xffffffff
  302542:	6a 53                	push   $0x53
  302544:	e9 ce 19 00 00       	jmp    303f17 <idt_common>
  302549:	8d b4 26 00 00 00 00 	lea    0x0(%esi,%eiz,1),%esi
  302550:	6a ff                	push   $0xffffffff
  302552:	6a 54                	push   $0x54
  302554:	e9 be 19 00 00       	jmp    303f17 <idt_common>
  302559:	8d b4 26 00 00 00 00 	lea    0x0(%esi,%eiz,1),%esi
  302560:	6a ff                	push   $0xffffffff
  302562:	6a 55                	push   $0x55
  302564:	e9 ae 19 00 00       	jmp    303f17 <idt_common>
  302569:	8d b4 26 00 00 00 00 	lea    0x0(%esi,%eiz,1),%esi
  302570:	6a ff                	push   $0xffffffff
  302572:	6a 56                	push   $0x56
  302574:	e9 9e 19 00 00       	jmp    303f17 <idt_common>
  302579:	8d b4 26 00 00 00 00 	lea    0x0(%esi,%eiz,1),%esi
  302580:	6a ff                	push   $0xffffffff
  302582:	6a 57                	push   $0x57
  302584:	e9 8e 19 00 00       	jmp    303f17 <idt_common>
  302589:	8d b4 26 00 00 00 00 	lea    0x0(%esi,%eiz,1),%esi
  302590:	6a ff                	push   $0xffffffff
  302592:	6a 58                	push   $0x58
  302594:	e9 7e 19 00 00       	jmp    303f17 <idt_common>
  302599:	8d b4 26 00 00 00 00 	lea    0x0(%esi,%eiz,1),%esi
  3025a0:	6a ff                	push   $0xffffffff
  3025a2:	6a 59                	push   $0x59
  3025a4:	e9 6e 19 00 00       	jmp    303f17 <idt_common>
  3025a9:	8d b4 26 00 00 00 00 	lea    0x0(%esi,%eiz,1),%esi
  3025b0:	6a ff                	push   $0xffffffff
  3025b2:	6a 5a                	push   $0x5a
  3025b4:	e9 5e 19 00 00       	jmp    303f17 <idt_common>
  3025b9:	8d b4 26 00 00 00 00 	lea    0x0(%esi,%eiz,1),%esi
  3025c0:	6a ff                	push   $0xffffffff
  3025c2:	6a 5b                	push   $0x5b
  3025c4:	e9 4e 19 00 00       	jmp    303f17 <idt_common>
  3025c9:	8d b4 26 00 00 00 00 	lea    0x0(%esi,%eiz,1),%esi
  3025d0:	6a ff                	push   $0xffffffff
  3025d2:	6a 5c                	push   $0x5c
  3025d4:	e9 3e 19 00 00       	jmp    303f17 <idt_common>
  3025d9:	8d b4 26 00 00 00 00 	lea    0x0(%esi,%eiz,1),%esi
  3025e0:	6a ff                	push   $0xffffffff
  3025e2:	6a 5d                	push   $0x5d
  3025e4:	e9 2e 19 00 00       	jmp    303f17 <idt_common>
  3025e9:	8d b4 26 00 00 00 00 	lea    0x0(%esi,%eiz,1),%esi
  3025f0:	6a ff                	push   $0xffffffff
  3025f2:	6a 5e                	push   $0x5e
  3025f4:	e9 1e 19 00 00       	jmp    303f17 <idt_common>
  3025f9:	8d b4 26 00 00 00 00 	lea    0x0(%esi,%eiz,1),%esi
  302600:	6a ff                	push   $0xffffffff
  302602:	6a 5f                	push   $0x5f
  302604:	e9 0e 19 00 00       	jmp    303f17 <idt_common>
  302609:	8d b4 26 00 00 00 00 	lea    0x0(%esi,%eiz,1),%esi
  302610:	6a ff                	push   $0xffffffff
  302612:	6a 60                	push   $0x60
  302614:	e9 fe 18 00 00       	jmp    303f17 <idt_common>
  302619:	8d b4 26 00 00 00 00 	lea    0x0(%esi,%eiz,1),%esi
  302620:	6a ff                	push   $0xffffffff
  302622:	6a 61                	push   $0x61
  302624:	e9 ee 18 00 00       	jmp    303f17 <idt_common>
  302629:	8d b4 26 00 00 00 00 	lea    0x0(%esi,%eiz,1),%esi
  302630:	6a ff                	push   $0xffffffff
  302632:	6a 62                	push   $0x62
  302634:	e9 de 18 00 00       	jmp    303f17 <idt_common>
  302639:	8d b4 26 00 00 00 00 	lea    0x0(%esi,%eiz,1),%esi
  302640:	6a ff                	push   $0xffffffff
  302642:	6a 63                	push   $0x63
  302644:	e9 ce 18 00 00       	jmp    303f17 <idt_common>
  302649:	8d b4 26 00 00 00 00 	lea    0x0(%esi,%eiz,1),%esi
  302650:	6a ff                	push   $0xffffffff
  302652:	6a 64                	push   $0x64
  302654:	e9 be 18 00 00       	jmp    303f17 <idt_common>
  302659:	8d b4 26 00 00 00 00 	lea    0x0(%esi,%eiz,1),%esi
  302660:	6a ff                	push   $0xffffffff
  302662:	6a 65                	push   $0x65
  302664:	e9 ae 18 00 00       	jmp    303f17 <idt_common>
  302669:	8d b4 26 00 00 00 00 	lea    0x0(%esi,%eiz,1),%esi
  302670:	6a ff                	push   $0xffffffff
  302672:	6a 66                	push   $0x66
  302674:	e9 9e 18 00 00       	jmp    303f17 <idt_common>
  302679:	8d b4 26 00 00 00 00 	lea    0x0(%esi,%eiz,1),%esi
  302680:	6a ff                	push   $0xffffffff
  302682:	6a 67                	push   $0x67
  302684:	e9 8e 18 00 00       	jmp    303f17 <idt_common>
  302689:	8d b4 26 00 00 00 00 	lea    0x0(%esi,%eiz,1),%esi
  302690:	6a ff                	push   $0xffffffff
  302692:	6a 68                	push   $0x68
  302694:	e9 7e 18 00 00       	jmp    303f17 <idt_common>
  302699:	8d b4 26 00 00 00 00 	lea    0x0(%esi,%eiz,1),%esi
  3026a0:	6a ff                	push   $0xffffffff
  3026a2:	6a 69                	push   $0x69
  3026a4:	e9 6e 18 00 00       	jmp    303f17 <idt_common>
  3026a9:	8d b4 26 00 00 00 00 	lea    0x0(%esi,%eiz,1),%esi
  3026b0:	6a ff                	push   $0xffffffff
  3026b2:	6a 6a                	push   $0x6a
  3026b4:	e9 5e 18 00 00       	jmp    303f17 <idt_common>
  3026b9:	8d b4 26 00 00 00 00 	lea    0x0(%esi,%eiz,1),%esi
  3026c0:	6a ff                	push   $0xffffffff
  3026c2:	6a 6b                	push   $0x6b
  3026c4:	e9 4e 18 00 00       	jmp    303f17 <idt_common>
  3026c9:	8d b4 26 00 00 00 00 	lea    0x0(%esi,%eiz,1),%esi
  3026d0:	6a ff                	push   $0xffffffff
  3026d2:	6a 6c                	push   $0x6c
  3026d4:	e9 3e 18 00 00       	jmp    303f17 <idt_common>
  3026d9:	8d b4 26 00 00 00 00 	lea    0x0(%esi,%eiz,1),%esi
  3026e0:	6a ff                	push   $0xffffffff
  3026e2:	6a 6d                	push   $0x6d
  3026e4:	e9 2e 18 00 00       	jmp    303f17 <idt_common>
  3026e9:	8d b4 26 00 00 00 00 	lea    0x0(%esi,%eiz,1),%esi
  3026f0:	6a ff                	push   $0xffffffff
  3026f2:	6a 6e                	push   $0x6e
  3026f4:	e9 1e 18 00 00       	jmp    303f17 <idt_common>
  3026f9:	8d b4 26 00 00 00 00 	lea    0x0(%esi,%eiz,1),%esi
  302700:	6a ff                	push   $0xffffffff
  302702:	6a 6f                	push   $0x6f
  302704:	e9 0e 18 00 00       	jmp    303f17 <idt_common>
  302709:	8d b4 26 00 00 00 00 	lea    0x0(%esi,%eiz,1),%esi
  302710:	6a ff                	push   $0xffffffff
  302712:	6a 70                	push   $0x70
  302714:	e9 fe 17 00 00       	jmp    303f17 <idt_common>
  302719:	8d b4 26 00 00 00 00 	lea    0x0(%esi,%eiz,1),%esi
  302720:	6a ff                	push   $0xffffffff
  302722:	6a 71                	push   $0x71
  302724:	e9 ee 17 00 00       	jmp    303f17 <idt_common>
  302729:	8d b4 26 00 00 00 00 	lea    0x0(%esi,%eiz,1),%esi
  302730:	6a ff                	push   $0xffffffff
  302732:	6a 72                	push   $0x72
  302734:	e9 de 17 00 00       	jmp    303f17 <idt_common>
  302739:	8d b4 26 00 00 00 00 	lea    0x0(%esi,%eiz,1),%esi
  302740:	6a ff                	push   $0xffffffff
  302742:	6a 73                	push   $0x73
  302744:	e9 ce 17 00 00       	jmp    303f17 <idt_common>
  302749:	8d b4 26 00 00 00 00 	lea    0x0(%esi,%eiz,1),%esi
  302750:	6a ff                	push   $0xffffffff
  302752:	6a 74                	push   $0x74
  302754:	e9 be 17 00 00       	jmp    303f17 <idt_common>
  302759:	8d b4 26 00 00 00 00 	lea    0x0(%esi,%eiz,1),%esi
  302760:	6a ff                	push   $0xffffffff
  302762:	6a 75                	push   $0x75
  302764:	e9 ae 17 00 00       	jmp    303f17 <idt_common>
  302769:	8d b4 26 00 00 00 00 	lea    0x0(%esi,%eiz,1),%esi
  302770:	6a ff                	push   $0xffffffff
  302772:	6a 76                	push   $0x76
  302774:	e9 9e 17 00 00       	jmp    303f17 <idt_common>
  302779:	8d b4 26 00 00 00 00 	lea    0x0(%esi,%eiz,1),%esi
  302780:	6a ff                	push   $0xffffffff
  302782:	6a 77                	push   $0x77
  302784:	e9 8e 17 00 00       	jmp    303f17 <idt_common>
  302789:	8d b4 26 00 00 00 00 	lea    0x0(%esi,%eiz,1),%esi
  302790:	6a ff                	push   $0xffffffff
  302792:	6a 78                	push   $0x78
  302794:	e9 7e 17 00 00       	jmp    303f17 <idt_common>
  302799:	8d b4 26 00 00 00 00 	lea    0x0(%esi,%eiz,1),%esi
  3027a0:	6a ff                	push   $0xffffffff
  3027a2:	6a 79                	push   $0x79
  3027a4:	e9 6e 17 00 00       	jmp    303f17 <idt_common>
  3027a9:	8d b4 26 00 00 00 00 	lea    0x0(%esi,%eiz,1),%esi
  3027b0:	6a ff                	push   $0xffffffff
  3027b2:	6a 7a                	push   $0x7a
  3027b4:	e9 5e 17 00 00       	jmp    303f17 <idt_common>
  3027b9:	8d b4 26 00 00 00 00 	lea    0x0(%esi,%eiz,1),%esi
  3027c0:	6a ff                	push   $0xffffffff
  3027c2:	6a 7b                	push   $0x7b
  3027c4:	e9 4e 17 00 00       	jmp    303f17 <idt_common>
  3027c9:	8d b4 26 00 00 00 00 	lea    0x0(%esi,%eiz,1),%esi
  3027d0:	6a ff                	push   $0xffffffff
  3027d2:	6a 7c                	push   $0x7c
  3027d4:	e9 3e 17 00 00       	jmp    303f17 <idt_common>
  3027d9:	8d b4 26 00 00 00 00 	lea    0x0(%esi,%eiz,1),%esi
  3027e0:	6a ff                	push   $0xffffffff
  3027e2:	6a 7d                	push   $0x7d
  3027e4:	e9 2e 17 00 00       	jmp    303f17 <idt_common>
  3027e9:	8d b4 26 00 00 00 00 	lea    0x0(%esi,%eiz,1),%esi
  3027f0:	6a ff                	push   $0xffffffff
  3027f2:	6a 7e                	push   $0x7e
  3027f4:	e9 1e 17 00 00       	jmp    303f17 <idt_common>
  3027f9:	8d b4 26 00 00 00 00 	lea    0x0(%esi,%eiz,1),%esi
  302800:	6a ff                	push   $0xffffffff
  302802:	6a 7f                	push   $0x7f
  302804:	e9 0e 17 00 00       	jmp    303f17 <idt_common>
  302809:	8d b4 26 00 00 00 00 	lea    0x0(%esi,%eiz,1),%esi
  302810:	6a ff                	push   $0xffffffff
  302812:	68 80 00 00 00       	push   $0x80
  302817:	e9 fb 16 00 00       	jmp    303f17 <idt_common>
  30281c:	8d 74 26 00          	lea    0x0(%esi,%eiz,1),%esi
  302820:	6a ff                	push   $0xffffffff
  302822:	68 81 00 00 00       	push   $0x81
  302827:	e9 eb 16 00 00       	jmp    303f17 <idt_common>
  30282c:	8d 74 26 00          	lea    0x0(%esi,%eiz,1),%esi
  302830:	6a ff                	push   $0xffffffff
  302832:	68 82 00 00 00       	push   $0x82
  302837:	e9 db 16 00 00       	jmp    303f17 <idt_common>
  30283c:	8d 74 26 00          	lea    0x0(%esi,%eiz,1),%esi
  302840:	6a ff                	push   $0xffffffff
  302842:	68 83 00 00 00       	push   $0x83
  302847:	e9 cb 16 00 00       	jmp    303f17 <idt_common>
  30284c:	8d 74 26 00          	lea    0x0(%esi,%eiz,1),%esi
  302850:	6a ff                	push   $0xffffffff
  302852:	68 84 00 00 00       	push   $0x84
  302857:	e9 bb 16 00 00       	jmp    303f17 <idt_common>
  30285c:	8d 74 26 00          	lea    0x0(%esi,%eiz,1),%esi
  302860:	6a ff                	push   $0xffffffff
  302862:	68 85 00 00 00       	push   $0x85
  302867:	e9 ab 16 00 00       	jmp    303f17 <idt_common>
  30286c:	8d 74 26 00          	lea    0x0(%esi,%eiz,1),%esi
  302870:	6a ff                	push   $0xffffffff
  302872:	68 86 00 00 00       	push   $0x86
  302877:	e9 9b 16 00 00       	jmp    303f17 <idt_common>
  30287c:	8d 74 26 00          	lea    0x0(%esi,%eiz,1),%esi
  302880:	6a ff                	push   $0xffffffff
  302882:	68 87 00 00 00       	push   $0x87
  302887:	e9 8b 16 00 00       	jmp    303f17 <idt_common>
  30288c:	8d 74 26 00          	lea    0x0(%esi,%eiz,1),%esi
  302890:	6a ff                	push   $0xffffffff
  302892:	68 88 00 00 00       	push   $0x88
  302897:	e9 7b 16 00 00       	jmp    303f17 <idt_common>
  30289c:	8d 74 26 00          	lea    0x0(%esi,%eiz,1),%esi
  3028a0:	6a ff                	push   $0xffffffff
  3028a2:	68 89 00 00 00       	push   $0x89
  3028a7:	e9 6b 16 00 00       	jmp    303f17 <idt_common>
  3028ac:	8d 74 26 00          	lea    0x0(%esi,%eiz,1),%esi
  3028b0:	6a ff                	push   $0xffffffff
  3028b2:	68 8a 00 00 00       	push   $0x8a
  3028b7:	e9 5b 16 00 00       	jmp    303f17 <idt_common>
  3028bc:	8d 74 26 00          	lea    0x0(%esi,%eiz,1),%esi
  3028c0:	6a ff                	push   $0xffffffff
  3028c2:	68 8b 00 00 00       	push   $0x8b
  3028c7:	e9 4b 16 00 00       	jmp    303f17 <idt_common>
  3028cc:	8d 74 26 00          	lea    0x0(%esi,%eiz,1),%esi
  3028d0:	6a ff                	push   $0xffffffff
  3028d2:	68 8c 00 00 00       	push   $0x8c
  3028d7:	e9 3b 16 00 00       	jmp    303f17 <idt_common>
  3028dc:	8d 74 26 00          	lea    0x0(%esi,%eiz,1),%esi
  3028e0:	6a ff                	push   $0xffffffff
  3028e2:	68 8d 00 00 00       	push   $0x8d
  3028e7:	e9 2b 16 00 00       	jmp    303f17 <idt_common>
  3028ec:	8d 74 26 00          	lea    0x0(%esi,%eiz,1),%esi
  3028f0:	6a ff                	push   $0xffffffff
  3028f2:	68 8e 00 00 00       	push   $0x8e
  3028f7:	e9 1b 16 00 00       	jmp    303f17 <idt_common>
  3028fc:	8d 74 26 00          	lea    0x0(%esi,%eiz,1),%esi
  302900:	6a ff                	push   $0xffffffff
  302902:	68 8f 00 00 00       	push   $0x8f
  302907:	e9 0b 16 00 00       	jmp    303f17 <idt_common>
  30290c:	8d 74 26 00          	lea    0x0(%esi,%eiz,1),%esi
  302910:	6a ff                	push   $0xffffffff
  302912:	68 90 00 00 00       	push   $0x90
  302917:	e9 fb 15 00 00       	jmp    303f17 <idt_common>
  30291c:	8d 74 26 00          	lea    0x0(%esi,%eiz,1),%esi
  302920:	6a ff                	push   $0xffffffff
  302922:	68 91 00 00 00       	push   $0x91
  302927:	e9 eb 15 00 00       	jmp    303f17 <idt_common>
  30292c:	8d 74 26 00          	lea    0x0(%esi,%eiz,1),%esi
  302930:	6a ff                	push   $0xffffffff
  302932:	68 92 00 00 00       	push   $0x92
  302937:	e9 db 15 00 00       	jmp    303f17 <idt_common>
  30293c:	8d 74 26 00          	lea    0x0(%esi,%eiz,1),%esi
  302940:	6a ff                	push   $0xffffffff
  302942:	68 93 00 00 00       	push   $0x93
  302947:	e9 cb 15 00 00       	jmp    303f17 <idt_common>
  30294c:	8d 74 26 00          	lea    0x0(%esi,%eiz,1),%esi
  302950:	6a ff                	push   $0xffffffff
  302952:	68 94 00 00 00       	push   $0x94
  302957:	e9 bb 15 00 00       	jmp    303f17 <idt_common>
  30295c:	8d 74 26 00          	lea    0x0(%esi,%eiz,1),%esi
  302960:	6a ff                	push   $0xffffffff
  302962:	68 95 00 00 00       	push   $0x95
  302967:	e9 ab 15 00 00       	jmp    303f17 <idt_common>
  30296c:	8d 74 26 00          	lea    0x0(%esi,%eiz,1),%esi
  302970:	6a ff                	push   $0xffffffff
  302972:	68 96 00 00 00       	push   $0x96
  302977:	e9 9b 15 00 00       	jmp    303f17 <idt_common>
  30297c:	8d 74 26 00          	lea    0x0(%esi,%eiz,1),%esi
  302980:	6a ff                	push   $0xffffffff
  302982:	68 97 00 00 00       	push   $0x97
  302987:	e9 8b 15 00 00       	jmp    303f17 <idt_common>
  30298c:	8d 74 26 00          	lea    0x0(%esi,%eiz,1),%esi
  302990:	6a ff                	push   $0xffffffff
  302992:	68 98 00 00 00       	push   $0x98
  302997:	e9 7b 15 00 00       	jmp    303f17 <idt_common>
  30299c:	8d 74 26 00          	lea    0x0(%esi,%eiz,1),%esi
  3029a0:	6a ff                	push   $0xffffffff
  3029a2:	68 99 00 00 00       	push   $0x99
  3029a7:	e9 6b 15 00 00       	jmp    303f17 <idt_common>
  3029ac:	8d 74 26 00          	lea    0x0(%esi,%eiz,1),%esi
  3029b0:	6a ff                	push   $0xffffffff
  3029b2:	68 9a 00 00 00       	push   $0x9a
  3029b7:	e9 5b 15 00 00       	jmp    303f17 <idt_common>
  3029bc:	8d 74 26 00          	lea    0x0(%esi,%eiz,1),%esi
  3029c0:	6a ff                	push   $0xffffffff
  3029c2:	68 9b 00 00 00       	push   $0x9b
  3029c7:	e9 4b 15 00 00       	jmp    303f17 <idt_common>
  3029cc:	8d 74 26 00          	lea    0x0(%esi,%eiz,1),%esi
  3029d0:	6a ff                	push   $0xffffffff
  3029d2:	68 9c 00 00 00       	push   $0x9c
  3029d7:	e9 3b 15 00 00       	jmp    303f17 <idt_common>
  3029dc:	8d 74 26 00          	lea    0x0(%esi,%eiz,1),%esi
  3029e0:	6a ff                	push   $0xffffffff
  3029e2:	68 9d 00 00 00       	push   $0x9d
  3029e7:	e9 2b 15 00 00       	jmp    303f17 <idt_common>
  3029ec:	8d 74 26 00          	lea    0x0(%esi,%eiz,1),%esi
  3029f0:	6a ff                	push   $0xffffffff
  3029f2:	68 9e 00 00 00       	push   $0x9e
  3029f7:	e9 1b 15 00 00       	jmp    303f17 <idt_common>
  3029fc:	8d 74 26 00          	lea    0x0(%esi,%eiz,1),%esi
  302a00:	6a ff                	push   $0xffffffff
  302a02:	68 9f 00 00 00       	push   $0x9f
  302a07:	e9 0b 15 00 00       	jmp    303f17 <idt_common>
  302a0c:	8d 74 26 00          	lea    0x0(%esi,%eiz,1),%esi
  302a10:	6a ff                	push   $0xffffffff
  302a12:	68 a0 00 00 00       	push   $0xa0
  302a17:	e9 fb 14 00 00       	jmp    303f17 <idt_common>
  302a1c:	8d 74 26 00          	lea    0x0(%esi,%eiz,1),%esi
  302a20:	6a ff                	push   $0xffffffff
  302a22:	68 a1 00 00 00       	push   $0xa1
  302a27:	e9 eb 14 00 00       	jmp    303f17 <idt_common>
  302a2c:	8d 74 26 00          	lea    0x0(%esi,%eiz,1),%esi
  302a30:	6a ff                	push   $0xffffffff
  302a32:	68 a2 00 00 00       	push   $0xa2
  302a37:	e9 db 14 00 00       	jmp    303f17 <idt_common>
  302a3c:	8d 74 26 00          	lea    0x0(%esi,%eiz,1),%esi
  302a40:	6a ff                	push   $0xffffffff
  302a42:	68 a3 00 00 00       	push   $0xa3
  302a47:	e9 cb 14 00 00       	jmp    303f17 <idt_common>
  302a4c:	8d 74 26 00          	lea    0x0(%esi,%eiz,1),%esi
  302a50:	6a ff                	push   $0xffffffff
  302a52:	68 a4 00 00 00       	push   $0xa4
  302a57:	e9 bb 14 00 00       	jmp    303f17 <idt_common>
  302a5c:	8d 74 26 00          	lea    0x0(%esi,%eiz,1),%esi
  302a60:	6a ff                	push   $0xffffffff
  302a62:	68 a5 00 00 00       	push   $0xa5
  302a67:	e9 ab 14 00 00       	jmp    303f17 <idt_common>
  302a6c:	8d 74 26 00          	lea    0x0(%esi,%eiz,1),%esi
  302a70:	6a ff                	push   $0xffffffff
  302a72:	68 a6 00 00 00       	push   $0xa6
  302a77:	e9 9b 14 00 00       	jmp    303f17 <idt_common>
  302a7c:	8d 74 26 00          	lea    0x0(%esi,%eiz,1),%esi
  302a80:	6a ff                	push   $0xffffffff
  302a82:	68 a7 00 00 00       	push   $0xa7
  302a87:	e9 8b 14 00 00       	jmp    303f17 <idt_common>
  302a8c:	8d 74 26 00          	lea    0x0(%esi,%eiz,1),%esi
  302a90:	6a ff                	push   $0xffffffff
  302a92:	68 a8 00 00 00       	push   $0xa8
  302a97:	e9 7b 14 00 00       	jmp    303f17 <idt_common>
  302a9c:	8d 74 26 00          	lea    0x0(%esi,%eiz,1),%esi
  302aa0:	6a ff                	push   $0xffffffff
  302aa2:	68 a9 00 00 00       	push   $0xa9
  302aa7:	e9 6b 14 00 00       	jmp    303f17 <idt_common>
  302aac:	8d 74 26 00          	lea    0x0(%esi,%eiz,1),%esi
  302ab0:	6a ff                	push   $0xffffffff
  302ab2:	68 aa 00 00 00       	push   $0xaa
  302ab7:	e9 5b 14 00 00       	jmp    303f17 <idt_common>
  302abc:	8d 74 26 00          	lea    0x0(%esi,%eiz,1),%esi
  302ac0:	6a ff                	push   $0xffffffff
  302ac2:	68 ab 00 00 00       	push   $0xab
  302ac7:	e9 4b 14 00 00       	jmp    303f17 <idt_common>
  302acc:	8d 74 26 00          	lea    0x0(%esi,%eiz,1),%esi
  302ad0:	6a ff                	push   $0xffffffff
  302ad2:	68 ac 00 00 00       	push   $0xac
  302ad7:	e9 3b 14 00 00       	jmp    303f17 <idt_common>
  302adc:	8d 74 26 00          	lea    0x0(%esi,%eiz,1),%esi
  302ae0:	6a ff                	push   $0xffffffff
  302ae2:	68 ad 00 00 00       	push   $0xad
  302ae7:	e9 2b 14 00 00       	jmp    303f17 <idt_common>
  302aec:	8d 74 26 00          	lea    0x0(%esi,%eiz,1),%esi
  302af0:	6a ff                	push   $0xffffffff
  302af2:	68 ae 00 00 00       	push   $0xae
  302af7:	e9 1b 14 00 00       	jmp    303f17 <idt_common>
  302afc:	8d 74 26 00          	lea    0x0(%esi,%eiz,1),%esi
  302b00:	6a ff                	push   $0xffffffff
  302b02:	68 af 00 00 00       	push   $0xaf
  302b07:	e9 0b 14 00 00       	jmp    303f17 <idt_common>
  302b0c:	8d 74 26 00          	lea    0x0(%esi,%eiz,1),%esi
  302b10:	6a ff                	push   $0xffffffff
  302b12:	68 b0 00 00 00       	push   $0xb0
  302b17:	e9 fb 13 00 00       	jmp    303f17 <idt_common>
  302b1c:	8d 74 26 00          	lea    0x0(%esi,%eiz,1),%esi
  302b20:	6a ff                	push   $0xffffffff
  302b22:	68 b1 00 00 00       	push   $0xb1
  302b27:	e9 eb 13 00 00       	jmp    303f17 <idt_common>
  302b2c:	8d 74 26 00          	lea    0x0(%esi,%eiz,1),%esi
  302b30:	6a ff                	push   $0xffffffff
  302b32:	68 b2 00 00 00       	push   $0xb2
  302b37:	e9 db 13 00 00       	jmp    303f17 <idt_common>
  302b3c:	8d 74 26 00          	lea    0x0(%esi,%eiz,1),%esi
  302b40:	6a ff                	push   $0xffffffff
  302b42:	68 b3 00 00 00       	push   $0xb3
  302b47:	e9 cb 13 00 00       	jmp    303f17 <idt_common>
  302b4c:	8d 74 26 00          	lea    0x0(%esi,%eiz,1),%esi
  302b50:	6a ff                	push   $0xffffffff
  302b52:	68 b4 00 00 00       	push   $0xb4
  302b57:	e9 bb 13 00 00       	jmp    303f17 <idt_common>
  302b5c:	8d 74 26 00          	lea    0x0(%esi,%eiz,1),%esi
  302b60:	6a ff                	push   $0xffffffff
  302b62:	68 b5 00 00 00       	push   $0xb5
  302b67:	e9 ab 13 00 00       	jmp    303f17 <idt_common>
  302b6c:	8d 74 26 00          	lea    0x0(%esi,%eiz,1),%esi
  302b70:	6a ff                	push   $0xffffffff
  302b72:	68 b6 00 00 00       	push   $0xb6
  302b77:	e9 9b 13 00 00       	jmp    303f17 <idt_common>
  302b7c:	8d 74 26 00          	lea    0x0(%esi,%eiz,1),%esi
  302b80:	6a ff                	push   $0xffffffff
  302b82:	68 b7 00 00 00       	push   $0xb7
  302b87:	e9 8b 13 00 00       	jmp    303f17 <idt_common>
  302b8c:	8d 74 26 00          	lea    0x0(%esi,%eiz,1),%esi
  302b90:	6a ff                	push   $0xffffffff
  302b92:	68 b8 00 00 00       	push   $0xb8
  302b97:	e9 7b 13 00 00       	jmp    303f17 <idt_common>
  302b9c:	8d 74 26 00          	lea    0x0(%esi,%eiz,1),%esi
  302ba0:	6a ff                	push   $0xffffffff
  302ba2:	68 b9 00 00 00       	push   $0xb9
  302ba7:	e9 6b 13 00 00       	jmp    303f17 <idt_common>
  302bac:	8d 74 26 00          	lea    0x0(%esi,%eiz,1),%esi
  302bb0:	6a ff                	push   $0xffffffff
  302bb2:	68 ba 00 00 00       	push   $0xba
  302bb7:	e9 5b 13 00 00       	jmp    303f17 <idt_common>
  302bbc:	8d 74 26 00          	lea    0x0(%esi,%eiz,1),%esi
  302bc0:	6a ff                	push   $0xffffffff
  302bc2:	68 bb 00 00 00       	push   $0xbb
  302bc7:	e9 4b 13 00 00       	jmp    303f17 <idt_common>
  302bcc:	8d 74 26 00          	lea    0x0(%esi,%eiz,1),%esi
  302bd0:	6a ff                	push   $0xffffffff
  302bd2:	68 bc 00 00 00       	push   $0xbc
  302bd7:	e9 3b 13 00 00       	jmp    303f17 <idt_common>
  302bdc:	8d 74 26 00          	lea    0x0(%esi,%eiz,1),%esi
  302be0:	6a ff                	push   $0xffffffff
  302be2:	68 bd 00 00 00       	push   $0xbd
  302be7:	e9 2b 13 00 00       	jmp    303f17 <idt_common>
  302bec:	8d 74 26 00          	lea    0x0(%esi,%eiz,1),%esi
  302bf0:	6a ff                	push   $0xffffffff
  302bf2:	68 be 00 00 00       	push   $0xbe
  302bf7:	e9 1b 13 00 00       	jmp    303f17 <idt_common>
  302bfc:	8d 74 26 00          	lea    0x0(%esi,%eiz,1),%esi
  302c00:	6a ff                	push   $0xffffffff
  302c02:	68 bf 00 00 00       	push   $0xbf
  302c07:	e9 0b 13 00 00       	jmp    303f17 <idt_common>
  302c0c:	8d 74 26 00          	lea    0x0(%esi,%eiz,1),%esi
  302c10:	6a ff                	push   $0xffffffff
  302c12:	68 c0 00 00 00       	push   $0xc0
  302c17:	e9 fb 12 00 00       	jmp    303f17 <idt_common>
  302c1c:	8d 74 26 00          	lea    0x0(%esi,%eiz,1),%esi
  302c20:	6a ff                	push   $0xffffffff
  302c22:	68 c1 00 00 00       	push   $0xc1
  302c27:	e9 eb 12 00 00       	jmp    303f17 <idt_common>
  302c2c:	8d 74 26 00          	lea    0x0(%esi,%eiz,1),%esi
  302c30:	6a ff                	push   $0xffffffff
  302c32:	68 c2 00 00 00       	push   $0xc2
  302c37:	e9 db 12 00 00       	jmp    303f17 <idt_common>
  302c3c:	8d 74 26 00          	lea    0x0(%esi,%eiz,1),%esi
  302c40:	6a ff                	push   $0xffffffff
  302c42:	68 c3 00 00 00       	push   $0xc3
  302c47:	e9 cb 12 00 00       	jmp    303f17 <idt_common>
  302c4c:	8d 74 26 00          	lea    0x0(%esi,%eiz,1),%esi
  302c50:	6a ff                	push   $0xffffffff
  302c52:	68 c4 00 00 00       	push   $0xc4
  302c57:	e9 bb 12 00 00       	jmp    303f17 <idt_common>
  302c5c:	8d 74 26 00          	lea    0x0(%esi,%eiz,1),%esi
  302c60:	6a ff                	push   $0xffffffff
  302c62:	68 c5 00 00 00       	push   $0xc5
  302c67:	e9 ab 12 00 00       	jmp    303f17 <idt_common>
  302c6c:	8d 74 26 00          	lea    0x0(%esi,%eiz,1),%esi
  302c70:	6a ff                	push   $0xffffffff
  302c72:	68 c6 00 00 00       	push   $0xc6
  302c77:	e9 9b 12 00 00       	jmp    303f17 <idt_common>
  302c7c:	8d 74 26 00          	lea    0x0(%esi,%eiz,1),%esi
  302c80:	6a ff                	push   $0xffffffff
  302c82:	68 c7 00 00 00       	push   $0xc7
  302c87:	e9 8b 12 00 00       	jmp    303f17 <idt_common>
  302c8c:	8d 74 26 00          	lea    0x0(%esi,%eiz,1),%esi
  302c90:	6a ff                	push   $0xffffffff
  302c92:	68 c8 00 00 00       	push   $0xc8
  302c97:	e9 7b 12 00 00       	jmp    303f17 <idt_common>
  302c9c:	8d 74 26 00          	lea    0x0(%esi,%eiz,1),%esi
  302ca0:	6a ff                	push   $0xffffffff
  302ca2:	68 c9 00 00 00       	push   $0xc9
  302ca7:	e9 6b 12 00 00       	jmp    303f17 <idt_common>
  302cac:	8d 74 26 00          	lea    0x0(%esi,%eiz,1),%esi
  302cb0:	6a ff                	push   $0xffffffff
  302cb2:	68 ca 00 00 00       	push   $0xca
  302cb7:	e9 5b 12 00 00       	jmp    303f17 <idt_common>
  302cbc:	8d 74 26 00          	lea    0x0(%esi,%eiz,1),%esi
  302cc0:	6a ff                	push   $0xffffffff
  302cc2:	68 cb 00 00 00       	push   $0xcb
  302cc7:	e9 4b 12 00 00       	jmp    303f17 <idt_common>
  302ccc:	8d 74 26 00          	lea    0x0(%esi,%eiz,1),%esi
  302cd0:	6a ff                	push   $0xffffffff
  302cd2:	68 cc 00 00 00       	push   $0xcc
  302cd7:	e9 3b 12 00 00       	jmp    303f17 <idt_common>
  302cdc:	8d 74 26 00          	lea    0x0(%esi,%eiz,1),%esi
  302ce0:	6a ff                	push   $0xffffffff
  302ce2:	68 cd 00 00 00       	push   $0xcd
  302ce7:	e9 2b 12 00 00       	jmp    303f17 <idt_common>
  302cec:	8d 74 26 00          	lea    0x0(%esi,%eiz,1),%esi
  302cf0:	6a ff                	push   $0xffffffff
  302cf2:	68 ce 00 00 00       	push   $0xce
  302cf7:	e9 1b 12 00 00       	jmp    303f17 <idt_common>
  302cfc:	8d 74 26 00          	lea    0x0(%esi,%eiz,1),%esi
  302d00:	6a ff                	push   $0xffffffff
  302d02:	68 cf 00 00 00       	push   $0xcf
  302d07:	e9 0b 12 00 00       	jmp    303f17 <idt_common>
  302d0c:	8d 74 26 00          	lea    0x0(%esi,%eiz,1),%esi
  302d10:	6a ff                	push   $0xffffffff
  302d12:	68 d0 00 00 00       	push   $0xd0
  302d17:	e9 fb 11 00 00       	jmp    303f17 <idt_common>
  302d1c:	8d 74 26 00          	lea    0x0(%esi,%eiz,1),%esi
  302d20:	6a ff                	push   $0xffffffff
  302d22:	68 d1 00 00 00       	push   $0xd1
  302d27:	e9 eb 11 00 00       	jmp    303f17 <idt_common>
  302d2c:	8d 74 26 00          	lea    0x0(%esi,%eiz,1),%esi
  302d30:	6a ff                	push   $0xffffffff
  302d32:	68 d2 00 00 00       	push   $0xd2
  302d37:	e9 db 11 00 00       	jmp    303f17 <idt_common>
  302d3c:	8d 74 26 00          	lea    0x0(%esi,%eiz,1),%esi
  302d40:	6a ff                	push   $0xffffffff
  302d42:	68 d3 00 00 00       	push   $0xd3
  302d47:	e9 cb 11 00 00       	jmp    303f17 <idt_common>
  302d4c:	8d 74 26 00          	lea    0x0(%esi,%eiz,1),%esi
  302d50:	6a ff                	push   $0xffffffff
  302d52:	68 d4 00 00 00       	push   $0xd4
  302d57:	e9 bb 11 00 00       	jmp    303f17 <idt_common>
  302d5c:	8d 74 26 00          	lea    0x0(%esi,%eiz,1),%esi
  302d60:	6a ff                	push   $0xffffffff
  302d62:	68 d5 00 00 00       	push   $0xd5
  302d67:	e9 ab 11 00 00       	jmp    303f17 <idt_common>
  302d6c:	8d 74 26 00          	lea    0x0(%esi,%eiz,1),%esi
  302d70:	6a ff                	push   $0xffffffff
  302d72:	68 d6 00 00 00       	push   $0xd6
  302d77:	e9 9b 11 00 00       	jmp    303f17 <idt_common>
  302d7c:	8d 74 26 00          	lea    0x0(%esi,%eiz,1),%esi
  302d80:	6a ff                	push   $0xffffffff
  302d82:	68 d7 00 00 00       	push   $0xd7
  302d87:	e9 8b 11 00 00       	jmp    303f17 <idt_common>
  302d8c:	8d 74 26 00          	lea    0x0(%esi,%eiz,1),%esi
  302d90:	6a ff                	push   $0xffffffff
  302d92:	68 d8 00 00 00       	push   $0xd8
  302d97:	e9 7b 11 00 00       	jmp    303f17 <idt_common>
  302d9c:	8d 74 26 00          	lea    0x0(%esi,%eiz,1),%esi
  302da0:	6a ff                	push   $0xffffffff
  302da2:	68 d9 00 00 00       	push   $0xd9
  302da7:	e9 6b 11 00 00       	jmp    303f17 <idt_common>
  302dac:	8d 74 26 00          	lea    0x0(%esi,%eiz,1),%esi
  302db0:	6a ff                	push   $0xffffffff
  302db2:	68 da 00 00 00       	push   $0xda
  302db7:	e9 5b 11 00 00       	jmp    303f17 <idt_common>
  302dbc:	8d 74 26 00          	lea    0x0(%esi,%eiz,1),%esi
  302dc0:	6a ff                	push   $0xffffffff
  302dc2:	68 db 00 00 00       	push   $0xdb
  302dc7:	e9 4b 11 00 00       	jmp    303f17 <idt_common>
  302dcc:	8d 74 26 00          	lea    0x0(%esi,%eiz,1),%esi
  302dd0:	6a ff                	push   $0xffffffff
  302dd2:	68 dc 00 00 00       	push   $0xdc
  302dd7:	e9 3b 11 00 00       	jmp    303f17 <idt_common>
  302ddc:	8d 74 26 00          	lea    0x0(%esi,%eiz,1),%esi
  302de0:	6a ff                	push   $0xffffffff
  302de2:	68 dd 00 00 00       	push   $0xdd
  302de7:	e9 2b 11 00 00       	jmp    303f17 <idt_common>
  302dec:	8d 74 26 00          	lea    0x0(%esi,%eiz,1),%esi
  302df0:	6a ff                	push   $0xffffffff
  302df2:	68 de 00 00 00       	push   $0xde
  302df7:	e9 1b 11 00 00       	jmp    303f17 <idt_common>
  302dfc:	8d 74 26 00          	lea    0x0(%esi,%eiz,1),%esi
  302e00:	6a ff                	push   $0xffffffff
  302e02:	68 df 00 00 00       	push   $0xdf
  302e07:	e9 0b 11 00 00       	jmp    303f17 <idt_common>
  302e0c:	8d 74 26 00          	lea    0x0(%esi,%eiz,1),%esi
  302e10:	6a ff                	push   $0xffffffff
  302e12:	68 e0 00 00 00       	push   $0xe0
  302e17:	e9 fb 10 00 00       	jmp    303f17 <idt_common>
  302e1c:	8d 74 26 00          	lea    0x0(%esi,%eiz,1),%esi
  302e20:	6a ff                	push   $0xffffffff
  302e22:	68 e1 00 00 00       	push   $0xe1
  302e27:	e9 eb 10 00 00       	jmp    303f17 <idt_common>
  302e2c:	8d 74 26 00          	lea    0x0(%esi,%eiz,1),%esi
  302e30:	6a ff                	push   $0xffffffff
  302e32:	68 e2 00 00 00       	push   $0xe2
  302e37:	e9 db 10 00 00       	jmp    303f17 <idt_common>
  302e3c:	8d 74 26 00          	lea    0x0(%esi,%eiz,1),%esi
  302e40:	6a ff                	push   $0xffffffff
  302e42:	68 e3 00 00 00       	push   $0xe3
  302e47:	e9 cb 10 00 00       	jmp    303f17 <idt_common>
  302e4c:	8d 74 26 00          	lea    0x0(%esi,%eiz,1),%esi
  302e50:	6a ff                	push   $0xffffffff
  302e52:	68 e4 00 00 00       	push   $0xe4
  302e57:	e9 bb 10 00 00       	jmp    303f17 <idt_common>
  302e5c:	8d 74 26 00          	lea    0x0(%esi,%eiz,1),%esi
  302e60:	6a ff                	push   $0xffffffff
  302e62:	68 e5 00 00 00       	push   $0xe5
  302e67:	e9 ab 10 00 00       	jmp    303f17 <idt_common>
  302e6c:	8d 74 26 00          	lea    0x0(%esi,%eiz,1),%esi
  302e70:	6a ff                	push   $0xffffffff
  302e72:	68 e6 00 00 00       	push   $0xe6
  302e77:	e9 9b 10 00 00       	jmp    303f17 <idt_common>
  302e7c:	8d 74 26 00          	lea    0x0(%esi,%eiz,1),%esi
  302e80:	6a ff                	push   $0xffffffff
  302e82:	68 e7 00 00 00       	push   $0xe7
  302e87:	e9 8b 10 00 00       	jmp    303f17 <idt_common>
  302e8c:	8d 74 26 00          	lea    0x0(%esi,%eiz,1),%esi
  302e90:	6a ff                	push   $0xffffffff
  302e92:	68 e8 00 00 00       	push   $0xe8
  302e97:	e9 7b 10 00 00       	jmp    303f17 <idt_common>
  302e9c:	8d 74 26 00          	lea    0x0(%esi,%eiz,1),%esi
  302ea0:	6a ff                	push   $0xffffffff
  302ea2:	68 e9 00 00 00       	push   $0xe9
  302ea7:	e9 6b 10 00 00       	jmp    303f17 <idt_common>
  302eac:	8d 74 26 00          	lea    0x0(%esi,%eiz,1),%esi
  302eb0:	6a ff                	push   $0xffffffff
  302eb2:	68 ea 00 00 00       	push   $0xea
  302eb7:	e9 5b 10 00 00       	jmp    303f17 <idt_common>
  302ebc:	8d 74 26 00          	lea    0x0(%esi,%eiz,1),%esi
  302ec0:	6a ff                	push   $0xffffffff
  302ec2:	68 eb 00 00 00       	push   $0xeb
  302ec7:	e9 4b 10 00 00       	jmp    303f17 <idt_common>
  302ecc:	8d 74 26 00          	lea    0x0(%esi,%eiz,1),%esi
  302ed0:	6a ff                	push   $0xffffffff
  302ed2:	68 ec 00 00 00       	push   $0xec
  302ed7:	e9 3b 10 00 00       	jmp    303f17 <idt_common>
  302edc:	8d 74 26 00          	lea    0x0(%esi,%eiz,1),%esi
  302ee0:	6a ff                	push   $0xffffffff
  302ee2:	68 ed 00 00 00       	push   $0xed
  302ee7:	e9 2b 10 00 00       	jmp    303f17 <idt_common>
  302eec:	8d 74 26 00          	lea    0x0(%esi,%eiz,1),%esi
  302ef0:	6a ff                	push   $0xffffffff
  302ef2:	68 ee 00 00 00       	push   $0xee
  302ef7:	e9 1b 10 00 00       	jmp    303f17 <idt_common>
  302efc:	8d 74 26 00          	lea    0x0(%esi,%eiz,1),%esi
  302f00:	6a ff                	push   $0xffffffff
  302f02:	68 ef 00 00 00       	push   $0xef
  302f07:	e9 0b 10 00 00       	jmp    303f17 <idt_common>
  302f0c:	8d 74 26 00          	lea    0x0(%esi,%eiz,1),%esi
  302f10:	6a ff                	push   $0xffffffff
  302f12:	68 f0 00 00 00       	push   $0xf0
  302f17:	e9 fb 0f 00 00       	jmp    303f17 <idt_common>
  302f1c:	8d 74 26 00          	lea    0x0(%esi,%eiz,1),%esi
  302f20:	6a ff                	push   $0xffffffff
  302f22:	68 f1 00 00 00       	push   $0xf1
  302f27:	e9 eb 0f 00 00       	jmp    303f17 <idt_common>
  302f2c:	8d 74 26 00          	lea    0x0(%esi,%eiz,1),%esi
  302f30:	6a ff                	push   $0xffffffff
  302f32:	68 f2 00 00 00       	push   $0xf2
  302f37:	e9 db 0f 00 00       	jmp    303f17 <idt_common>
  302f3c:	8d 74 26 00          	lea    0x0(%esi,%eiz,1),%esi
  302f40:	6a ff                	push   $0xffffffff
  302f42:	68 f3 00 00 00       	push   $0xf3
  302f47:	e9 cb 0f 00 00       	jmp    303f17 <idt_common>
  302f4c:	8d 74 26 00          	lea    0x0(%esi,%eiz,1),%esi
  302f50:	6a ff                	push   $0xffffffff
  302f52:	68 f4 00 00 00       	push   $0xf4
  302f57:	e9 bb 0f 00 00       	jmp    303f17 <idt_common>
  302f5c:	8d 74 26 00          	lea    0x0(%esi,%eiz,1),%esi
  302f60:	6a ff                	push   $0xffffffff
  302f62:	68 f5 00 00 00       	push   $0xf5
  302f67:	e9 ab 0f 00 00       	jmp    303f17 <idt_common>
  302f6c:	8d 74 26 00          	lea    0x0(%esi,%eiz,1),%esi
  302f70:	6a ff                	push   $0xffffffff
  302f72:	68 f6 00 00 00       	push   $0xf6
  302f77:	e9 9b 0f 00 00       	jmp    303f17 <idt_common>
  302f7c:	8d 74 26 00          	lea    0x0(%esi,%eiz,1),%esi
  302f80:	6a ff                	push   $0xffffffff
  302f82:	68 f7 00 00 00       	push   $0xf7
  302f87:	e9 8b 0f 00 00       	jmp    303f17 <idt_common>
  302f8c:	8d 74 26 00          	lea    0x0(%esi,%eiz,1),%esi
  302f90:	6a ff                	push   $0xffffffff
  302f92:	68 f8 00 00 00       	push   $0xf8
  302f97:	e9 7b 0f 00 00       	jmp    303f17 <idt_common>
  302f9c:	8d 74 26 00          	lea    0x0(%esi,%eiz,1),%esi
  302fa0:	6a ff                	push   $0xffffffff
  302fa2:	68 f9 00 00 00       	push   $0xf9
  302fa7:	e9 6b 0f 00 00       	jmp    303f17 <idt_common>
  302fac:	8d 74 26 00          	lea    0x0(%esi,%eiz,1),%esi
  302fb0:	6a ff                	push   $0xffffffff
  302fb2:	68 fa 00 00 00       	push   $0xfa
  302fb7:	e9 5b 0f 00 00       	jmp    303f17 <idt_common>
  302fbc:	8d 74 26 00          	lea    0x0(%esi,%eiz,1),%esi
  302fc0:	6a ff                	push   $0xffffffff
  302fc2:	68 fb 00 00 00       	push   $0xfb
  302fc7:	e9 4b 0f 00 00       	jmp    303f17 <idt_common>
  302fcc:	8d 74 26 00          	lea    0x0(%esi,%eiz,1),%esi
  302fd0:	6a ff                	push   $0xffffffff
  302fd2:	68 fc 00 00 00       	push   $0xfc
  302fd7:	e9 3b 0f 00 00       	jmp    303f17 <idt_common>
  302fdc:	8d 74 26 00          	lea    0x0(%esi,%eiz,1),%esi
  302fe0:	6a ff                	push   $0xffffffff
  302fe2:	68 fd 00 00 00       	push   $0xfd
  302fe7:	e9 2b 0f 00 00       	jmp    303f17 <idt_common>
  302fec:	8d 74 26 00          	lea    0x0(%esi,%eiz,1),%esi
  302ff0:	6a ff                	push   $0xffffffff
  302ff2:	68 fe 00 00 00       	push   $0xfe
  302ff7:	e9 1b 0f 00 00       	jmp    303f17 <idt_common>
  302ffc:	8d 74 26 00          	lea    0x0(%esi,%eiz,1),%esi
  303000:	6a ff                	push   $0xffffffff
  303002:	68 ff 00 00 00       	push   $0xff
  303007:	e9 0b 0f 00 00       	jmp    303f17 <idt_common>

Disassembly of section .text:

00303010 <entry>:
  303010:	fa                   	cli    
  303011:	bc 10 20 30 00       	mov    $0x302010,%esp
  303016:	6a 00                	push   $0x0
  303018:	9d                   	popf   
  303019:	89 d8                	mov    %ebx,%eax
  30301b:	e8 03 00 00 00       	call   303023 <start>

00303020 <halt>:
  303020:	f4                   	hlt    
  303021:	eb fd                	jmp    303020 <halt>

00303023 <start>:
  303023:	55                   	push   %ebp
  303024:	89 e5                	mov    %esp,%ebp
  303026:	83 ec 18             	sub    $0x18,%esp
  303029:	89 45 f4             	mov    %eax,-0xc(%ebp)
  30302c:	a1 80 52 30 00       	mov    0x305280,%eax
  303031:	8b 55 f4             	mov    -0xc(%ebp),%edx
  303034:	89 10                	mov    %edx,(%eax)
  303036:	e8 77 0b 00 00       	call   303bb2 <pic_init>
  30303b:	e8 fa 09 00 00       	call   303a3a <uart_init>
  303040:	e8 f5 0b 00 00       	call   303c3a <intr_init>
  303045:	83 ec 0c             	sub    $0xc,%esp
  303048:	68 6c 4d 30 00       	push   $0x304d6c
  30304d:	e8 7f 00 00 00       	call   3030d1 <printf>
  303052:	83 c4 10             	add    $0x10,%esp
  303055:	e8 88 17 00 00       	call   3047e2 <tp>
  30305a:	83 ec 0c             	sub    $0xc,%esp
  30305d:	68 8f 4d 30 00       	push   $0x304d8f
  303062:	e8 42 00 00 00       	call   3030a9 <panic>
  303067:	83 c4 10             	add    $0x10,%esp
  30306a:	90                   	nop
  30306b:	c9                   	leave  
  30306c:	c3                   	ret    

0030306d <__buf_add>:
  30306d:	55                   	push   %ebp
  30306e:	89 e5                	mov    %esp,%ebp
  303070:	53                   	push   %ebx
  303071:	83 ec 04             	sub    $0x4,%esp
  303074:	8b 45 10             	mov    0x10(%ebp),%eax
  303077:	88 45 f8             	mov    %al,-0x8(%ebp)
  30307a:	8b 45 08             	mov    0x8(%ebp),%eax
  30307d:	8b 40 08             	mov    0x8(%eax),%eax
  303080:	39 45 0c             	cmp    %eax,0xc(%ebp)
  303083:	76 1d                	jbe    3030a2 <__buf_add+0x35>
  303085:	8b 45 08             	mov    0x8(%ebp),%eax
  303088:	8b 18                	mov    (%eax),%ebx
  30308a:	8b 45 08             	mov    0x8(%ebp),%eax
  30308d:	8b 40 08             	mov    0x8(%eax),%eax
  303090:	8d 48 01             	lea    0x1(%eax),%ecx
  303093:	8b 55 08             	mov    0x8(%ebp),%edx
  303096:	89 4a 08             	mov    %ecx,0x8(%edx)
  303099:	8d 14 03             	lea    (%ebx,%eax,1),%edx
  30309c:	0f b6 45 f8          	movzbl -0x8(%ebp),%eax
  3030a0:	88 02                	mov    %al,(%edx)
  3030a2:	90                   	nop
  3030a3:	83 c4 04             	add    $0x4,%esp
  3030a6:	5b                   	pop    %ebx
  3030a7:	5d                   	pop    %ebp
  3030a8:	c3                   	ret    

003030a9 <panic>:
  3030a9:	55                   	push   %ebp
  3030aa:	89 e5                	mov    %esp,%ebp
  3030ac:	83 ec 18             	sub    $0x18,%esp
  3030af:	fa                   	cli    
  3030b0:	8d 45 0c             	lea    0xc(%ebp),%eax
  3030b3:	89 45 f4             	mov    %eax,-0xc(%ebp)
  3030b6:	8b 45 f4             	mov    -0xc(%ebp),%eax
  3030b9:	83 ec 08             	sub    $0x8,%esp
  3030bc:	50                   	push   %eax
  3030bd:	ff 75 08             	pushl  0x8(%ebp)
  3030c0:	e8 5b 00 00 00       	call   303120 <__vprintf>
  3030c5:	83 c4 10             	add    $0x10,%esp
  3030c8:	e8 a5 0a 00 00       	call   303b72 <uart_flush>
  3030cd:	fa                   	cli    
  3030ce:	f4                   	hlt    
  3030cf:	eb fc                	jmp    3030cd <panic+0x24>

003030d1 <printf>:
  3030d1:	55                   	push   %ebp
  3030d2:	89 e5                	mov    %esp,%ebp
  3030d4:	83 ec 18             	sub    $0x18,%esp
  3030d7:	8d 45 0c             	lea    0xc(%ebp),%eax
  3030da:	89 45 f0             	mov    %eax,-0x10(%ebp)
  3030dd:	8b 45 f0             	mov    -0x10(%ebp),%eax
  3030e0:	83 ec 08             	sub    $0x8,%esp
  3030e3:	50                   	push   %eax
  3030e4:	ff 75 08             	pushl  0x8(%ebp)
  3030e7:	e8 34 00 00 00       	call   303120 <__vprintf>
  3030ec:	83 c4 10             	add    $0x10,%esp
  3030ef:	89 45 f4             	mov    %eax,-0xc(%ebp)
  3030f2:	8b 45 f4             	mov    -0xc(%ebp),%eax
  3030f5:	c9                   	leave  
  3030f6:	c3                   	ret    

003030f7 <snprintf>:
  3030f7:	55                   	push   %ebp
  3030f8:	89 e5                	mov    %esp,%ebp
  3030fa:	83 ec 18             	sub    $0x18,%esp
  3030fd:	8d 45 14             	lea    0x14(%ebp),%eax
  303100:	89 45 f0             	mov    %eax,-0x10(%ebp)
  303103:	8b 45 f0             	mov    -0x10(%ebp),%eax
  303106:	50                   	push   %eax
  303107:	ff 75 10             	pushl  0x10(%ebp)
  30310a:	ff 75 0c             	pushl  0xc(%ebp)
  30310d:	ff 75 08             	pushl  0x8(%ebp)
  303110:	e8 f9 03 00 00       	call   30350e <__vsnprintf>
  303115:	83 c4 10             	add    $0x10,%esp
  303118:	89 45 f4             	mov    %eax,-0xc(%ebp)
  30311b:	8b 45 f4             	mov    -0xc(%ebp),%eax
  30311e:	c9                   	leave  
  30311f:	c3                   	ret    

00303120 <__vprintf>:
  303120:	55                   	push   %ebp
  303121:	89 e5                	mov    %esp,%ebp
  303123:	83 ec 18             	sub    $0x18,%esp
  303126:	ff 75 0c             	pushl  0xc(%ebp)
  303129:	ff 75 08             	pushl  0x8(%ebp)
  30312c:	68 00 04 00 00       	push   $0x400
  303131:	68 20 53 30 00       	push   $0x305320
  303136:	e8 d3 03 00 00       	call   30350e <__vsnprintf>
  30313b:	83 c4 10             	add    $0x10,%esp
  30313e:	89 45 f4             	mov    %eax,-0xc(%ebp)
  303141:	8b 45 f4             	mov    -0xc(%ebp),%eax
  303144:	83 e8 01             	sub    $0x1,%eax
  303147:	83 ec 08             	sub    $0x8,%esp
  30314a:	50                   	push   %eax
  30314b:	68 20 53 30 00       	push   $0x305320
  303150:	e8 f1 09 00 00       	call   303b46 <uart_write>
  303155:	83 c4 10             	add    $0x10,%esp
  303158:	8b 45 f4             	mov    -0xc(%ebp),%eax
  30315b:	c9                   	leave  
  30315c:	c3                   	ret    

0030315d <__format_add_str>:
  30315d:	55                   	push   %ebp
  30315e:	89 e5                	mov    %esp,%ebp
  303160:	eb 1e                	jmp    303180 <__format_add_str+0x23>
  303162:	8b 45 10             	mov    0x10(%ebp),%eax
  303165:	8d 50 01             	lea    0x1(%eax),%edx
  303168:	89 55 10             	mov    %edx,0x10(%ebp)
  30316b:	0f b6 00             	movzbl (%eax),%eax
  30316e:	0f be c0             	movsbl %al,%eax
  303171:	50                   	push   %eax
  303172:	ff 75 0c             	pushl  0xc(%ebp)
  303175:	ff 75 08             	pushl  0x8(%ebp)
  303178:	e8 f0 fe ff ff       	call   30306d <__buf_add>
  30317d:	83 c4 0c             	add    $0xc,%esp
  303180:	8b 45 10             	mov    0x10(%ebp),%eax
  303183:	0f b6 00             	movzbl (%eax),%eax
  303186:	84 c0                	test   %al,%al
  303188:	75 d8                	jne    303162 <__format_add_str+0x5>
  30318a:	90                   	nop
  30318b:	c9                   	leave  
  30318c:	c3                   	ret    

0030318d <__format_add_chr>:
  30318d:	55                   	push   %ebp
  30318e:	89 e5                	mov    %esp,%ebp
  303190:	8b 45 10             	mov    0x10(%ebp),%eax
  303193:	0f be c0             	movsbl %al,%eax
  303196:	50                   	push   %eax
  303197:	ff 75 0c             	pushl  0xc(%ebp)
  30319a:	ff 75 08             	pushl  0x8(%ebp)
  30319d:	e8 cb fe ff ff       	call   30306d <__buf_add>
  3031a2:	83 c4 0c             	add    $0xc,%esp
  3031a5:	90                   	nop
  3031a6:	c9                   	leave  
  3031a7:	c3                   	ret    

003031a8 <__format_add_bin>:
  3031a8:	55                   	push   %ebp
  3031a9:	89 e5                	mov    %esp,%ebp
  3031ab:	56                   	push   %esi
  3031ac:	53                   	push   %ebx
  3031ad:	83 ec 18             	sub    $0x18,%esp
  3031b0:	8b 45 10             	mov    0x10(%ebp),%eax
  3031b3:	89 45 e0             	mov    %eax,-0x20(%ebp)
  3031b6:	8b 45 14             	mov    0x14(%ebp),%eax
  3031b9:	89 45 e4             	mov    %eax,-0x1c(%ebp)
  3031bc:	c7 45 f4 00 00 00 00 	movl   $0x0,-0xc(%ebp)
  3031c3:	eb 4e                	jmp    303213 <__format_add_bin+0x6b>
  3031c5:	8b 45 18             	mov    0x18(%ebp),%eax
  3031c8:	2b 45 f4             	sub    -0xc(%ebp),%eax
  3031cb:	8d 48 ff             	lea    -0x1(%eax),%ecx
  3031ce:	8b 45 e0             	mov    -0x20(%ebp),%eax
  3031d1:	8b 55 e4             	mov    -0x1c(%ebp),%edx
  3031d4:	0f ad d0             	shrd   %cl,%edx,%eax
  3031d7:	d3 ea                	shr    %cl,%edx
  3031d9:	f6 c1 20             	test   $0x20,%cl
  3031dc:	74 04                	je     3031e2 <__format_add_bin+0x3a>
  3031de:	89 d0                	mov    %edx,%eax
  3031e0:	31 d2                	xor    %edx,%edx
  3031e2:	89 c3                	mov    %eax,%ebx
  3031e4:	89 d6                	mov    %edx,%esi
  3031e6:	89 d8                	mov    %ebx,%eax
  3031e8:	83 e0 01             	and    $0x1,%eax
  3031eb:	89 45 f0             	mov    %eax,-0x10(%ebp)
  3031ee:	83 7d f0 00          	cmpl   $0x0,-0x10(%ebp)
  3031f2:	74 07                	je     3031fb <__format_add_bin+0x53>
  3031f4:	b8 31 00 00 00       	mov    $0x31,%eax
  3031f9:	eb 05                	jmp    303200 <__format_add_bin+0x58>
  3031fb:	b8 30 00 00 00       	mov    $0x30,%eax
  303200:	50                   	push   %eax
  303201:	ff 75 0c             	pushl  0xc(%ebp)
  303204:	ff 75 08             	pushl  0x8(%ebp)
  303207:	e8 61 fe ff ff       	call   30306d <__buf_add>
  30320c:	83 c4 0c             	add    $0xc,%esp
  30320f:	83 45 f4 01          	addl   $0x1,-0xc(%ebp)
  303213:	8b 45 f4             	mov    -0xc(%ebp),%eax
  303216:	3b 45 18             	cmp    0x18(%ebp),%eax
  303219:	72 aa                	jb     3031c5 <__format_add_bin+0x1d>
  30321b:	90                   	nop
  30321c:	8d 65 f8             	lea    -0x8(%ebp),%esp
  30321f:	5b                   	pop    %ebx
  303220:	5e                   	pop    %esi
  303221:	5d                   	pop    %ebp
  303222:	c3                   	ret    

00303223 <__format_add_idec>:
  303223:	55                   	push   %ebp
  303224:	89 e5                	mov    %esp,%ebp
  303226:	57                   	push   %edi
  303227:	56                   	push   %esi
  303228:	53                   	push   %ebx
  303229:	83 ec 4c             	sub    $0x4c,%esp
  30322c:	8b 4d 10             	mov    0x10(%ebp),%ecx
  30322f:	89 4d b0             	mov    %ecx,-0x50(%ebp)
  303232:	8b 4d 14             	mov    0x14(%ebp),%ecx
  303235:	89 4d b4             	mov    %ecx,-0x4c(%ebp)
  303238:	8b 4d b0             	mov    -0x50(%ebp),%ecx
  30323b:	80 f5 00             	xor    $0x0,%ch
  30323e:	89 c8                	mov    %ecx,%eax
  303240:	8b 4d b4             	mov    -0x4c(%ebp),%ecx
  303243:	80 f5 00             	xor    $0x0,%ch
  303246:	89 ca                	mov    %ecx,%edx
  303248:	09 d0                	or     %edx,%eax
  30324a:	85 c0                	test   %eax,%eax
  30324c:	75 15                	jne    303263 <__format_add_idec+0x40>
  30324e:	6a 30                	push   $0x30
  303250:	ff 75 0c             	pushl  0xc(%ebp)
  303253:	ff 75 08             	pushl  0x8(%ebp)
  303256:	e8 12 fe ff ff       	call   30306d <__buf_add>
  30325b:	83 c4 0c             	add    $0xc,%esp
  30325e:	e9 b9 00 00 00       	jmp    30331c <__format_add_idec+0xf9>
  303263:	8d 45 d0             	lea    -0x30(%ebp),%eax
  303266:	89 45 c4             	mov    %eax,-0x3c(%ebp)
  303269:	c7 45 cc 00 00 00 00 	movl   $0x0,-0x34(%ebp)
  303270:	83 7d b4 00          	cmpl   $0x0,-0x4c(%ebp)
  303274:	79 5f                	jns    3032d5 <__format_add_idec+0xb2>
  303276:	6a 2d                	push   $0x2d
  303278:	ff 75 0c             	pushl  0xc(%ebp)
  30327b:	ff 75 08             	pushl  0x8(%ebp)
  30327e:	e8 ea fd ff ff       	call   30306d <__buf_add>
  303283:	83 c4 0c             	add    $0xc,%esp
  303286:	f7 5d b0             	negl   -0x50(%ebp)
  303289:	83 55 b4 00          	adcl   $0x0,-0x4c(%ebp)
  30328d:	f7 5d b4             	negl   -0x4c(%ebp)
  303290:	eb 43                	jmp    3032d5 <__format_add_idec+0xb2>
  303292:	8b 45 b0             	mov    -0x50(%ebp),%eax
  303295:	8b 55 b4             	mov    -0x4c(%ebp),%edx
  303298:	6a 00                	push   $0x0
  30329a:	6a 0a                	push   $0xa
  30329c:	52                   	push   %edx
  30329d:	50                   	push   %eax
  30329e:	e8 ed 16 00 00       	call   304990 <__moddi3>
  3032a3:	83 c4 10             	add    $0x10,%esp
  3032a6:	8d 78 30             	lea    0x30(%eax),%edi
  3032a9:	8b 4d c4             	mov    -0x3c(%ebp),%ecx
  3032ac:	8b 45 cc             	mov    -0x34(%ebp),%eax
  3032af:	8d 50 01             	lea    0x1(%eax),%edx
  3032b2:	89 55 cc             	mov    %edx,-0x34(%ebp)
  3032b5:	01 c8                	add    %ecx,%eax
  3032b7:	89 fa                	mov    %edi,%edx
  3032b9:	88 10                	mov    %dl,(%eax)
  3032bb:	8b 45 b0             	mov    -0x50(%ebp),%eax
  3032be:	8b 55 b4             	mov    -0x4c(%ebp),%edx
  3032c1:	6a 00                	push   $0x0
  3032c3:	6a 0a                	push   $0xa
  3032c5:	52                   	push   %edx
  3032c6:	50                   	push   %eax
  3032c7:	e8 74 15 00 00       	call   304840 <__divdi3>
  3032cc:	83 c4 10             	add    $0x10,%esp
  3032cf:	89 45 b0             	mov    %eax,-0x50(%ebp)
  3032d2:	89 55 b4             	mov    %edx,-0x4c(%ebp)
  3032d5:	8b 45 b0             	mov    -0x50(%ebp),%eax
  3032d8:	80 f4 00             	xor    $0x0,%ah
  3032db:	89 c3                	mov    %eax,%ebx
  3032dd:	8b 45 b4             	mov    -0x4c(%ebp),%eax
  3032e0:	80 f4 00             	xor    $0x0,%ah
  3032e3:	89 c6                	mov    %eax,%esi
  3032e5:	89 f0                	mov    %esi,%eax
  3032e7:	09 d8                	or     %ebx,%eax
  3032e9:	85 c0                	test   %eax,%eax
  3032eb:	75 a5                	jne    303292 <__format_add_idec+0x6f>
  3032ed:	eb 20                	jmp    30330f <__format_add_idec+0xec>
  3032ef:	8b 55 c4             	mov    -0x3c(%ebp),%edx
  3032f2:	8b 45 cc             	mov    -0x34(%ebp),%eax
  3032f5:	01 d0                	add    %edx,%eax
  3032f7:	0f b6 00             	movzbl (%eax),%eax
  3032fa:	0f be c0             	movsbl %al,%eax
  3032fd:	83 ec 04             	sub    $0x4,%esp
  303300:	50                   	push   %eax
  303301:	ff 75 0c             	pushl  0xc(%ebp)
  303304:	ff 75 08             	pushl  0x8(%ebp)
  303307:	e8 61 fd ff ff       	call   30306d <__buf_add>
  30330c:	83 c4 10             	add    $0x10,%esp
  30330f:	8b 45 cc             	mov    -0x34(%ebp),%eax
  303312:	8d 50 ff             	lea    -0x1(%eax),%edx
  303315:	89 55 cc             	mov    %edx,-0x34(%ebp)
  303318:	85 c0                	test   %eax,%eax
  30331a:	75 d3                	jne    3032ef <__format_add_idec+0xcc>
  30331c:	8d 65 f4             	lea    -0xc(%ebp),%esp
  30331f:	5b                   	pop    %ebx
  303320:	5e                   	pop    %esi
  303321:	5f                   	pop    %edi
  303322:	5d                   	pop    %ebp
  303323:	c3                   	ret    

00303324 <__format_add_udec>:
  303324:	55                   	push   %ebp
  303325:	89 e5                	mov    %esp,%ebp
  303327:	57                   	push   %edi
  303328:	56                   	push   %esi
  303329:	53                   	push   %ebx
  30332a:	83 ec 4c             	sub    $0x4c,%esp
  30332d:	8b 4d 10             	mov    0x10(%ebp),%ecx
  303330:	89 4d b0             	mov    %ecx,-0x50(%ebp)
  303333:	8b 4d 14             	mov    0x14(%ebp),%ecx
  303336:	89 4d b4             	mov    %ecx,-0x4c(%ebp)
  303339:	8b 4d b0             	mov    -0x50(%ebp),%ecx
  30333c:	80 f5 00             	xor    $0x0,%ch
  30333f:	89 c8                	mov    %ecx,%eax
  303341:	8b 4d b4             	mov    -0x4c(%ebp),%ecx
  303344:	80 f5 00             	xor    $0x0,%ch
  303347:	89 ca                	mov    %ecx,%edx
  303349:	09 d0                	or     %edx,%eax
  30334b:	85 c0                	test   %eax,%eax
  30334d:	75 15                	jne    303364 <__format_add_udec+0x40>
  30334f:	6a 30                	push   $0x30
  303351:	ff 75 0c             	pushl  0xc(%ebp)
  303354:	ff 75 08             	pushl  0x8(%ebp)
  303357:	e8 11 fd ff ff       	call   30306d <__buf_add>
  30335c:	83 c4 0c             	add    $0xc,%esp
  30335f:	e9 99 00 00 00       	jmp    3033fd <__format_add_udec+0xd9>
  303364:	8d 45 d0             	lea    -0x30(%ebp),%eax
  303367:	89 45 c4             	mov    %eax,-0x3c(%ebp)
  30336a:	c7 45 cc 00 00 00 00 	movl   $0x0,-0x34(%ebp)
  303371:	eb 43                	jmp    3033b6 <__format_add_udec+0x92>
  303373:	8b 45 b0             	mov    -0x50(%ebp),%eax
  303376:	8b 55 b4             	mov    -0x4c(%ebp),%edx
  303379:	6a 00                	push   $0x0
  30337b:	6a 0a                	push   $0xa
  30337d:	52                   	push   %edx
  30337e:	50                   	push   %eax
  30337f:	e8 cc 18 00 00       	call   304c50 <__umoddi3>
  303384:	83 c4 10             	add    $0x10,%esp
  303387:	8d 78 30             	lea    0x30(%eax),%edi
  30338a:	8b 4d c4             	mov    -0x3c(%ebp),%ecx
  30338d:	8b 45 cc             	mov    -0x34(%ebp),%eax
  303390:	8d 50 01             	lea    0x1(%eax),%edx
  303393:	89 55 cc             	mov    %edx,-0x34(%ebp)
  303396:	01 c8                	add    %ecx,%eax
  303398:	89 fa                	mov    %edi,%edx
  30339a:	88 10                	mov    %dl,(%eax)
  30339c:	8b 45 b0             	mov    -0x50(%ebp),%eax
  30339f:	8b 55 b4             	mov    -0x4c(%ebp),%edx
  3033a2:	6a 00                	push   $0x0
  3033a4:	6a 0a                	push   $0xa
  3033a6:	52                   	push   %edx
  3033a7:	50                   	push   %eax
  3033a8:	e8 83 17 00 00       	call   304b30 <__udivdi3>
  3033ad:	83 c4 10             	add    $0x10,%esp
  3033b0:	89 45 b0             	mov    %eax,-0x50(%ebp)
  3033b3:	89 55 b4             	mov    %edx,-0x4c(%ebp)
  3033b6:	8b 45 b0             	mov    -0x50(%ebp),%eax
  3033b9:	80 f4 00             	xor    $0x0,%ah
  3033bc:	89 c3                	mov    %eax,%ebx
  3033be:	8b 45 b4             	mov    -0x4c(%ebp),%eax
  3033c1:	80 f4 00             	xor    $0x0,%ah
  3033c4:	89 c6                	mov    %eax,%esi
  3033c6:	89 f0                	mov    %esi,%eax
  3033c8:	09 d8                	or     %ebx,%eax
  3033ca:	85 c0                	test   %eax,%eax
  3033cc:	75 a5                	jne    303373 <__format_add_udec+0x4f>
  3033ce:	eb 20                	jmp    3033f0 <__format_add_udec+0xcc>
  3033d0:	8b 55 c4             	mov    -0x3c(%ebp),%edx
  3033d3:	8b 45 cc             	mov    -0x34(%ebp),%eax
  3033d6:	01 d0                	add    %edx,%eax
  3033d8:	0f b6 00             	movzbl (%eax),%eax
  3033db:	0f be c0             	movsbl %al,%eax
  3033de:	83 ec 04             	sub    $0x4,%esp
  3033e1:	50                   	push   %eax
  3033e2:	ff 75 0c             	pushl  0xc(%ebp)
  3033e5:	ff 75 08             	pushl  0x8(%ebp)
  3033e8:	e8 80 fc ff ff       	call   30306d <__buf_add>
  3033ed:	83 c4 10             	add    $0x10,%esp
  3033f0:	8b 45 cc             	mov    -0x34(%ebp),%eax
  3033f3:	8d 50 ff             	lea    -0x1(%eax),%edx
  3033f6:	89 55 cc             	mov    %edx,-0x34(%ebp)
  3033f9:	85 c0                	test   %eax,%eax
  3033fb:	75 d3                	jne    3033d0 <__format_add_udec+0xac>
  3033fd:	8d 65 f4             	lea    -0xc(%ebp),%esp
  303400:	5b                   	pop    %ebx
  303401:	5e                   	pop    %esi
  303402:	5f                   	pop    %edi
  303403:	5d                   	pop    %ebp
  303404:	c3                   	ret    

00303405 <uint64_to_hex>:
  303405:	55                   	push   %ebp
  303406:	89 e5                	mov    %esp,%ebp
  303408:	57                   	push   %edi
  303409:	56                   	push   %esi
  30340a:	53                   	push   %ebx
  30340b:	83 ec 34             	sub    $0x34,%esp
  30340e:	8b 45 10             	mov    0x10(%ebp),%eax
  303411:	89 45 c8             	mov    %eax,-0x38(%ebp)
  303414:	8b 45 14             	mov    0x14(%ebp),%eax
  303417:	89 45 cc             	mov    %eax,-0x34(%ebp)
  30341a:	c7 45 ec 00 00 00 00 	movl   $0x0,-0x14(%ebp)
  303421:	83 7d 18 00          	cmpl   $0x0,0x18(%ebp)
  303425:	74 06                	je     30342d <uint64_to_hex+0x28>
  303427:	83 7d 18 10          	cmpl   $0x10,0x18(%ebp)
  30342b:	76 4b                	jbe    303478 <uint64_to_hex+0x73>
  30342d:	c7 45 18 ff ff ff ff 	movl   $0xffffffff,0x18(%ebp)
  303434:	eb 42                	jmp    303478 <uint64_to_hex+0x73>
  303436:	8b 45 c8             	mov    -0x38(%ebp),%eax
  303439:	83 e0 0f             	and    $0xf,%eax
  30343c:	89 c6                	mov    %eax,%esi
  30343e:	8b 45 cc             	mov    -0x34(%ebp),%eax
  303441:	83 e0 00             	and    $0x0,%eax
  303444:	89 c7                	mov    %eax,%edi
  303446:	8d 86 84 52 30 00    	lea    0x305284(%esi),%eax
  30344c:	0f b6 10             	movzbl (%eax),%edx
  30344f:	8d 45 d8             	lea    -0x28(%ebp),%eax
  303452:	89 45 c4             	mov    %eax,-0x3c(%ebp)
  303455:	8b 45 ec             	mov    -0x14(%ebp),%eax
  303458:	03 45 c4             	add    -0x3c(%ebp),%eax
  30345b:	88 10                	mov    %dl,(%eax)
  30345d:	8b 45 c8             	mov    -0x38(%ebp),%eax
  303460:	8b 55 cc             	mov    -0x34(%ebp),%edx
  303463:	0f ac d0 04          	shrd   $0x4,%edx,%eax
  303467:	c1 ea 04             	shr    $0x4,%edx
  30346a:	89 45 c8             	mov    %eax,-0x38(%ebp)
  30346d:	89 55 cc             	mov    %edx,-0x34(%ebp)
  303470:	83 45 ec 01          	addl   $0x1,-0x14(%ebp)
  303474:	83 6d 18 01          	subl   $0x1,0x18(%ebp)
  303478:	83 7d 18 00          	cmpl   $0x0,0x18(%ebp)
  30347c:	74 24                	je     3034a2 <uint64_to_hex+0x9d>
  30347e:	83 7d 18 10          	cmpl   $0x10,0x18(%ebp)
  303482:	76 b2                	jbe    303436 <uint64_to_hex+0x31>
  303484:	8b 45 c8             	mov    -0x38(%ebp),%eax
  303487:	80 f4 00             	xor    $0x0,%ah
  30348a:	89 c1                	mov    %eax,%ecx
  30348c:	8b 45 cc             	mov    -0x34(%ebp),%eax
  30348f:	80 f4 00             	xor    $0x0,%ah
  303492:	89 c3                	mov    %eax,%ebx
  303494:	89 d8                	mov    %ebx,%eax
  303496:	09 c8                	or     %ecx,%eax
  303498:	85 c0                	test   %eax,%eax
  30349a:	75 9a                	jne    303436 <uint64_to_hex+0x31>
  30349c:	83 7d ec 00          	cmpl   $0x0,-0x14(%ebp)
  3034a0:	74 94                	je     303436 <uint64_to_hex+0x31>
  3034a2:	8b 45 ec             	mov    -0x14(%ebp),%eax
  3034a5:	89 45 e8             	mov    %eax,-0x18(%ebp)
  3034a8:	eb 1d                	jmp    3034c7 <uint64_to_hex+0xc2>
  3034aa:	8d 55 d8             	lea    -0x28(%ebp),%edx
  3034ad:	8b 45 ec             	mov    -0x14(%ebp),%eax
  3034b0:	01 d0                	add    %edx,%eax
  3034b2:	0f b6 00             	movzbl (%eax),%eax
  3034b5:	0f be c0             	movsbl %al,%eax
  3034b8:	50                   	push   %eax
  3034b9:	ff 75 0c             	pushl  0xc(%ebp)
  3034bc:	ff 75 08             	pushl  0x8(%ebp)
  3034bf:	e8 a9 fb ff ff       	call   30306d <__buf_add>
  3034c4:	83 c4 0c             	add    $0xc,%esp
  3034c7:	8b 45 ec             	mov    -0x14(%ebp),%eax
  3034ca:	8d 50 ff             	lea    -0x1(%eax),%edx
  3034cd:	89 55 ec             	mov    %edx,-0x14(%ebp)
  3034d0:	85 c0                	test   %eax,%eax
  3034d2:	75 d6                	jne    3034aa <uint64_to_hex+0xa5>
  3034d4:	8b 45 e8             	mov    -0x18(%ebp),%eax
  3034d7:	8d 65 f4             	lea    -0xc(%ebp),%esp
  3034da:	5b                   	pop    %ebx
  3034db:	5e                   	pop    %esi
  3034dc:	5f                   	pop    %edi
  3034dd:	5d                   	pop    %ebp
  3034de:	c3                   	ret    

003034df <__format_add_hex>:
  3034df:	55                   	push   %ebp
  3034e0:	89 e5                	mov    %esp,%ebp
  3034e2:	83 ec 08             	sub    $0x8,%esp
  3034e5:	8b 45 10             	mov    0x10(%ebp),%eax
  3034e8:	89 45 f8             	mov    %eax,-0x8(%ebp)
  3034eb:	8b 45 14             	mov    0x14(%ebp),%eax
  3034ee:	89 45 fc             	mov    %eax,-0x4(%ebp)
  3034f1:	83 ec 04             	sub    $0x4,%esp
  3034f4:	ff 75 18             	pushl  0x18(%ebp)
  3034f7:	ff 75 fc             	pushl  -0x4(%ebp)
  3034fa:	ff 75 f8             	pushl  -0x8(%ebp)
  3034fd:	ff 75 0c             	pushl  0xc(%ebp)
  303500:	ff 75 08             	pushl  0x8(%ebp)
  303503:	e8 fd fe ff ff       	call   303405 <uint64_to_hex>
  303508:	83 c4 18             	add    $0x18,%esp
  30350b:	90                   	nop
  30350c:	c9                   	leave  
  30350d:	c3                   	ret    

0030350e <__vsnprintf>:
  30350e:	55                   	push   %ebp
  30350f:	89 e5                	mov    %esp,%ebp
  303511:	83 ec 78             	sub    $0x78,%esp
  303514:	8b 45 08             	mov    0x8(%ebp),%eax
  303517:	89 45 94             	mov    %eax,-0x6c(%ebp)
  30351a:	c7 45 9c 00 00 00 00 	movl   $0x0,-0x64(%ebp)
  303521:	c7 45 f0 00 00 00 00 	movl   $0x0,-0x10(%ebp)
  303528:	c7 45 ec 00 00 00 00 	movl   $0x0,-0x14(%ebp)
  30352f:	c7 45 f4 04 00 00 00 	movl   $0x4,-0xc(%ebp)
  303536:	83 7d 0c 00          	cmpl   $0x0,0xc(%ebp)
  30353a:	0f 84 ac 03 00 00    	je     3038ec <__vsnprintf+0x3de>
  303540:	83 6d 0c 01          	subl   $0x1,0xc(%ebp)
  303544:	e9 a3 03 00 00       	jmp    3038ec <__vsnprintf+0x3de>
  303549:	8b 45 10             	mov    0x10(%ebp),%eax
  30354c:	8d 50 01             	lea    0x1(%eax),%edx
  30354f:	89 55 10             	mov    %edx,0x10(%ebp)
  303552:	0f b6 00             	movzbl (%eax),%eax
  303555:	88 45 d7             	mov    %al,-0x29(%ebp)
  303558:	83 7d f0 00          	cmpl   $0x0,-0x10(%ebp)
  30355c:	0f 84 5d 03 00 00    	je     3038bf <__vsnprintf+0x3b1>
  303562:	80 7d d7 6c          	cmpb   $0x6c,-0x29(%ebp)
  303566:	75 1e                	jne    303586 <__vsnprintf+0x78>
  303568:	83 7d ec 00          	cmpl   $0x0,-0x14(%ebp)
  30356c:	74 0c                	je     30357a <__vsnprintf+0x6c>
  30356e:	c7 45 f4 08 00 00 00 	movl   $0x8,-0xc(%ebp)
  303575:	e9 72 03 00 00       	jmp    3038ec <__vsnprintf+0x3de>
  30357a:	c7 45 ec 01 00 00 00 	movl   $0x1,-0x14(%ebp)
  303581:	e9 66 03 00 00       	jmp    3038ec <__vsnprintf+0x3de>
  303586:	80 7d d7 68          	cmpb   $0x68,-0x29(%ebp)
  30358a:	75 0d                	jne    303599 <__vsnprintf+0x8b>
  30358c:	8b 45 f4             	mov    -0xc(%ebp),%eax
  30358f:	d1 e8                	shr    %eax
  303591:	89 45 f4             	mov    %eax,-0xc(%ebp)
  303594:	e9 53 03 00 00       	jmp    3038ec <__vsnprintf+0x3de>
  303599:	80 7d d7 73          	cmpb   $0x73,-0x29(%ebp)
  30359d:	75 25                	jne    3035c4 <__vsnprintf+0xb6>
  30359f:	8b 45 14             	mov    0x14(%ebp),%eax
  3035a2:	8d 50 04             	lea    0x4(%eax),%edx
  3035a5:	89 55 14             	mov    %edx,0x14(%ebp)
  3035a8:	8b 00                	mov    (%eax),%eax
  3035aa:	89 45 a0             	mov    %eax,-0x60(%ebp)
  3035ad:	ff 75 a0             	pushl  -0x60(%ebp)
  3035b0:	ff 75 0c             	pushl  0xc(%ebp)
  3035b3:	8d 45 94             	lea    -0x6c(%ebp),%eax
  3035b6:	50                   	push   %eax
  3035b7:	e8 a1 fb ff ff       	call   30315d <__format_add_str>
  3035bc:	83 c4 0c             	add    $0xc,%esp
  3035bf:	e9 eb 02 00 00       	jmp    3038af <__vsnprintf+0x3a1>
  3035c4:	80 7d d7 63          	cmpb   $0x63,-0x29(%ebp)
  3035c8:	75 25                	jne    3035ef <__vsnprintf+0xe1>
  3035ca:	8b 45 14             	mov    0x14(%ebp),%eax
  3035cd:	8d 50 04             	lea    0x4(%eax),%edx
  3035d0:	89 55 14             	mov    %edx,0x14(%ebp)
  3035d3:	8b 00                	mov    (%eax),%eax
  3035d5:	89 45 a4             	mov    %eax,-0x5c(%ebp)
  3035d8:	ff 75 a4             	pushl  -0x5c(%ebp)
  3035db:	ff 75 0c             	pushl  0xc(%ebp)
  3035de:	8d 45 94             	lea    -0x6c(%ebp),%eax
  3035e1:	50                   	push   %eax
  3035e2:	e8 a6 fb ff ff       	call   30318d <__format_add_chr>
  3035e7:	83 c4 0c             	add    $0xc,%esp
  3035ea:	e9 c0 02 00 00       	jmp    3038af <__vsnprintf+0x3a1>
  3035ef:	80 7d d7 62          	cmpb   $0x62,-0x29(%ebp)
  3035f3:	75 34                	jne    303629 <__vsnprintf+0x11b>
  3035f5:	8b 45 14             	mov    0x14(%ebp),%eax
  3035f8:	8d 50 04             	lea    0x4(%eax),%edx
  3035fb:	89 55 14             	mov    %edx,0x14(%ebp)
  3035fe:	8b 00                	mov    (%eax),%eax
  303600:	89 45 a8             	mov    %eax,-0x58(%ebp)
  303603:	c7 45 ac 00 00 00 00 	movl   $0x0,-0x54(%ebp)
  30360a:	83 ec 04             	sub    $0x4,%esp
  30360d:	6a 20                	push   $0x20
  30360f:	ff 75 ac             	pushl  -0x54(%ebp)
  303612:	ff 75 a8             	pushl  -0x58(%ebp)
  303615:	ff 75 0c             	pushl  0xc(%ebp)
  303618:	8d 45 94             	lea    -0x6c(%ebp),%eax
  30361b:	50                   	push   %eax
  30361c:	e8 87 fb ff ff       	call   3031a8 <__format_add_bin>
  303621:	83 c4 18             	add    $0x18,%esp
  303624:	e9 86 02 00 00       	jmp    3038af <__vsnprintf+0x3a1>
  303629:	80 7d d7 42          	cmpb   $0x42,-0x29(%ebp)
  30362d:	75 33                	jne    303662 <__vsnprintf+0x154>
  30362f:	8b 45 14             	mov    0x14(%ebp),%eax
  303632:	8d 50 08             	lea    0x8(%eax),%edx
  303635:	89 55 14             	mov    %edx,0x14(%ebp)
  303638:	8b 50 04             	mov    0x4(%eax),%edx
  30363b:	8b 00                	mov    (%eax),%eax
  30363d:	89 45 b0             	mov    %eax,-0x50(%ebp)
  303640:	89 55 b4             	mov    %edx,-0x4c(%ebp)
  303643:	83 ec 04             	sub    $0x4,%esp
  303646:	6a 40                	push   $0x40
  303648:	ff 75 b4             	pushl  -0x4c(%ebp)
  30364b:	ff 75 b0             	pushl  -0x50(%ebp)
  30364e:	ff 75 0c             	pushl  0xc(%ebp)
  303651:	8d 45 94             	lea    -0x6c(%ebp),%eax
  303654:	50                   	push   %eax
  303655:	e8 4e fb ff ff       	call   3031a8 <__format_add_bin>
  30365a:	83 c4 18             	add    $0x18,%esp
  30365d:	e9 4d 02 00 00       	jmp    3038af <__vsnprintf+0x3a1>
  303662:	80 7d d7 64          	cmpb   $0x64,-0x29(%ebp)
  303666:	74 0a                	je     303672 <__vsnprintf+0x164>
  303668:	80 7d d7 69          	cmpb   $0x69,-0x29(%ebp)
  30366c:	0f 85 80 00 00 00    	jne    3036f2 <__vsnprintf+0x1e4>
  303672:	83 7d f4 07          	cmpl   $0x7,-0xc(%ebp)
  303676:	76 16                	jbe    30368e <__vsnprintf+0x180>
  303678:	8b 45 14             	mov    0x14(%ebp),%eax
  30367b:	8d 50 08             	lea    0x8(%eax),%edx
  30367e:	89 55 14             	mov    %edx,0x14(%ebp)
  303681:	8b 50 04             	mov    0x4(%eax),%edx
  303684:	8b 00                	mov    (%eax),%eax
  303686:	89 45 e0             	mov    %eax,-0x20(%ebp)
  303689:	89 55 e4             	mov    %edx,-0x1c(%ebp)
  30368c:	eb 4a                	jmp    3036d8 <__vsnprintf+0x1ca>
  30368e:	83 7d f4 04          	cmpl   $0x4,-0xc(%ebp)
  303692:	75 14                	jne    3036a8 <__vsnprintf+0x19a>
  303694:	8b 45 14             	mov    0x14(%ebp),%eax
  303697:	8d 50 04             	lea    0x4(%eax),%edx
  30369a:	89 55 14             	mov    %edx,0x14(%ebp)
  30369d:	8b 00                	mov    (%eax),%eax
  30369f:	99                   	cltd   
  3036a0:	89 45 e0             	mov    %eax,-0x20(%ebp)
  3036a3:	89 55 e4             	mov    %edx,-0x1c(%ebp)
  3036a6:	eb 30                	jmp    3036d8 <__vsnprintf+0x1ca>
  3036a8:	83 7d f4 02          	cmpl   $0x2,-0xc(%ebp)
  3036ac:	75 15                	jne    3036c3 <__vsnprintf+0x1b5>
  3036ae:	8b 45 14             	mov    0x14(%ebp),%eax
  3036b1:	8d 50 04             	lea    0x4(%eax),%edx
  3036b4:	89 55 14             	mov    %edx,0x14(%ebp)
  3036b7:	8b 00                	mov    (%eax),%eax
  3036b9:	98                   	cwtl   
  3036ba:	99                   	cltd   
  3036bb:	89 45 e0             	mov    %eax,-0x20(%ebp)
  3036be:	89 55 e4             	mov    %edx,-0x1c(%ebp)
  3036c1:	eb 15                	jmp    3036d8 <__vsnprintf+0x1ca>
  3036c3:	8b 45 14             	mov    0x14(%ebp),%eax
  3036c6:	8d 50 04             	lea    0x4(%eax),%edx
  3036c9:	89 55 14             	mov    %edx,0x14(%ebp)
  3036cc:	8b 00                	mov    (%eax),%eax
  3036ce:	0f be c0             	movsbl %al,%eax
  3036d1:	99                   	cltd   
  3036d2:	89 45 e0             	mov    %eax,-0x20(%ebp)
  3036d5:	89 55 e4             	mov    %edx,-0x1c(%ebp)
  3036d8:	ff 75 e4             	pushl  -0x1c(%ebp)
  3036db:	ff 75 e0             	pushl  -0x20(%ebp)
  3036de:	ff 75 0c             	pushl  0xc(%ebp)
  3036e1:	8d 45 94             	lea    -0x6c(%ebp),%eax
  3036e4:	50                   	push   %eax
  3036e5:	e8 39 fb ff ff       	call   303223 <__format_add_idec>
  3036ea:	83 c4 10             	add    $0x10,%esp
  3036ed:	e9 bd 01 00 00       	jmp    3038af <__vsnprintf+0x3a1>
  3036f2:	80 7d d7 75          	cmpb   $0x75,-0x29(%ebp)
  3036f6:	74 0a                	je     303702 <__vsnprintf+0x1f4>
  3036f8:	80 7d d7 78          	cmpb   $0x78,-0x29(%ebp)
  3036fc:	0f 85 b0 00 00 00    	jne    3037b2 <__vsnprintf+0x2a4>
  303702:	83 7d f4 07          	cmpl   $0x7,-0xc(%ebp)
  303706:	76 16                	jbe    30371e <__vsnprintf+0x210>
  303708:	8b 45 14             	mov    0x14(%ebp),%eax
  30370b:	8d 50 08             	lea    0x8(%eax),%edx
  30370e:	89 55 14             	mov    %edx,0x14(%ebp)
  303711:	8b 50 04             	mov    0x4(%eax),%edx
  303714:	8b 00                	mov    (%eax),%eax
  303716:	89 45 d8             	mov    %eax,-0x28(%ebp)
  303719:	89 55 dc             	mov    %edx,-0x24(%ebp)
  30371c:	eb 55                	jmp    303773 <__vsnprintf+0x265>
  30371e:	83 7d f4 04          	cmpl   $0x4,-0xc(%ebp)
  303722:	75 17                	jne    30373b <__vsnprintf+0x22d>
  303724:	8b 45 14             	mov    0x14(%ebp),%eax
  303727:	8d 50 04             	lea    0x4(%eax),%edx
  30372a:	89 55 14             	mov    %edx,0x14(%ebp)
  30372d:	8b 00                	mov    (%eax),%eax
  30372f:	89 45 d8             	mov    %eax,-0x28(%ebp)
  303732:	c7 45 dc 00 00 00 00 	movl   $0x0,-0x24(%ebp)
  303739:	eb 38                	jmp    303773 <__vsnprintf+0x265>
  30373b:	83 7d f4 02          	cmpl   $0x2,-0xc(%ebp)
  30373f:	75 1a                	jne    30375b <__vsnprintf+0x24d>
  303741:	8b 45 14             	mov    0x14(%ebp),%eax
  303744:	8d 50 04             	lea    0x4(%eax),%edx
  303747:	89 55 14             	mov    %edx,0x14(%ebp)
  30374a:	8b 00                	mov    (%eax),%eax
  30374c:	0f b7 c0             	movzwl %ax,%eax
  30374f:	89 45 d8             	mov    %eax,-0x28(%ebp)
  303752:	c7 45 dc 00 00 00 00 	movl   $0x0,-0x24(%ebp)
  303759:	eb 18                	jmp    303773 <__vsnprintf+0x265>
  30375b:	8b 45 14             	mov    0x14(%ebp),%eax
  30375e:	8d 50 04             	lea    0x4(%eax),%edx
  303761:	89 55 14             	mov    %edx,0x14(%ebp)
  303764:	8b 00                	mov    (%eax),%eax
  303766:	0f b6 c0             	movzbl %al,%eax
  303769:	89 45 d8             	mov    %eax,-0x28(%ebp)
  30376c:	c7 45 dc 00 00 00 00 	movl   $0x0,-0x24(%ebp)
  303773:	80 7d d7 75          	cmpb   $0x75,-0x29(%ebp)
  303777:	75 1a                	jne    303793 <__vsnprintf+0x285>
  303779:	ff 75 dc             	pushl  -0x24(%ebp)
  30377c:	ff 75 d8             	pushl  -0x28(%ebp)
  30377f:	ff 75 0c             	pushl  0xc(%ebp)
  303782:	8d 45 94             	lea    -0x6c(%ebp),%eax
  303785:	50                   	push   %eax
  303786:	e8 99 fb ff ff       	call   303324 <__format_add_udec>
  30378b:	83 c4 10             	add    $0x10,%esp
  30378e:	e9 1c 01 00 00       	jmp    3038af <__vsnprintf+0x3a1>
  303793:	83 ec 0c             	sub    $0xc,%esp
  303796:	6a 00                	push   $0x0
  303798:	ff 75 dc             	pushl  -0x24(%ebp)
  30379b:	ff 75 d8             	pushl  -0x28(%ebp)
  30379e:	ff 75 0c             	pushl  0xc(%ebp)
  3037a1:	8d 45 94             	lea    -0x6c(%ebp),%eax
  3037a4:	50                   	push   %eax
  3037a5:	e8 35 fd ff ff       	call   3034df <__format_add_hex>
  3037aa:	83 c4 20             	add    $0x20,%esp
  3037ad:	e9 fd 00 00 00       	jmp    3038af <__vsnprintf+0x3a1>
  3037b2:	80 7d d7 44          	cmpb   $0x44,-0x29(%ebp)
  3037b6:	75 2e                	jne    3037e6 <__vsnprintf+0x2d8>
  3037b8:	8b 45 14             	mov    0x14(%ebp),%eax
  3037bb:	8d 50 08             	lea    0x8(%eax),%edx
  3037be:	89 55 14             	mov    %edx,0x14(%ebp)
  3037c1:	8b 50 04             	mov    0x4(%eax),%edx
  3037c4:	8b 00                	mov    (%eax),%eax
  3037c6:	89 45 b8             	mov    %eax,-0x48(%ebp)
  3037c9:	89 55 bc             	mov    %edx,-0x44(%ebp)
  3037cc:	ff 75 bc             	pushl  -0x44(%ebp)
  3037cf:	ff 75 b8             	pushl  -0x48(%ebp)
  3037d2:	ff 75 0c             	pushl  0xc(%ebp)
  3037d5:	8d 45 94             	lea    -0x6c(%ebp),%eax
  3037d8:	50                   	push   %eax
  3037d9:	e8 45 fa ff ff       	call   303223 <__format_add_idec>
  3037de:	83 c4 10             	add    $0x10,%esp
  3037e1:	e9 c9 00 00 00       	jmp    3038af <__vsnprintf+0x3a1>
  3037e6:	80 7d d7 58          	cmpb   $0x58,-0x29(%ebp)
  3037ea:	75 33                	jne    30381f <__vsnprintf+0x311>
  3037ec:	8b 45 14             	mov    0x14(%ebp),%eax
  3037ef:	8d 50 08             	lea    0x8(%eax),%edx
  3037f2:	89 55 14             	mov    %edx,0x14(%ebp)
  3037f5:	8b 50 04             	mov    0x4(%eax),%edx
  3037f8:	8b 00                	mov    (%eax),%eax
  3037fa:	89 45 c0             	mov    %eax,-0x40(%ebp)
  3037fd:	89 55 c4             	mov    %edx,-0x3c(%ebp)
  303800:	83 ec 0c             	sub    $0xc,%esp
  303803:	6a 00                	push   $0x0
  303805:	ff 75 c4             	pushl  -0x3c(%ebp)
  303808:	ff 75 c0             	pushl  -0x40(%ebp)
  30380b:	ff 75 0c             	pushl  0xc(%ebp)
  30380e:	8d 45 94             	lea    -0x6c(%ebp),%eax
  303811:	50                   	push   %eax
  303812:	e8 c8 fc ff ff       	call   3034df <__format_add_hex>
  303817:	83 c4 20             	add    $0x20,%esp
  30381a:	e9 90 00 00 00       	jmp    3038af <__vsnprintf+0x3a1>
  30381f:	80 7d d7 70          	cmpb   $0x70,-0x29(%ebp)
  303823:	75 48                	jne    30386d <__vsnprintf+0x35f>
  303825:	8b 45 14             	mov    0x14(%ebp),%eax
  303828:	8d 50 04             	lea    0x4(%eax),%edx
  30382b:	89 55 14             	mov    %edx,0x14(%ebp)
  30382e:	8b 00                	mov    (%eax),%eax
  303830:	89 45 c8             	mov    %eax,-0x38(%ebp)
  303833:	c7 45 cc 00 00 00 00 	movl   $0x0,-0x34(%ebp)
  30383a:	83 ec 04             	sub    $0x4,%esp
  30383d:	68 98 4d 30 00       	push   $0x304d98
  303842:	ff 75 0c             	pushl  0xc(%ebp)
  303845:	8d 45 94             	lea    -0x6c(%ebp),%eax
  303848:	50                   	push   %eax
  303849:	e8 0f f9 ff ff       	call   30315d <__format_add_str>
  30384e:	83 c4 10             	add    $0x10,%esp
  303851:	83 ec 0c             	sub    $0xc,%esp
  303854:	6a 00                	push   $0x0
  303856:	ff 75 cc             	pushl  -0x34(%ebp)
  303859:	ff 75 c8             	pushl  -0x38(%ebp)
  30385c:	ff 75 0c             	pushl  0xc(%ebp)
  30385f:	8d 45 94             	lea    -0x6c(%ebp),%eax
  303862:	50                   	push   %eax
  303863:	e8 77 fc ff ff       	call   3034df <__format_add_hex>
  303868:	83 c4 20             	add    $0x20,%esp
  30386b:	eb 42                	jmp    3038af <__vsnprintf+0x3a1>
  30386d:	80 7d d7 2f          	cmpb   $0x2f,-0x29(%ebp)
  303871:	7e 08                	jle    30387b <__vsnprintf+0x36d>
  303873:	80 7d d7 39          	cmpb   $0x39,-0x29(%ebp)
  303877:	7f 02                	jg     30387b <__vsnprintf+0x36d>
  303879:	eb 71                	jmp    3038ec <__vsnprintf+0x3de>
  30387b:	80 7d d7 25          	cmpb   $0x25,-0x29(%ebp)
  30387f:	75 19                	jne    30389a <__vsnprintf+0x38c>
  303881:	0f be 45 d7          	movsbl -0x29(%ebp),%eax
  303885:	83 ec 04             	sub    $0x4,%esp
  303888:	50                   	push   %eax
  303889:	ff 75 0c             	pushl  0xc(%ebp)
  30388c:	8d 45 94             	lea    -0x6c(%ebp),%eax
  30388f:	50                   	push   %eax
  303890:	e8 d8 f7 ff ff       	call   30306d <__buf_add>
  303895:	83 c4 10             	add    $0x10,%esp
  303898:	eb 15                	jmp    3038af <__vsnprintf+0x3a1>
  30389a:	0f be 45 d7          	movsbl -0x29(%ebp),%eax
  30389e:	83 ec 08             	sub    $0x8,%esp
  3038a1:	50                   	push   %eax
  3038a2:	68 9b 4d 30 00       	push   $0x304d9b
  3038a7:	e8 fd f7 ff ff       	call   3030a9 <panic>
  3038ac:	83 c4 10             	add    $0x10,%esp
  3038af:	c7 45 f0 00 00 00 00 	movl   $0x0,-0x10(%ebp)
  3038b6:	c7 45 ec 00 00 00 00 	movl   $0x0,-0x14(%ebp)
  3038bd:	eb 2d                	jmp    3038ec <__vsnprintf+0x3de>
  3038bf:	80 7d d7 25          	cmpb   $0x25,-0x29(%ebp)
  3038c3:	75 10                	jne    3038d5 <__vsnprintf+0x3c7>
  3038c5:	c7 45 f0 01 00 00 00 	movl   $0x1,-0x10(%ebp)
  3038cc:	c7 45 f4 04 00 00 00 	movl   $0x4,-0xc(%ebp)
  3038d3:	eb 17                	jmp    3038ec <__vsnprintf+0x3de>
  3038d5:	0f be 45 d7          	movsbl -0x29(%ebp),%eax
  3038d9:	83 ec 04             	sub    $0x4,%esp
  3038dc:	50                   	push   %eax
  3038dd:	ff 75 0c             	pushl  0xc(%ebp)
  3038e0:	8d 45 94             	lea    -0x6c(%ebp),%eax
  3038e3:	50                   	push   %eax
  3038e4:	e8 84 f7 ff ff       	call   30306d <__buf_add>
  3038e9:	83 c4 10             	add    $0x10,%esp
  3038ec:	8b 45 10             	mov    0x10(%ebp),%eax
  3038ef:	0f b6 00             	movzbl (%eax),%eax
  3038f2:	84 c0                	test   %al,%al
  3038f4:	0f 85 4f fc ff ff    	jne    303549 <__vsnprintf+0x3b>
  3038fa:	8b 4d 94             	mov    -0x6c(%ebp),%ecx
  3038fd:	8b 45 9c             	mov    -0x64(%ebp),%eax
  303900:	8d 50 01             	lea    0x1(%eax),%edx
  303903:	89 55 9c             	mov    %edx,-0x64(%ebp)
  303906:	01 c8                	add    %ecx,%eax
  303908:	c6 00 00             	movb   $0x0,(%eax)
  30390b:	8b 45 9c             	mov    -0x64(%ebp),%eax
  30390e:	c9                   	leave  
  30390f:	c3                   	ret    

00303910 <__uart_flush_recv>:
  303910:	55                   	push   %ebp
  303911:	89 e5                	mov    %esp,%ebp
  303913:	83 ec 14             	sub    $0x14,%esp
  303916:	8b 45 08             	mov    0x8(%ebp),%eax
  303919:	66 89 45 ec          	mov    %ax,-0x14(%ebp)
  30391d:	eb 0a                	jmp    303929 <__uart_flush_recv+0x19>
  30391f:	0f b7 45 ec          	movzwl -0x14(%ebp),%eax
  303923:	89 c2                	mov    %eax,%edx
  303925:	ec                   	in     (%dx),%al
  303926:	88 45 fe             	mov    %al,-0x2(%ebp)
  303929:	0f b7 45 ec          	movzwl -0x14(%ebp),%eax
  30392d:	83 c0 05             	add    $0x5,%eax
  303930:	89 c2                	mov    %eax,%edx
  303932:	ec                   	in     (%dx),%al
  303933:	88 45 ff             	mov    %al,-0x1(%ebp)
  303936:	0f b6 45 ff          	movzbl -0x1(%ebp),%eax
  30393a:	0f b6 c0             	movzbl %al,%eax
  30393d:	83 e0 01             	and    $0x1,%eax
  303940:	85 c0                	test   %eax,%eax
  303942:	75 db                	jne    30391f <__uart_flush_recv+0xf>
  303944:	90                   	nop
  303945:	c9                   	leave  
  303946:	c3                   	ret    

00303947 <__uart_fifo_init>:
  303947:	55                   	push   %ebp
  303948:	89 e5                	mov    %esp,%ebp
  30394a:	83 ec 14             	sub    $0x14,%esp
  30394d:	8b 45 08             	mov    0x8(%ebp),%eax
  303950:	66 89 45 ec          	mov    %ax,-0x14(%ebp)
  303954:	0f b7 45 ec          	movzwl -0x14(%ebp),%eax
  303958:	8d 50 03             	lea    0x3(%eax),%edx
  30395b:	b8 bf 00 00 00       	mov    $0xbf,%eax
  303960:	ee                   	out    %al,(%dx)
  303961:	c6 45 fe 00          	movb   $0x0,-0x2(%ebp)
  303965:	0f b6 45 fe          	movzbl -0x2(%ebp),%eax
  303969:	83 c8 10             	or     $0x10,%eax
  30396c:	88 45 fe             	mov    %al,-0x2(%ebp)
  30396f:	0f b6 45 fe          	movzbl -0x2(%ebp),%eax
  303973:	0f b7 55 ec          	movzwl -0x14(%ebp),%edx
  303977:	83 c2 02             	add    $0x2,%edx
  30397a:	ee                   	out    %al,(%dx)
  30397b:	0f b6 45 ff          	movzbl -0x1(%ebp),%eax
  30397f:	83 e0 fe             	and    $0xfffffffe,%eax
  303982:	88 45 ff             	mov    %al,-0x1(%ebp)
  303985:	0f b6 45 ff          	movzbl -0x1(%ebp),%eax
  303989:	83 e0 f7             	and    $0xfffffff7,%eax
  30398c:	88 45 ff             	mov    %al,-0x1(%ebp)
  30398f:	0f b6 45 ff          	movzbl -0x1(%ebp),%eax
  303993:	0f b7 55 ec          	movzwl -0x14(%ebp),%edx
  303997:	83 c2 02             	add    $0x2,%edx
  30399a:	ee                   	out    %al,(%dx)
  30399b:	0f b7 45 ec          	movzwl -0x14(%ebp),%eax
  30399f:	8d 50 03             	lea    0x3(%eax),%edx
  3039a2:	b8 00 00 00 00       	mov    $0x0,%eax
  3039a7:	ee                   	out    %al,(%dx)
  3039a8:	c6 45 fe 00          	movb   $0x0,-0x2(%ebp)
  3039ac:	0f b6 45 fe          	movzbl -0x2(%ebp),%eax
  3039b0:	83 c8 40             	or     $0x40,%eax
  3039b3:	88 45 fe             	mov    %al,-0x2(%ebp)
  3039b6:	0f b6 45 fe          	movzbl -0x2(%ebp),%eax
  3039ba:	83 c8 80             	or     $0xffffff80,%eax
  3039bd:	88 45 fe             	mov    %al,-0x2(%ebp)
  3039c0:	0f b6 45 fe          	movzbl -0x2(%ebp),%eax
  3039c4:	0f b7 55 ec          	movzwl -0x14(%ebp),%edx
  3039c8:	83 c2 02             	add    $0x2,%edx
  3039cb:	ee                   	out    %al,(%dx)
  3039cc:	90                   	nop
  3039cd:	c9                   	leave  
  3039ce:	c3                   	ret    

003039cf <__uart_common_init>:
  3039cf:	55                   	push   %ebp
  3039d0:	89 e5                	mov    %esp,%ebp
  3039d2:	83 ec 14             	sub    $0x14,%esp
  3039d5:	8b 45 08             	mov    0x8(%ebp),%eax
  3039d8:	66 89 45 ec          	mov    %ax,-0x14(%ebp)
  3039dc:	0f b7 45 ec          	movzwl -0x14(%ebp),%eax
  3039e0:	8d 50 03             	lea    0x3(%eax),%edx
  3039e3:	b8 80 00 00 00       	mov    $0x80,%eax
  3039e8:	ee                   	out    %al,(%dx)
  3039e9:	b8 01 00 00 00       	mov    $0x1,%eax
  3039ee:	0f b7 55 ec          	movzwl -0x14(%ebp),%edx
  3039f2:	ee                   	out    %al,(%dx)
  3039f3:	0f b7 45 ec          	movzwl -0x14(%ebp),%eax
  3039f7:	8d 50 01             	lea    0x1(%eax),%edx
  3039fa:	b8 00 00 00 00       	mov    $0x0,%eax
  3039ff:	ee                   	out    %al,(%dx)
  303a00:	c6 45 fe 00          	movb   $0x0,-0x2(%ebp)
  303a04:	0f b6 45 fe          	movzbl -0x2(%ebp),%eax
  303a08:	83 c8 03             	or     $0x3,%eax
  303a0b:	88 45 fe             	mov    %al,-0x2(%ebp)
  303a0e:	0f b6 45 fe          	movzbl -0x2(%ebp),%eax
  303a12:	0f b7 55 ec          	movzwl -0x14(%ebp),%edx
  303a16:	83 c2 03             	add    $0x3,%edx
  303a19:	ee                   	out    %al,(%dx)
  303a1a:	c6 45 ff 00          	movb   $0x0,-0x1(%ebp)
  303a1e:	0f b6 45 ff          	movzbl -0x1(%ebp),%eax
  303a22:	0f b7 55 ec          	movzwl -0x14(%ebp),%edx
  303a26:	83 c2 01             	add    $0x1,%edx
  303a29:	ee                   	out    %al,(%dx)
  303a2a:	0f b7 45 ec          	movzwl -0x14(%ebp),%eax
  303a2e:	50                   	push   %eax
  303a2f:	e8 dc fe ff ff       	call   303910 <__uart_flush_recv>
  303a34:	83 c4 04             	add    $0x4,%esp
  303a37:	90                   	nop
  303a38:	c9                   	leave  
  303a39:	c3                   	ret    

00303a3a <uart_init>:
  303a3a:	55                   	push   %ebp
  303a3b:	89 e5                	mov    %esp,%ebp
  303a3d:	68 f8 03 00 00       	push   $0x3f8
  303a42:	e8 00 ff ff ff       	call   303947 <__uart_fifo_init>
  303a47:	83 c4 04             	add    $0x4,%esp
  303a4a:	68 f8 03 00 00       	push   $0x3f8
  303a4f:	e8 7b ff ff ff       	call   3039cf <__uart_common_init>
  303a54:	83 c4 04             	add    $0x4,%esp
  303a57:	90                   	nop
  303a58:	c9                   	leave  
  303a59:	c3                   	ret    

00303a5a <__uart_read>:
  303a5a:	55                   	push   %ebp
  303a5b:	89 e5                	mov    %esp,%ebp
  303a5d:	83 ec 14             	sub    $0x14,%esp
  303a60:	8b 45 08             	mov    0x8(%ebp),%eax
  303a63:	66 89 45 ec          	mov    %ax,-0x14(%ebp)
  303a67:	eb 2c                	jmp    303a95 <__uart_read+0x3b>
  303a69:	0f b7 45 ec          	movzwl -0x14(%ebp),%eax
  303a6d:	89 c2                	mov    %eax,%edx
  303a6f:	ec                   	in     (%dx),%al
  303a70:	88 45 fe             	mov    %al,-0x2(%ebp)
  303a73:	0f b6 45 fe          	movzbl -0x2(%ebp),%eax
  303a77:	8b 55 0c             	mov    0xc(%ebp),%edx
  303a7a:	8b 0a                	mov    (%edx),%ecx
  303a7c:	8b 55 0c             	mov    0xc(%ebp),%edx
  303a7f:	8b 52 08             	mov    0x8(%edx),%edx
  303a82:	01 ca                	add    %ecx,%edx
  303a84:	88 02                	mov    %al,(%edx)
  303a86:	8b 45 0c             	mov    0xc(%ebp),%eax
  303a89:	8b 40 08             	mov    0x8(%eax),%eax
  303a8c:	8d 50 01             	lea    0x1(%eax),%edx
  303a8f:	8b 45 0c             	mov    0xc(%ebp),%eax
  303a92:	89 50 08             	mov    %edx,0x8(%eax)
  303a95:	0f b7 45 ec          	movzwl -0x14(%ebp),%eax
  303a99:	83 c0 05             	add    $0x5,%eax
  303a9c:	89 c2                	mov    %eax,%edx
  303a9e:	ec                   	in     (%dx),%al
  303a9f:	88 45 ff             	mov    %al,-0x1(%ebp)
  303aa2:	0f b6 45 ff          	movzbl -0x1(%ebp),%eax
  303aa6:	0f b6 c0             	movzbl %al,%eax
  303aa9:	83 e0 01             	and    $0x1,%eax
  303aac:	85 c0                	test   %eax,%eax
  303aae:	74 0b                	je     303abb <__uart_read+0x61>
  303ab0:	8b 45 0c             	mov    0xc(%ebp),%eax
  303ab3:	8b 40 08             	mov    0x8(%eax),%eax
  303ab6:	39 45 10             	cmp    %eax,0x10(%ebp)
  303ab9:	77 ae                	ja     303a69 <__uart_read+0xf>
  303abb:	90                   	nop
  303abc:	c9                   	leave  
  303abd:	c3                   	ret    

00303abe <__uart_write>:
  303abe:	55                   	push   %ebp
  303abf:	89 e5                	mov    %esp,%ebp
  303ac1:	83 ec 14             	sub    $0x14,%esp
  303ac4:	8b 45 08             	mov    0x8(%ebp),%eax
  303ac7:	66 89 45 ec          	mov    %ax,-0x14(%ebp)
  303acb:	eb 3f                	jmp    303b0c <__uart_write+0x4e>
  303acd:	0f b7 45 ec          	movzwl -0x14(%ebp),%eax
  303ad1:	83 c0 05             	add    $0x5,%eax
  303ad4:	89 c2                	mov    %eax,%edx
  303ad6:	ec                   	in     (%dx),%al
  303ad7:	88 45 ff             	mov    %al,-0x1(%ebp)
  303ada:	0f b6 45 ff          	movzbl -0x1(%ebp),%eax
  303ade:	0f b6 c0             	movzbl %al,%eax
  303ae1:	83 e0 20             	and    $0x20,%eax
  303ae4:	85 c0                	test   %eax,%eax
  303ae6:	74 24                	je     303b0c <__uart_write+0x4e>
  303ae8:	8b 45 0c             	mov    0xc(%ebp),%eax
  303aeb:	8b 10                	mov    (%eax),%edx
  303aed:	8b 45 0c             	mov    0xc(%ebp),%eax
  303af0:	8b 40 08             	mov    0x8(%eax),%eax
  303af3:	01 d0                	add    %edx,%eax
  303af5:	0f b6 00             	movzbl (%eax),%eax
  303af8:	0f b7 55 ec          	movzwl -0x14(%ebp),%edx
  303afc:	ee                   	out    %al,(%dx)
  303afd:	8b 45 0c             	mov    0xc(%ebp),%eax
  303b00:	8b 40 08             	mov    0x8(%eax),%eax
  303b03:	8d 50 01             	lea    0x1(%eax),%edx
  303b06:	8b 45 0c             	mov    0xc(%ebp),%eax
  303b09:	89 50 08             	mov    %edx,0x8(%eax)
  303b0c:	8b 45 0c             	mov    0xc(%ebp),%eax
  303b0f:	8b 40 08             	mov    0x8(%eax),%eax
  303b12:	39 45 10             	cmp    %eax,0x10(%ebp)
  303b15:	77 b6                	ja     303acd <__uart_write+0xf>
  303b17:	90                   	nop
  303b18:	c9                   	leave  
  303b19:	c3                   	ret    

00303b1a <uart_read>:
  303b1a:	55                   	push   %ebp
  303b1b:	89 e5                	mov    %esp,%ebp
  303b1d:	83 ec 10             	sub    $0x10,%esp
  303b20:	8b 45 08             	mov    0x8(%ebp),%eax
  303b23:	89 45 f4             	mov    %eax,-0xc(%ebp)
  303b26:	c7 45 fc 00 00 00 00 	movl   $0x0,-0x4(%ebp)
  303b2d:	ff 75 0c             	pushl  0xc(%ebp)
  303b30:	8d 45 f4             	lea    -0xc(%ebp),%eax
  303b33:	50                   	push   %eax
  303b34:	68 f8 03 00 00       	push   $0x3f8
  303b39:	e8 1c ff ff ff       	call   303a5a <__uart_read>
  303b3e:	83 c4 0c             	add    $0xc,%esp
  303b41:	8b 45 fc             	mov    -0x4(%ebp),%eax
  303b44:	c9                   	leave  
  303b45:	c3                   	ret    

00303b46 <uart_write>:
  303b46:	55                   	push   %ebp
  303b47:	89 e5                	mov    %esp,%ebp
  303b49:	83 ec 10             	sub    $0x10,%esp
  303b4c:	8b 45 08             	mov    0x8(%ebp),%eax
  303b4f:	89 45 f4             	mov    %eax,-0xc(%ebp)
  303b52:	c7 45 fc 00 00 00 00 	movl   $0x0,-0x4(%ebp)
  303b59:	ff 75 0c             	pushl  0xc(%ebp)
  303b5c:	8d 45 f4             	lea    -0xc(%ebp),%eax
  303b5f:	50                   	push   %eax
  303b60:	68 f8 03 00 00       	push   $0x3f8
  303b65:	e8 54 ff ff ff       	call   303abe <__uart_write>
  303b6a:	83 c4 0c             	add    $0xc,%esp
  303b6d:	8b 45 fc             	mov    -0x4(%ebp),%eax
  303b70:	c9                   	leave  
  303b71:	c3                   	ret    

00303b72 <uart_flush>:
  303b72:	55                   	push   %ebp
  303b73:	89 e5                	mov    %esp,%ebp
  303b75:	83 ec 10             	sub    $0x10,%esp
  303b78:	c7 45 fc 10 00 00 00 	movl   $0x10,-0x4(%ebp)
  303b7f:	eb 28                	jmp    303ba9 <uart_flush+0x37>
  303b81:	b8 fd 03 00 00       	mov    $0x3fd,%eax
  303b86:	89 c2                	mov    %eax,%edx
  303b88:	ec                   	in     (%dx),%al
  303b89:	88 45 fb             	mov    %al,-0x5(%ebp)
  303b8c:	0f b6 45 fb          	movzbl -0x5(%ebp),%eax
  303b90:	0f b6 c0             	movzbl %al,%eax
  303b93:	83 e0 20             	and    $0x20,%eax
  303b96:	85 c0                	test   %eax,%eax
  303b98:	74 0f                	je     303ba9 <uart_flush+0x37>
  303b9a:	b8 00 00 00 00       	mov    $0x0,%eax
  303b9f:	ba f8 03 00 00       	mov    $0x3f8,%edx
  303ba4:	ee                   	out    %al,(%dx)
  303ba5:	83 6d fc 01          	subl   $0x1,-0x4(%ebp)
  303ba9:	83 7d fc 00          	cmpl   $0x0,-0x4(%ebp)
  303bad:	75 d2                	jne    303b81 <uart_flush+0xf>
  303baf:	90                   	nop
  303bb0:	c9                   	leave  
  303bb1:	c3                   	ret    

00303bb2 <pic_init>:
  303bb2:	55                   	push   %ebp
  303bb3:	89 e5                	mov    %esp,%ebp
  303bb5:	83 ec 10             	sub    $0x10,%esp
  303bb8:	c6 45 ff 11          	movb   $0x11,-0x1(%ebp)
  303bbc:	0f b6 45 ff          	movzbl -0x1(%ebp),%eax
  303bc0:	ba 20 00 00 00       	mov    $0x20,%edx
  303bc5:	ee                   	out    %al,(%dx)
  303bc6:	0f b6 45 ff          	movzbl -0x1(%ebp),%eax
  303bca:	ba a0 00 00 00       	mov    $0xa0,%edx
  303bcf:	ee                   	out    %al,(%dx)
  303bd0:	c6 45 fe 20          	movb   $0x20,-0x2(%ebp)
  303bd4:	0f b6 45 fe          	movzbl -0x2(%ebp),%eax
  303bd8:	ba 21 00 00 00       	mov    $0x21,%edx
  303bdd:	ee                   	out    %al,(%dx)
  303bde:	c6 45 fe 28          	movb   $0x28,-0x2(%ebp)
  303be2:	0f b6 45 fe          	movzbl -0x2(%ebp),%eax
  303be6:	ba a1 00 00 00       	mov    $0xa1,%edx
  303beb:	ee                   	out    %al,(%dx)
  303bec:	c6 45 fd 00          	movb   $0x0,-0x3(%ebp)
  303bf0:	0f b6 45 fd          	movzbl -0x3(%ebp),%eax
  303bf4:	83 c8 04             	or     $0x4,%eax
  303bf7:	88 45 fd             	mov    %al,-0x3(%ebp)
  303bfa:	0f b6 45 fd          	movzbl -0x3(%ebp),%eax
  303bfe:	ba 21 00 00 00       	mov    $0x21,%edx
  303c03:	ee                   	out    %al,(%dx)
  303c04:	c6 45 fd 00          	movb   $0x0,-0x3(%ebp)
  303c08:	0f b6 45 fd          	movzbl -0x3(%ebp),%eax
  303c0c:	83 e0 f8             	and    $0xfffffff8,%eax
  303c0f:	83 c8 02             	or     $0x2,%eax
  303c12:	88 45 fd             	mov    %al,-0x3(%ebp)
  303c15:	0f b6 45 fd          	movzbl -0x3(%ebp),%eax
  303c19:	ba a1 00 00 00       	mov    $0xa1,%edx
  303c1e:	ee                   	out    %al,(%dx)
  303c1f:	c6 45 fc 01          	movb   $0x1,-0x4(%ebp)
  303c23:	0f b6 45 fc          	movzbl -0x4(%ebp),%eax
  303c27:	ba 21 00 00 00       	mov    $0x21,%edx
  303c2c:	ee                   	out    %al,(%dx)
  303c2d:	0f b6 45 fc          	movzbl -0x4(%ebp),%eax
  303c31:	ba a1 00 00 00       	mov    $0xa1,%edx
  303c36:	ee                   	out    %al,(%dx)
  303c37:	90                   	nop
  303c38:	c9                   	leave  
  303c39:	c3                   	ret    

00303c3a <intr_init>:
  303c3a:	55                   	push   %ebp
  303c3b:	89 e5                	mov    %esp,%ebp
  303c3d:	83 ec 20             	sub    $0x20,%esp
  303c40:	c7 45 fc 10 20 30 00 	movl   $0x302010,-0x4(%ebp)
  303c47:	c7 45 f8 00 00 00 00 	movl   $0x0,-0x8(%ebp)
  303c4e:	e9 8d 00 00 00       	jmp    303ce0 <intr_init+0xa6>
  303c53:	8b 45 fc             	mov    -0x4(%ebp),%eax
  303c56:	89 45 ee             	mov    %eax,-0x12(%ebp)
  303c59:	0f b7 4d ee          	movzwl -0x12(%ebp),%ecx
  303c5d:	0f b7 c1             	movzwl %cx,%eax
  303c60:	ba 00 00 00 00       	mov    $0x0,%edx
  303c65:	8b 4d f8             	mov    -0x8(%ebp),%ecx
  303c68:	89 04 cd 20 57 30 00 	mov    %eax,0x305720(,%ecx,8)
  303c6f:	89 14 cd 24 57 30 00 	mov    %edx,0x305724(,%ecx,8)
  303c76:	8b 45 f8             	mov    -0x8(%ebp),%eax
  303c79:	0f b7 14 c5 22 57 30 	movzwl 0x305722(,%eax,8),%edx
  303c80:	00 
  303c81:	83 e2 00             	and    $0x0,%edx
  303c84:	83 ca 08             	or     $0x8,%edx
  303c87:	66 89 14 c5 22 57 30 	mov    %dx,0x305722(,%eax,8)
  303c8e:	00 
  303c8f:	8b 45 f8             	mov    -0x8(%ebp),%eax
  303c92:	0f b6 14 c5 25 57 30 	movzbl 0x305725(,%eax,8),%edx
  303c99:	00 
  303c9a:	83 e2 f0             	and    $0xfffffff0,%edx
  303c9d:	83 ca 0e             	or     $0xe,%edx
  303ca0:	88 14 c5 25 57 30 00 	mov    %dl,0x305725(,%eax,8)
  303ca7:	0f b7 55 f0          	movzwl -0x10(%ebp),%edx
  303cab:	8b 45 f8             	mov    -0x8(%ebp),%eax
  303cae:	0f b7 0c c5 26 57 30 	movzwl 0x305726(,%eax,8),%ecx
  303cb5:	00 
  303cb6:	83 e1 00             	and    $0x0,%ecx
  303cb9:	09 ca                	or     %ecx,%edx
  303cbb:	66 89 14 c5 26 57 30 	mov    %dx,0x305726(,%eax,8)
  303cc2:	00 
  303cc3:	8b 45 f8             	mov    -0x8(%ebp),%eax
  303cc6:	0f b6 14 c5 25 57 30 	movzbl 0x305725(,%eax,8),%edx
  303ccd:	00 
  303cce:	83 ca 80             	or     $0xffffff80,%edx
  303cd1:	88 14 c5 25 57 30 00 	mov    %dl,0x305725(,%eax,8)
  303cd8:	83 45 f8 01          	addl   $0x1,-0x8(%ebp)
  303cdc:	83 45 fc 10          	addl   $0x10,-0x4(%ebp)
  303ce0:	81 7d f8 ff 00 00 00 	cmpl   $0xff,-0x8(%ebp)
  303ce7:	0f 86 66 ff ff ff    	jbe    303c53 <intr_init+0x19>
  303ced:	c7 45 f4 20 57 30 00 	movl   $0x305720,-0xc(%ebp)
  303cf4:	66 c7 45 f2 ff 07    	movw   $0x7ff,-0xe(%ebp)
  303cfa:	0f 01 5d f2          	lidtl  -0xe(%ebp)
  303cfe:	90                   	nop
  303cff:	c9                   	leave  
  303d00:	c3                   	ret    

00303d01 <intr32_hdlr>:
  303d01:	55                   	push   %ebp
  303d02:	89 e5                	mov    %esp,%ebp
  303d04:	83 ec 28             	sub    $0x28,%esp
  303d07:	89 45 e4             	mov    %eax,-0x1c(%ebp)
  303d0a:	83 ec 0c             	sub    $0xc,%esp
  303d0d:	68 b8 4d 30 00       	push   $0x304db8
  303d12:	e8 ba f3 ff ff       	call   3030d1 <printf>
  303d17:	83 c4 10             	add    $0x10,%esp
  303d1a:	8b 45 e4             	mov    -0x1c(%ebp),%eax
  303d1d:	8b 40 28             	mov    0x28(%eax),%eax
  303d20:	89 45 f4             	mov    %eax,-0xc(%ebp)
  303d23:	a1 20 5f 30 00       	mov    0x305f20,%eax
  303d28:	8b 40 04             	mov    0x4(%eax),%eax
  303d2b:	a3 20 5f 30 00       	mov    %eax,0x305f20
  303d30:	81 7d f4 ff ff 2f 00 	cmpl   $0x2fffff,-0xc(%ebp)
  303d37:	76 1b                	jbe    303d54 <intr32_hdlr+0x53>
  303d39:	81 7d f4 ff ff 3f 00 	cmpl   $0x3fffff,-0xc(%ebp)
  303d40:	77 12                	ja     303d54 <intr32_hdlr+0x53>
  303d42:	83 ec 0c             	sub    $0xc,%esp
  303d45:	68 ce 4d 30 00       	push   $0x304dce
  303d4a:	e8 82 f3 ff ff       	call   3030d1 <printf>
  303d4f:	83 c4 10             	add    $0x10,%esp
  303d52:	eb 46                	jmp    303d9a <intr32_hdlr+0x99>
  303d54:	81 7d f4 ff ff 3f 00 	cmpl   $0x3fffff,-0xc(%ebp)
  303d5b:	76 1b                	jbe    303d78 <intr32_hdlr+0x77>
  303d5d:	81 7d f4 ff ff 7f 00 	cmpl   $0x7fffff,-0xc(%ebp)
  303d64:	77 12                	ja     303d78 <intr32_hdlr+0x77>
  303d66:	83 ec 0c             	sub    $0xc,%esp
  303d69:	68 e8 4d 30 00       	push   $0x304de8
  303d6e:	e8 5e f3 ff ff       	call   3030d1 <printf>
  303d73:	83 c4 10             	add    $0x10,%esp
  303d76:	eb 22                	jmp    303d9a <intr32_hdlr+0x99>
  303d78:	81 7d f4 ff ff 7f 00 	cmpl   $0x7fffff,-0xc(%ebp)
  303d7f:	76 19                	jbe    303d9a <intr32_hdlr+0x99>
  303d81:	81 7d f4 ff ff bf 00 	cmpl   $0xbfffff,-0xc(%ebp)
  303d88:	77 10                	ja     303d9a <intr32_hdlr+0x99>
  303d8a:	83 ec 0c             	sub    $0xc,%esp
  303d8d:	68 01 4e 30 00       	push   $0x304e01
  303d92:	e8 3a f3 ff ff       	call   3030d1 <printf>
  303d97:	83 c4 10             	add    $0x10,%esp
  303d9a:	a1 20 5f 30 00       	mov    0x305f20,%eax
  303d9f:	8b 40 0c             	mov    0xc(%eax),%eax
  303da2:	89 45 f0             	mov    %eax,-0x10(%ebp)
  303da5:	a1 20 5f 30 00       	mov    0x305f20,%eax
  303daa:	8b 00                	mov    (%eax),%eax
  303dac:	0f 22 d8             	mov    %eax,%cr3
  303daf:	a1 20 5f 30 00       	mov    0x305f20,%eax
  303db4:	8b 40 08             	mov    0x8(%eax),%eax
  303db7:	a3 44 5f 30 00       	mov    %eax,0x305f44
  303dbc:	8b 45 f0             	mov    -0x10(%ebp),%eax
  303dbf:	e8 29 03 00 00       	call   3040ed <switch_stack>
  303dc4:	90                   	nop
  303dc5:	c9                   	leave  
  303dc6:	c3                   	ret    

00303dc7 <intr80_hdlr>:
  303dc7:	55                   	push   %ebp
  303dc8:	89 e5                	mov    %esp,%ebp
  303dca:	83 ec 08             	sub    $0x8,%esp
  303dcd:	8b 45 08             	mov    0x8(%ebp),%eax
  303dd0:	8b 40 04             	mov    0x4(%eax),%eax
  303dd3:	83 ec 08             	sub    $0x8,%esp
  303dd6:	50                   	push   %eax
  303dd7:	68 1a 4e 30 00       	push   $0x304e1a
  303ddc:	e8 f0 f2 ff ff       	call   3030d1 <printf>
  303de1:	83 c4 10             	add    $0x10,%esp
  303de4:	90                   	nop
  303de5:	c9                   	leave  
  303de6:	c3                   	ret    

00303de7 <print_intr>:
  303de7:	55                   	push   %ebp
  303de8:	89 e5                	mov    %esp,%ebp
  303dea:	57                   	push   %edi
  303deb:	56                   	push   %esi
  303dec:	53                   	push   %ebx
  303ded:	83 ec 3c             	sub    $0x3c,%esp
  303df0:	8b 45 08             	mov    0x8(%ebp),%eax
  303df3:	8b 38                	mov    (%eax),%edi
  303df5:	8b 45 08             	mov    0x8(%ebp),%eax
  303df8:	8b 40 04             	mov    0x4(%eax),%eax
  303dfb:	89 45 e4             	mov    %eax,-0x1c(%ebp)
  303dfe:	8b 45 08             	mov    0x8(%ebp),%eax
  303e01:	8b 50 08             	mov    0x8(%eax),%edx
  303e04:	89 55 e0             	mov    %edx,-0x20(%ebp)
  303e07:	8b 45 08             	mov    0x8(%ebp),%eax
  303e0a:	8b 48 0c             	mov    0xc(%eax),%ecx
  303e0d:	89 4d dc             	mov    %ecx,-0x24(%ebp)
  303e10:	8b 45 08             	mov    0x8(%ebp),%eax
  303e13:	8b 58 10             	mov    0x10(%eax),%ebx
  303e16:	89 5d d8             	mov    %ebx,-0x28(%ebp)
  303e19:	8b 45 08             	mov    0x8(%ebp),%eax
  303e1c:	8b 70 14             	mov    0x14(%eax),%esi
  303e1f:	89 75 d4             	mov    %esi,-0x2c(%ebp)
  303e22:	8b 45 08             	mov    0x8(%ebp),%eax
  303e25:	8b 40 18             	mov    0x18(%eax),%eax
  303e28:	89 45 d0             	mov    %eax,-0x30(%ebp)
  303e2b:	8b 45 08             	mov    0x8(%ebp),%eax
  303e2e:	8b 50 1c             	mov    0x1c(%eax),%edx
  303e31:	89 55 cc             	mov    %edx,-0x34(%ebp)
  303e34:	8b 45 08             	mov    0x8(%ebp),%eax
  303e37:	8b 48 30             	mov    0x30(%eax),%ecx
  303e3a:	89 4d c8             	mov    %ecx,-0x38(%ebp)
  303e3d:	8b 45 08             	mov    0x8(%ebp),%eax
  303e40:	8b 58 34             	mov    0x34(%eax),%ebx
  303e43:	89 5d c4             	mov    %ebx,-0x3c(%ebp)
  303e46:	8b 45 08             	mov    0x8(%ebp),%eax
  303e49:	8b 70 38             	mov    0x38(%eax),%esi
  303e4c:	8b 45 08             	mov    0x8(%ebp),%eax
  303e4f:	8b 58 28             	mov    0x28(%eax),%ebx
  303e52:	8b 45 08             	mov    0x8(%ebp),%eax
  303e55:	8b 48 2c             	mov    0x2c(%eax),%ecx
  303e58:	8b 45 08             	mov    0x8(%ebp),%eax
  303e5b:	8b 50 24             	mov    0x24(%eax),%edx
  303e5e:	8b 45 08             	mov    0x8(%ebp),%eax
  303e61:	8b 40 20             	mov    0x20(%eax),%eax
  303e64:	57                   	push   %edi
  303e65:	ff 75 e4             	pushl  -0x1c(%ebp)
  303e68:	ff 75 e0             	pushl  -0x20(%ebp)
  303e6b:	ff 75 dc             	pushl  -0x24(%ebp)
  303e6e:	ff 75 d8             	pushl  -0x28(%ebp)
  303e71:	ff 75 d4             	pushl  -0x2c(%ebp)
  303e74:	ff 75 d0             	pushl  -0x30(%ebp)
  303e77:	ff 75 cc             	pushl  -0x34(%ebp)
  303e7a:	ff 75 c8             	pushl  -0x38(%ebp)
  303e7d:	ff 75 c4             	pushl  -0x3c(%ebp)
  303e80:	56                   	push   %esi
  303e81:	53                   	push   %ebx
  303e82:	51                   	push   %ecx
  303e83:	52                   	push   %edx
  303e84:	50                   	push   %eax
  303e85:	68 34 4e 30 00       	push   $0x304e34
  303e8a:	e8 42 f2 ff ff       	call   3030d1 <printf>
  303e8f:	83 c4 40             	add    $0x40,%esp
  303e92:	90                   	nop
  303e93:	8d 65 f4             	lea    -0xc(%ebp),%esp
  303e96:	5b                   	pop    %ebx
  303e97:	5e                   	pop    %esi
  303e98:	5f                   	pop    %edi
  303e99:	5d                   	pop    %ebp
  303e9a:	c3                   	ret    

00303e9b <intr_hdlr>:
  303e9b:	55                   	push   %ebp
  303e9c:	89 e5                	mov    %esp,%ebp
  303e9e:	83 ec 28             	sub    $0x28,%esp
  303ea1:	89 45 e4             	mov    %eax,-0x1c(%ebp)
  303ea4:	8b 45 e4             	mov    -0x1c(%ebp),%eax
  303ea7:	0f b6 40 20          	movzbl 0x20(%eax),%eax
  303eab:	88 45 f7             	mov    %al,-0x9(%ebp)
  303eae:	80 7d f7 20          	cmpb   $0x20,-0x9(%ebp)
  303eb2:	75 0a                	jne    303ebe <intr_hdlr+0x23>
  303eb4:	8b 45 e4             	mov    -0x1c(%ebp),%eax
  303eb7:	e8 45 fe ff ff       	call   303d01 <intr32_hdlr>
  303ebc:	eb 49                	jmp    303f07 <intr_hdlr+0x6c>
  303ebe:	80 7d f7 50          	cmpb   $0x50,-0x9(%ebp)
  303ec2:	75 10                	jne    303ed4 <intr_hdlr+0x39>
  303ec4:	83 ec 0c             	sub    $0xc,%esp
  303ec7:	ff 75 e4             	pushl  -0x1c(%ebp)
  303eca:	e8 f8 fe ff ff       	call   303dc7 <intr80_hdlr>
  303ecf:	83 c4 10             	add    $0x10,%esp
  303ed2:	eb 33                	jmp    303f07 <intr_hdlr+0x6c>
  303ed4:	80 7d f7 1f          	cmpb   $0x1f,-0x9(%ebp)
  303ed8:	77 18                	ja     303ef2 <intr_hdlr+0x57>
  303eda:	83 ec 0c             	sub    $0xc,%esp
  303edd:	ff 75 e4             	pushl  -0x1c(%ebp)
  303ee0:	e8 02 ff ff ff       	call   303de7 <print_intr>
  303ee5:	83 c4 10             	add    $0x10,%esp
  303ee8:	8b 45 e4             	mov    -0x1c(%ebp),%eax
  303eeb:	e8 34 00 00 00       	call   303f24 <excp_hdlr>
  303ef0:	eb 15                	jmp    303f07 <intr_hdlr+0x6c>
  303ef2:	0f b6 45 f7          	movzbl -0x9(%ebp),%eax
  303ef6:	83 ec 08             	sub    $0x8,%esp
  303ef9:	50                   	push   %eax
  303efa:	68 13 4f 30 00       	push   $0x304f13
  303eff:	e8 cd f1 ff ff       	call   3030d1 <printf>
  303f04:	83 c4 10             	add    $0x10,%esp
  303f07:	90                   	nop
  303f08:	c9                   	leave  
  303f09:	c3                   	ret    

00303f0a <ack_pic2>:
  303f0a:	50                   	push   %eax
  303f0b:	b0 20                	mov    $0x20,%al
  303f0d:	e6 a0                	out    %al,$0xa0
  303f0f:	eb 03                	jmp    303f14 <eoi_pic1>

00303f11 <ack_pic1>:
  303f11:	50                   	push   %eax
  303f12:	b0 20                	mov    $0x20,%al

00303f14 <eoi_pic1>:
  303f14:	e6 20                	out    %al,$0x20
  303f16:	58                   	pop    %eax

00303f17 <idt_common>:
  303f17:	60                   	pusha  
  303f18:	89 e0                	mov    %esp,%eax
  303f1a:	e8 7c ff ff ff       	call   303e9b <intr_hdlr>

00303f1f <resume_from_intr>:
  303f1f:	61                   	popa   
  303f20:	83 c4 08             	add    $0x8,%esp
  303f23:	cf                   	iret   

00303f24 <excp_hdlr>:
  303f24:	55                   	push   %ebp
  303f25:	89 e5                	mov    %esp,%ebp
  303f27:	56                   	push   %esi
  303f28:	53                   	push   %ebx
  303f29:	83 ec 20             	sub    $0x20,%esp
  303f2c:	89 45 e4             	mov    %eax,-0x1c(%ebp)
  303f2f:	8b 45 e4             	mov    -0x1c(%ebp),%eax
  303f32:	0f b6 40 20          	movzbl 0x20(%eax),%eax
  303f36:	0f b6 c0             	movzbl %al,%eax
  303f39:	8b 04 85 a0 52 30 00 	mov    0x3052a0(,%eax,4),%eax
  303f40:	83 ec 08             	sub    $0x8,%esp
  303f43:	50                   	push   %eax
  303f44:	68 5d 50 30 00       	push   $0x30505d
  303f49:	e8 83 f1 ff ff       	call   3030d1 <printf>
  303f4e:	83 c4 10             	add    $0x10,%esp
  303f51:	8b 45 e4             	mov    -0x1c(%ebp),%eax
  303f54:	0f b6 40 20          	movzbl 0x20(%eax),%eax
  303f58:	0f b6 c0             	movzbl %al,%eax
  303f5b:	83 f8 0d             	cmp    $0xd,%eax
  303f5e:	74 7f                	je     303fdf <excp_hdlr+0xbb>
  303f60:	83 f8 0e             	cmp    $0xe,%eax
  303f63:	74 1e                	je     303f83 <excp_hdlr+0x5f>
  303f65:	83 f8 02             	cmp    $0x2,%eax
  303f68:	0f 85 cb 00 00 00    	jne    304039 <excp_hdlr+0x115>
  303f6e:	83 ec 0c             	sub    $0xc,%esp
  303f71:	68 6d 50 30 00       	push   $0x30506d
  303f76:	e8 56 f1 ff ff       	call   3030d1 <printf>
  303f7b:	83 c4 10             	add    $0x10,%esp
  303f7e:	e9 0c 01 00 00       	jmp    30408f <excp_hdlr+0x16b>
  303f83:	0f 20 d0             	mov    %cr2,%eax
  303f86:	89 45 f4             	mov    %eax,-0xc(%ebp)
  303f89:	8b 75 f4             	mov    -0xc(%ebp),%esi
  303f8c:	8b 45 e4             	mov    -0x1c(%ebp),%eax
  303f8f:	0f b6 40 24          	movzbl 0x24(%eax),%eax
  303f93:	c0 e8 04             	shr    $0x4,%al
  303f96:	83 e0 01             	and    $0x1,%eax
  303f99:	0f b6 d8             	movzbl %al,%ebx
  303f9c:	8b 45 e4             	mov    -0x1c(%ebp),%eax
  303f9f:	0f b6 40 24          	movzbl 0x24(%eax),%eax
  303fa3:	c0 e8 02             	shr    $0x2,%al
  303fa6:	83 e0 01             	and    $0x1,%eax
  303fa9:	0f b6 c8             	movzbl %al,%ecx
  303fac:	8b 45 e4             	mov    -0x1c(%ebp),%eax
  303faf:	0f b6 40 24          	movzbl 0x24(%eax),%eax
  303fb3:	d0 e8                	shr    %al
  303fb5:	83 e0 01             	and    $0x1,%eax
  303fb8:	0f b6 d0             	movzbl %al,%edx
  303fbb:	8b 45 e4             	mov    -0x1c(%ebp),%eax
  303fbe:	0f b6 40 24          	movzbl 0x24(%eax),%eax
  303fc2:	83 e0 01             	and    $0x1,%eax
  303fc5:	0f b6 c0             	movzbl %al,%eax
  303fc8:	83 ec 08             	sub    $0x8,%esp
  303fcb:	56                   	push   %esi
  303fcc:	53                   	push   %ebx
  303fcd:	51                   	push   %ecx
  303fce:	52                   	push   %edx
  303fcf:	50                   	push   %eax
  303fd0:	68 80 50 30 00       	push   $0x305080
  303fd5:	e8 f7 f0 ff ff       	call   3030d1 <printf>
  303fda:	83 c4 20             	add    $0x20,%esp
  303fdd:	eb 5a                	jmp    304039 <excp_hdlr+0x115>
  303fdf:	8b 45 e4             	mov    -0x1c(%ebp),%eax
  303fe2:	0f b6 50 24          	movzbl 0x24(%eax),%edx
  303fe6:	c0 ea 03             	shr    $0x3,%dl
  303fe9:	0f b6 d2             	movzbl %dl,%edx
  303fec:	0f b6 40 25          	movzbl 0x25(%eax),%eax
  303ff0:	c1 e0 05             	shl    $0x5,%eax
  303ff3:	09 d0                	or     %edx,%eax
  303ff5:	0f b7 d8             	movzwl %ax,%ebx
  303ff8:	8b 45 e4             	mov    -0x1c(%ebp),%eax
  303ffb:	0f b6 40 24          	movzbl 0x24(%eax),%eax
  303fff:	c0 e8 02             	shr    $0x2,%al
  304002:	83 e0 01             	and    $0x1,%eax
  304005:	0f b6 c8             	movzbl %al,%ecx
  304008:	8b 45 e4             	mov    -0x1c(%ebp),%eax
  30400b:	0f b6 40 24          	movzbl 0x24(%eax),%eax
  30400f:	d0 e8                	shr    %al
  304011:	83 e0 01             	and    $0x1,%eax
  304014:	0f b6 d0             	movzbl %al,%edx
  304017:	8b 45 e4             	mov    -0x1c(%ebp),%eax
  30401a:	0f b6 40 24          	movzbl 0x24(%eax),%eax
  30401e:	83 e0 01             	and    $0x1,%eax
  304021:	0f b6 c0             	movzbl %al,%eax
  304024:	83 ec 0c             	sub    $0xc,%esp
  304027:	53                   	push   %ebx
  304028:	51                   	push   %ecx
  304029:	52                   	push   %edx
  30402a:	50                   	push   %eax
  30402b:	68 b0 50 30 00       	push   $0x3050b0
  304030:	e8 9c f0 ff ff       	call   3030d1 <printf>
  304035:	83 c4 20             	add    $0x20,%esp
  304038:	90                   	nop
  304039:	0f 20 c0             	mov    %cr0,%eax
  30403c:	89 45 f0             	mov    %eax,-0x10(%ebp)
  30403f:	8b 45 f0             	mov    -0x10(%ebp),%eax
  304042:	83 ec 08             	sub    $0x8,%esp
  304045:	50                   	push   %eax
  304046:	68 db 50 30 00       	push   $0x3050db
  30404b:	e8 81 f0 ff ff       	call   3030d1 <printf>
  304050:	83 c4 10             	add    $0x10,%esp
  304053:	0f 20 e0             	mov    %cr4,%eax
  304056:	89 45 ec             	mov    %eax,-0x14(%ebp)
  304059:	8b 45 ec             	mov    -0x14(%ebp),%eax
  30405c:	83 ec 08             	sub    $0x8,%esp
  30405f:	50                   	push   %eax
  304060:	68 e5 50 30 00       	push   $0x3050e5
  304065:	e8 67 f0 ff ff       	call   3030d1 <printf>
  30406a:	83 c4 10             	add    $0x10,%esp
  30406d:	8b 45 e4             	mov    -0x1c(%ebp),%eax
  304070:	8b 40 08             	mov    0x8(%eax),%eax
  304073:	83 ec 0c             	sub    $0xc,%esp
  304076:	50                   	push   %eax
  304077:	e8 1a 00 00 00       	call   304096 <stack_trace>
  30407c:	83 c4 10             	add    $0x10,%esp
  30407f:	83 ec 0c             	sub    $0xc,%esp
  304082:	68 ef 50 30 00       	push   $0x3050ef
  304087:	e8 1d f0 ff ff       	call   3030a9 <panic>
  30408c:	83 c4 10             	add    $0x10,%esp
  30408f:	8d 65 f8             	lea    -0x8(%ebp),%esp
  304092:	5b                   	pop    %ebx
  304093:	5e                   	pop    %esi
  304094:	5d                   	pop    %ebp
  304095:	c3                   	ret    

00304096 <stack_trace>:
  304096:	55                   	push   %ebp
  304097:	89 e5                	mov    %esp,%ebp
  304099:	83 ec 18             	sub    $0x18,%esp
  30409c:	83 ec 0c             	sub    $0xc,%esp
  30409f:	68 02 51 30 00       	push   $0x305102
  3040a4:	e8 28 f0 ff ff       	call   3030d1 <printf>
  3040a9:	83 c4 10             	add    $0x10,%esp
  3040ac:	8b 45 08             	mov    0x8(%ebp),%eax
  3040af:	89 45 f4             	mov    %eax,-0xc(%ebp)
  3040b2:	eb 27                	jmp    3040db <stack_trace+0x45>
  3040b4:	8b 45 f4             	mov    -0xc(%ebp),%eax
  3040b7:	83 c0 04             	add    $0x4,%eax
  3040ba:	8b 00                	mov    (%eax),%eax
  3040bc:	89 45 f0             	mov    %eax,-0x10(%ebp)
  3040bf:	8b 45 f4             	mov    -0xc(%ebp),%eax
  3040c2:	8b 00                	mov    (%eax),%eax
  3040c4:	89 45 f4             	mov    %eax,-0xc(%ebp)
  3040c7:	8b 45 f0             	mov    -0x10(%ebp),%eax
  3040ca:	83 ec 08             	sub    $0x8,%esp
  3040cd:	50                   	push   %eax
  3040ce:	68 16 51 30 00       	push   $0x305116
  3040d3:	e8 f9 ef ff ff       	call   3030d1 <printf>
  3040d8:	83 c4 10             	add    $0x10,%esp
  3040db:	83 7d f4 00          	cmpl   $0x0,-0xc(%ebp)
  3040df:	74 09                	je     3040ea <stack_trace+0x54>
  3040e1:	81 7d f4 10 20 30 00 	cmpl   $0x302010,-0xc(%ebp)
  3040e8:	72 ca                	jb     3040b4 <stack_trace+0x1e>
  3040ea:	90                   	nop
  3040eb:	c9                   	leave  
  3040ec:	c3                   	ret    

003040ed <switch_stack>:
  3040ed:	89 c4                	mov    %eax,%esp
  3040ef:	61                   	popa   
  3040f0:	83 c4 08             	add    $0x8,%esp
  3040f3:	cf                   	iret   

003040f4 <print_gdt>:
  3040f4:	55                   	push   %ebp
  3040f5:	89 e5                	mov    %esp,%ebp
  3040f7:	83 ec 38             	sub    $0x38,%esp
  3040fa:	0f 01 45 d0          	sgdtl  -0x30(%ebp)
  3040fe:	83 ec 0c             	sub    $0xc,%esp
  304101:	68 1c 51 30 00       	push   $0x30511c
  304106:	e8 c6 ef ff ff       	call   3030d1 <printf>
  30410b:	83 c4 10             	add    $0x10,%esp
  30410e:	0f b7 45 d0          	movzwl -0x30(%ebp),%eax
  304112:	0f b7 c0             	movzwl %ax,%eax
  304115:	83 ec 08             	sub    $0x8,%esp
  304118:	50                   	push   %eax
  304119:	68 29 51 30 00       	push   $0x305129
  30411e:	e8 ae ef ff ff       	call   3030d1 <printf>
  304123:	83 c4 10             	add    $0x10,%esp
  304126:	66 8c d0             	mov    %ss,%ax
  304129:	66 89 45 f2          	mov    %ax,-0xe(%ebp)
  30412d:	0f b7 45 f2          	movzwl -0xe(%ebp),%eax
  304131:	0f b7 c0             	movzwl %ax,%eax
  304134:	83 ec 08             	sub    $0x8,%esp
  304137:	50                   	push   %eax
  304138:	68 3a 51 30 00       	push   $0x30513a
  30413d:	e8 8f ef ff ff       	call   3030d1 <printf>
  304142:	83 c4 10             	add    $0x10,%esp
  304145:	66 8c d8             	mov    %ds,%ax
  304148:	66 89 45 f0          	mov    %ax,-0x10(%ebp)
  30414c:	0f b7 45 f0          	movzwl -0x10(%ebp),%eax
  304150:	0f b7 c0             	movzwl %ax,%eax
  304153:	83 ec 08             	sub    $0x8,%esp
  304156:	50                   	push   %eax
  304157:	68 42 51 30 00       	push   $0x305142
  30415c:	e8 70 ef ff ff       	call   3030d1 <printf>
  304161:	83 c4 10             	add    $0x10,%esp
  304164:	66 8c c0             	mov    %es,%ax
  304167:	66 89 45 ee          	mov    %ax,-0x12(%ebp)
  30416b:	0f b7 45 ee          	movzwl -0x12(%ebp),%eax
  30416f:	0f b7 c0             	movzwl %ax,%eax
  304172:	83 ec 08             	sub    $0x8,%esp
  304175:	50                   	push   %eax
  304176:	68 4a 51 30 00       	push   $0x30514a
  30417b:	e8 51 ef ff ff       	call   3030d1 <printf>
  304180:	83 c4 10             	add    $0x10,%esp
  304183:	66 8c e0             	mov    %fs,%ax
  304186:	66 89 45 ec          	mov    %ax,-0x14(%ebp)
  30418a:	0f b7 45 ec          	movzwl -0x14(%ebp),%eax
  30418e:	0f b7 c0             	movzwl %ax,%eax
  304191:	83 ec 08             	sub    $0x8,%esp
  304194:	50                   	push   %eax
  304195:	68 52 51 30 00       	push   $0x305152
  30419a:	e8 32 ef ff ff       	call   3030d1 <printf>
  30419f:	83 c4 10             	add    $0x10,%esp
  3041a2:	66 8c e8             	mov    %gs,%ax
  3041a5:	66 89 45 ea          	mov    %ax,-0x16(%ebp)
  3041a9:	0f b7 45 ea          	movzwl -0x16(%ebp),%eax
  3041ad:	0f b7 c0             	movzwl %ax,%eax
  3041b0:	83 ec 08             	sub    $0x8,%esp
  3041b3:	50                   	push   %eax
  3041b4:	68 5a 51 30 00       	push   $0x30515a
  3041b9:	e8 13 ef ff ff       	call   3030d1 <printf>
  3041be:	83 c4 10             	add    $0x10,%esp
  3041c1:	0f b7 45 d0          	movzwl -0x30(%ebp),%eax
  3041c5:	0f b7 c0             	movzwl %ax,%eax
  3041c8:	83 c0 01             	add    $0x1,%eax
  3041cb:	c1 e8 03             	shr    $0x3,%eax
  3041ce:	89 45 e4             	mov    %eax,-0x1c(%ebp)
  3041d1:	c7 45 f4 00 00 00 00 	movl   $0x0,-0xc(%ebp)
  3041d8:	e9 c8 00 00 00       	jmp    3042a5 <print_gdt+0x1b1>
  3041dd:	8b 45 d2             	mov    -0x2e(%ebp),%eax
  3041e0:	8b 55 f4             	mov    -0xc(%ebp),%edx
  3041e3:	c1 e2 03             	shl    $0x3,%edx
  3041e6:	01 d0                	add    %edx,%eax
  3041e8:	89 45 e0             	mov    %eax,-0x20(%ebp)
  3041eb:	8b 45 e0             	mov    -0x20(%ebp),%eax
  3041ee:	0f b7 40 02          	movzwl 0x2(%eax),%eax
  3041f2:	0f b7 d0             	movzwl %ax,%edx
  3041f5:	8b 45 e0             	mov    -0x20(%ebp),%eax
  3041f8:	0f b6 40 04          	movzbl 0x4(%eax),%eax
  3041fc:	0f b6 c0             	movzbl %al,%eax
  3041ff:	c1 e0 10             	shl    $0x10,%eax
  304202:	01 c2                	add    %eax,%edx
  304204:	8b 45 e0             	mov    -0x20(%ebp),%eax
  304207:	0f b6 40 07          	movzbl 0x7(%eax),%eax
  30420b:	0f b6 c0             	movzbl %al,%eax
  30420e:	c1 e0 18             	shl    $0x18,%eax
  304211:	01 d0                	add    %edx,%eax
  304213:	99                   	cltd   
  304214:	89 45 d8             	mov    %eax,-0x28(%ebp)
  304217:	89 55 dc             	mov    %edx,-0x24(%ebp)
  30421a:	8b 45 e0             	mov    -0x20(%ebp),%eax
  30421d:	0f b7 00             	movzwl (%eax),%eax
  304220:	66 89 45 d6          	mov    %ax,-0x2a(%ebp)
  304224:	83 ec 08             	sub    $0x8,%esp
  304227:	ff 75 f4             	pushl  -0xc(%ebp)
  30422a:	68 64 51 30 00       	push   $0x305164
  30422f:	e8 9d ee ff ff       	call   3030d1 <printf>
  304234:	83 c4 10             	add    $0x10,%esp
  304237:	0f b7 45 d6          	movzwl -0x2a(%ebp),%eax
  30423b:	83 ec 08             	sub    $0x8,%esp
  30423e:	50                   	push   %eax
  30423f:	68 92 51 30 00       	push   $0x305192
  304244:	e8 88 ee ff ff       	call   3030d1 <printf>
  304249:	83 c4 10             	add    $0x10,%esp
  30424c:	83 ec 04             	sub    $0x4,%esp
  30424f:	ff 75 dc             	pushl  -0x24(%ebp)
  304252:	ff 75 d8             	pushl  -0x28(%ebp)
  304255:	68 9e 51 30 00       	push   $0x30519e
  30425a:	e8 72 ee ff ff       	call   3030d1 <printf>
  30425f:	83 c4 10             	add    $0x10,%esp
  304262:	8b 45 e0             	mov    -0x20(%ebp),%eax
  304265:	0f b6 40 05          	movzbl 0x5(%eax),%eax
  304269:	c0 e8 05             	shr    $0x5,%al
  30426c:	83 e0 03             	and    $0x3,%eax
  30426f:	0f b6 c0             	movzbl %al,%eax
  304272:	83 ec 08             	sub    $0x8,%esp
  304275:	50                   	push   %eax
  304276:	68 a9 51 30 00       	push   $0x3051a9
  30427b:	e8 51 ee ff ff       	call   3030d1 <printf>
  304280:	83 c4 10             	add    $0x10,%esp
  304283:	8b 45 e0             	mov    -0x20(%ebp),%eax
  304286:	0f b6 40 05          	movzbl 0x5(%eax),%eax
  30428a:	83 e0 0f             	and    $0xf,%eax
  30428d:	0f b6 c0             	movzbl %al,%eax
  304290:	83 ec 08             	sub    $0x8,%esp
  304293:	50                   	push   %eax
  304294:	68 b3 51 30 00       	push   $0x3051b3
  304299:	e8 33 ee ff ff       	call   3030d1 <printf>
  30429e:	83 c4 10             	add    $0x10,%esp
  3042a1:	83 45 f4 01          	addl   $0x1,-0xc(%ebp)
  3042a5:	8b 45 f4             	mov    -0xc(%ebp),%eax
  3042a8:	3b 45 e4             	cmp    -0x1c(%ebp),%eax
  3042ab:	0f 8c 2c ff ff ff    	jl     3041dd <print_gdt+0xe9>
  3042b1:	90                   	nop
  3042b2:	c9                   	leave  
  3042b3:	c3                   	ret    

003042b4 <set_each_descriptor>:
  3042b4:	55                   	push   %ebp
  3042b5:	89 e5                	mov    %esp,%ebp
  3042b7:	53                   	push   %ebx
  3042b8:	83 ec 08             	sub    $0x8,%esp
  3042bb:	8b 55 0c             	mov    0xc(%ebp),%edx
  3042be:	8b 45 10             	mov    0x10(%ebp),%eax
  3042c1:	88 55 f8             	mov    %dl,-0x8(%ebp)
  3042c4:	88 45 f4             	mov    %al,-0xc(%ebp)
  3042c7:	0f b6 45 f8          	movzbl -0x8(%ebp),%eax
  3042cb:	83 e0 0f             	and    $0xf,%eax
  3042ce:	89 c2                	mov    %eax,%edx
  3042d0:	8b 45 08             	mov    0x8(%ebp),%eax
  3042d3:	89 d1                	mov    %edx,%ecx
  3042d5:	83 e1 0f             	and    $0xf,%ecx
  3042d8:	0f b6 50 05          	movzbl 0x5(%eax),%edx
  3042dc:	83 e2 f0             	and    $0xfffffff0,%edx
  3042df:	09 ca                	or     %ecx,%edx
  3042e1:	88 50 05             	mov    %dl,0x5(%eax)
  3042e4:	0f b6 45 f4          	movzbl -0xc(%ebp),%eax
  3042e8:	83 e0 03             	and    $0x3,%eax
  3042eb:	89 c2                	mov    %eax,%edx
  3042ed:	8b 45 08             	mov    0x8(%ebp),%eax
  3042f0:	83 e2 03             	and    $0x3,%edx
  3042f3:	89 d1                	mov    %edx,%ecx
  3042f5:	c1 e1 05             	shl    $0x5,%ecx
  3042f8:	0f b6 50 05          	movzbl 0x5(%eax),%edx
  3042fc:	83 e2 9f             	and    $0xffffff9f,%edx
  3042ff:	09 ca                	or     %ecx,%edx
  304301:	88 50 05             	mov    %dl,0x5(%eax)
  304304:	8b 45 14             	mov    0x14(%ebp),%eax
  304307:	89 c2                	mov    %eax,%edx
  304309:	8b 45 08             	mov    0x8(%ebp),%eax
  30430c:	0f b7 ca             	movzwl %dx,%ecx
  30430f:	0f b6 d9             	movzbl %cl,%ebx
  304312:	0f b6 48 02          	movzbl 0x2(%eax),%ecx
  304316:	83 e1 00             	and    $0x0,%ecx
  304319:	09 d9                	or     %ebx,%ecx
  30431b:	88 48 02             	mov    %cl,0x2(%eax)
  30431e:	66 c1 ea 08          	shr    $0x8,%dx
  304322:	0f b7 ca             	movzwl %dx,%ecx
  304325:	0f b6 50 03          	movzbl 0x3(%eax),%edx
  304329:	83 e2 00             	and    $0x0,%edx
  30432c:	09 ca                	or     %ecx,%edx
  30432e:	88 50 03             	mov    %dl,0x3(%eax)
  304331:	8b 45 14             	mov    0x14(%ebp),%eax
  304334:	c1 e8 10             	shr    $0x10,%eax
  304337:	89 c2                	mov    %eax,%edx
  304339:	8b 45 08             	mov    0x8(%ebp),%eax
  30433c:	88 50 04             	mov    %dl,0x4(%eax)
  30433f:	8b 45 14             	mov    0x14(%ebp),%eax
  304342:	c1 e8 18             	shr    $0x18,%eax
  304345:	89 c2                	mov    %eax,%edx
  304347:	8b 45 08             	mov    0x8(%ebp),%eax
  30434a:	88 50 07             	mov    %dl,0x7(%eax)
  30434d:	8b 45 18             	mov    0x18(%ebp),%eax
  304350:	89 c2                	mov    %eax,%edx
  304352:	8b 45 08             	mov    0x8(%ebp),%eax
  304355:	0f b7 ca             	movzwl %dx,%ecx
  304358:	0f b6 d9             	movzbl %cl,%ebx
  30435b:	0f b6 08             	movzbl (%eax),%ecx
  30435e:	83 e1 00             	and    $0x0,%ecx
  304361:	09 d9                	or     %ebx,%ecx
  304363:	88 08                	mov    %cl,(%eax)
  304365:	66 c1 ea 08          	shr    $0x8,%dx
  304369:	0f b7 ca             	movzwl %dx,%ecx
  30436c:	0f b6 50 01          	movzbl 0x1(%eax),%edx
  304370:	83 e2 00             	and    $0x0,%edx
  304373:	09 ca                	or     %ecx,%edx
  304375:	88 50 01             	mov    %dl,0x1(%eax)
  304378:	8b 45 18             	mov    0x18(%ebp),%eax
  30437b:	c1 e8 10             	shr    $0x10,%eax
  30437e:	83 e0 0f             	and    $0xf,%eax
  304381:	8b 55 08             	mov    0x8(%ebp),%edx
  304384:	83 e0 0f             	and    $0xf,%eax
  304387:	89 c1                	mov    %eax,%ecx
  304389:	0f b6 42 06          	movzbl 0x6(%edx),%eax
  30438d:	83 e0 f0             	and    $0xfffffff0,%eax
  304390:	09 c8                	or     %ecx,%eax
  304392:	88 42 06             	mov    %al,0x6(%edx)
  304395:	8b 45 08             	mov    0x8(%ebp),%eax
  304398:	0f b6 50 05          	movzbl 0x5(%eax),%edx
  30439c:	83 ca 80             	or     $0xffffff80,%edx
  30439f:	88 50 05             	mov    %dl,0x5(%eax)
  3043a2:	8b 45 08             	mov    0x8(%ebp),%eax
  3043a5:	0f b6 50 06          	movzbl 0x6(%eax),%edx
  3043a9:	83 ca 10             	or     $0x10,%edx
  3043ac:	88 50 06             	mov    %dl,0x6(%eax)
  3043af:	8b 45 08             	mov    0x8(%ebp),%eax
  3043b2:	0f b6 50 06          	movzbl 0x6(%eax),%edx
  3043b6:	83 ca 40             	or     $0x40,%edx
  3043b9:	88 50 06             	mov    %dl,0x6(%eax)
  3043bc:	8b 45 08             	mov    0x8(%ebp),%eax
  3043bf:	0f b6 50 06          	movzbl 0x6(%eax),%edx
  3043c3:	83 ca 80             	or     $0xffffff80,%edx
  3043c6:	88 50 06             	mov    %dl,0x6(%eax)
  3043c9:	8b 45 08             	mov    0x8(%ebp),%eax
  3043cc:	0f b6 50 06          	movzbl 0x6(%eax),%edx
  3043d0:	83 e2 df             	and    $0xffffffdf,%edx
  3043d3:	88 50 06             	mov    %dl,0x6(%eax)
  3043d6:	8b 45 08             	mov    0x8(%ebp),%eax
  3043d9:	0f b6 50 05          	movzbl 0x5(%eax),%edx
  3043dd:	83 ca 10             	or     $0x10,%edx
  3043e0:	88 50 05             	mov    %dl,0x5(%eax)
  3043e3:	90                   	nop
  3043e4:	83 c4 08             	add    $0x8,%esp
  3043e7:	5b                   	pop    %ebx
  3043e8:	5d                   	pop    %ebp
  3043e9:	c3                   	ret    

003043ea <init_TSS>:
  3043ea:	55                   	push   %ebp
  3043eb:	89 e5                	mov    %esp,%ebp
  3043ed:	83 ec 18             	sub    $0x18,%esp
  3043f0:	83 ec 0c             	sub    $0xc,%esp
  3043f3:	68 bf 51 30 00       	push   $0x3051bf
  3043f8:	e8 d4 ec ff ff       	call   3030d1 <printf>
  3043fd:	83 c4 10             	add    $0x10,%esp
  304400:	c7 45 f4 40 5f 30 00 	movl   $0x305f40,-0xc(%ebp)
  304407:	c7 45 f0 88 20 00 00 	movl   $0x2088,-0x10(%ebp)
  30440e:	66 c7 05 48 5f 30 00 	movw   $0x10,0x305f48
  304415:	10 00 
  304417:	89 6d ec             	mov    %ebp,-0x14(%ebp)
  30441a:	8b 45 ec             	mov    -0x14(%ebp),%eax
  30441d:	a3 44 5f 30 00       	mov    %eax,0x305f44
  304422:	83 ec 0c             	sub    $0xc,%esp
  304425:	ff 75 f0             	pushl  -0x10(%ebp)
  304428:	ff 75 f4             	pushl  -0xc(%ebp)
  30442b:	6a 00                	push   $0x0
  30442d:	6a 09                	push   $0x9
  30442f:	68 08 80 30 00       	push   $0x308008
  304434:	e8 7b fe ff ff       	call   3042b4 <set_each_descriptor>
  304439:	83 c4 20             	add    $0x20,%esp
  30443c:	0f b6 05 0d 80 30 00 	movzbl 0x30800d,%eax
  304443:	83 e0 ef             	and    $0xffffffef,%eax
  304446:	a2 0d 80 30 00       	mov    %al,0x30800d
  30444b:	b8 28 00 00 00       	mov    $0x28,%eax
  304450:	0f 00 d8             	ltr    %ax
  304453:	90                   	nop
  304454:	c9                   	leave  
  304455:	c3                   	ret    

00304456 <init_gdt>:
  304456:	55                   	push   %ebp
  304457:	89 e5                	mov    %esp,%ebp
  304459:	83 ec 18             	sub    $0x18,%esp
  30445c:	83 ec 0c             	sub    $0xc,%esp
  30445f:	68 d5 51 30 00       	push   $0x3051d5
  304464:	e8 68 ec ff ff       	call   3030d1 <printf>
  304469:	83 c4 10             	add    $0x10,%esp
  30446c:	c7 05 e0 7f 30 00 00 	movl   $0x0,0x307fe0
  304473:	00 00 00 
  304476:	c7 05 e4 7f 30 00 00 	movl   $0x0,0x307fe4
  30447d:	00 00 00 
  304480:	66 c7 45 f2 2f 00    	movw   $0x2f,-0xe(%ebp)
  304486:	c7 45 f4 e0 7f 30 00 	movl   $0x307fe0,-0xc(%ebp)
  30448d:	0f 01 55 f2          	lgdtl  -0xe(%ebp)
  304491:	83 ec 0c             	sub    $0xc,%esp
  304494:	6a ff                	push   $0xffffffff
  304496:	6a 00                	push   $0x0
  304498:	6a 00                	push   $0x0
  30449a:	6a 0a                	push   $0xa
  30449c:	68 e8 7f 30 00       	push   $0x307fe8
  3044a1:	e8 0e fe ff ff       	call   3042b4 <set_each_descriptor>
  3044a6:	83 c4 20             	add    $0x20,%esp
  3044a9:	83 ec 0c             	sub    $0xc,%esp
  3044ac:	6a ff                	push   $0xffffffff
  3044ae:	6a 00                	push   $0x0
  3044b0:	6a 00                	push   $0x0
  3044b2:	6a 02                	push   $0x2
  3044b4:	68 f0 7f 30 00       	push   $0x307ff0
  3044b9:	e8 f6 fd ff ff       	call   3042b4 <set_each_descriptor>
  3044be:	83 c4 20             	add    $0x20,%esp
  3044c1:	ea c8 44 30 00 08 00 	ljmp   $0x8,$0x3044c8
  3044c8:	b8 10 00 00 00       	mov    $0x10,%eax
  3044cd:	8e d8                	mov    %eax,%ds
  3044cf:	b8 10 00 00 00       	mov    $0x10,%eax
  3044d4:	8e d0                	mov    %eax,%ss
  3044d6:	b8 10 00 00 00       	mov    $0x10,%eax
  3044db:	8e e0                	mov    %eax,%fs
  3044dd:	b8 10 00 00 00       	mov    $0x10,%eax
  3044e2:	8e c0                	mov    %eax,%es
  3044e4:	b8 10 00 00 00       	mov    $0x10,%eax
  3044e9:	8e e8                	mov    %eax,%gs
  3044eb:	83 ec 0c             	sub    $0xc,%esp
  3044ee:	6a ff                	push   $0xffffffff
  3044f0:	6a 00                	push   $0x0
  3044f2:	6a 03                	push   $0x3
  3044f4:	6a 0a                	push   $0xa
  3044f6:	68 f8 7f 30 00       	push   $0x307ff8
  3044fb:	e8 b4 fd ff ff       	call   3042b4 <set_each_descriptor>
  304500:	83 c4 20             	add    $0x20,%esp
  304503:	83 ec 0c             	sub    $0xc,%esp
  304506:	6a ff                	push   $0xffffffff
  304508:	6a 00                	push   $0x0
  30450a:	6a 03                	push   $0x3
  30450c:	6a 02                	push   $0x2
  30450e:	68 00 80 30 00       	push   $0x308000
  304513:	e8 9c fd ff ff       	call   3042b4 <set_each_descriptor>
  304518:	83 c4 20             	add    $0x20,%esp
  30451b:	b8 23 00 00 00       	mov    $0x23,%eax
  304520:	8e d8                	mov    %eax,%ds
  304522:	b8 23 00 00 00       	mov    $0x23,%eax
  304527:	8e c0                	mov    %eax,%es
  304529:	b8 23 00 00 00       	mov    $0x23,%eax
  30452e:	8e e0                	mov    %eax,%fs
  304530:	b8 23 00 00 00       	mov    $0x23,%eax
  304535:	8e e8                	mov    %eax,%gs
  304537:	e8 b8 fb ff ff       	call   3040f4 <print_gdt>
  30453c:	90                   	nop
  30453d:	c9                   	leave  
  30453e:	c3                   	ret    

0030453f <memcpy>:
  30453f:	55                   	push   %ebp
  304540:	89 e5                	mov    %esp,%ebp
  304542:	57                   	push   %edi
  304543:	56                   	push   %esi
  304544:	83 ec 20             	sub    $0x20,%esp
  304547:	8b 45 08             	mov    0x8(%ebp),%eax
  30454a:	89 45 e8             	mov    %eax,-0x18(%ebp)
  30454d:	8b 45 0c             	mov    0xc(%ebp),%eax
  304550:	89 45 e0             	mov    %eax,-0x20(%ebp)
  304553:	83 7d 10 00          	cmpl   $0x0,0x10(%ebp)
  304557:	75 05                	jne    30455e <memcpy+0x1f>
  304559:	8b 45 08             	mov    0x8(%ebp),%eax
  30455c:	eb 70                	jmp    3045ce <memcpy+0x8f>
  30455e:	8b 45 10             	mov    0x10(%ebp),%eax
  304561:	ba 00 00 00 00       	mov    $0x0,%edx
  304566:	b9 04 00 00 00       	mov    $0x4,%ecx
  30456b:	f7 f1                	div    %ecx
  30456d:	89 45 f4             	mov    %eax,-0xc(%ebp)
  304570:	89 55 f0             	mov    %edx,-0x10(%ebp)
  304573:	83 7d f4 00          	cmpl   $0x0,-0xc(%ebp)
  304577:	74 34                	je     3045ad <memcpy+0x6e>
  304579:	9c                   	pushf  
  30457a:	8f 45 dc             	popl   -0x24(%ebp)
  30457d:	fc                   	cld    
  30457e:	8b 45 e8             	mov    -0x18(%ebp),%eax
  304581:	8b 55 e0             	mov    -0x20(%ebp),%edx
  304584:	8b 4d f4             	mov    -0xc(%ebp),%ecx
  304587:	89 c7                	mov    %eax,%edi
  304589:	89 d6                	mov    %edx,%esi
  30458b:	f3 a5                	rep movsl %ds:(%esi),%es:(%edi)
  30458d:	ff 75 dc             	pushl  -0x24(%ebp)
  304590:	9d                   	popf   
  304591:	8b 45 e8             	mov    -0x18(%ebp),%eax
  304594:	8b 55 f4             	mov    -0xc(%ebp),%edx
  304597:	c1 e2 02             	shl    $0x2,%edx
  30459a:	01 d0                	add    %edx,%eax
  30459c:	89 45 e8             	mov    %eax,-0x18(%ebp)
  30459f:	8b 45 e0             	mov    -0x20(%ebp),%eax
  3045a2:	8b 55 f4             	mov    -0xc(%ebp),%edx
  3045a5:	c1 e2 02             	shl    $0x2,%edx
  3045a8:	01 d0                	add    %edx,%eax
  3045aa:	89 45 e0             	mov    %eax,-0x20(%ebp)
  3045ad:	83 7d f0 00          	cmpl   $0x0,-0x10(%ebp)
  3045b1:	74 18                	je     3045cb <memcpy+0x8c>
  3045b3:	9c                   	pushf  
  3045b4:	8f 45 d8             	popl   -0x28(%ebp)
  3045b7:	fc                   	cld    
  3045b8:	8b 45 e8             	mov    -0x18(%ebp),%eax
  3045bb:	8b 55 e0             	mov    -0x20(%ebp),%edx
  3045be:	8b 4d f0             	mov    -0x10(%ebp),%ecx
  3045c1:	89 c7                	mov    %eax,%edi
  3045c3:	89 d6                	mov    %edx,%esi
  3045c5:	f3 a4                	rep movsb %ds:(%esi),%es:(%edi)
  3045c7:	ff 75 d8             	pushl  -0x28(%ebp)
  3045ca:	9d                   	popf   
  3045cb:	8b 45 08             	mov    0x8(%ebp),%eax
  3045ce:	83 c4 20             	add    $0x20,%esp
  3045d1:	5e                   	pop    %esi
  3045d2:	5f                   	pop    %edi
  3045d3:	5d                   	pop    %ebp
  3045d4:	c3                   	ret    

003045d5 <init_task>:
  3045d5:	55                   	push   %ebp
  3045d6:	89 e5                	mov    %esp,%ebp
  3045d8:	8b 45 08             	mov    0x8(%ebp),%eax
  3045db:	8b 55 0c             	mov    0xc(%ebp),%edx
  3045de:	89 50 04             	mov    %edx,0x4(%eax)
  3045e1:	8b 45 08             	mov    0x8(%ebp),%eax
  3045e4:	8b 55 10             	mov    0x10(%ebp),%edx
  3045e7:	89 10                	mov    %edx,(%eax)
  3045e9:	90                   	nop
  3045ea:	5d                   	pop    %ebp
  3045eb:	c3                   	ret    

003045ec <init_task_stack>:
  3045ec:	55                   	push   %ebp
  3045ed:	89 e5                	mov    %esp,%ebp
  3045ef:	83 ec 10             	sub    $0x10,%esp
  3045f2:	8b 45 08             	mov    0x8(%ebp),%eax
  3045f5:	8b 55 0c             	mov    0xc(%ebp),%edx
  3045f8:	89 50 08             	mov    %edx,0x8(%eax)
  3045fb:	8b 45 08             	mov    0x8(%ebp),%eax
  3045fe:	8b 40 08             	mov    0x8(%eax),%eax
  304601:	8d 90 10 ff ff ff    	lea    -0xf0(%eax),%edx
  304607:	8b 45 08             	mov    0x8(%ebp),%eax
  30460a:	89 50 0c             	mov    %edx,0xc(%eax)
  30460d:	8b 45 08             	mov    0x8(%ebp),%eax
  304610:	8b 40 0c             	mov    0xc(%eax),%eax
  304613:	89 45 fc             	mov    %eax,-0x4(%ebp)
  304616:	8b 45 fc             	mov    -0x4(%ebp),%eax
  304619:	c7 40 20 10 00 00 00 	movl   $0x10,0x20(%eax)
  304620:	8b 45 fc             	mov    -0x4(%ebp),%eax
  304623:	c7 40 24 ff ff ff ff 	movl   $0xffffffff,0x24(%eax)
  30462a:	8b 45 fc             	mov    -0x4(%ebp),%eax
  30462d:	c7 40 2c 1b 00 00 00 	movl   $0x1b,0x2c(%eax)
  304634:	8b 45 fc             	mov    -0x4(%ebp),%eax
  304637:	8b 55 14             	mov    0x14(%ebp),%edx
  30463a:	89 50 28             	mov    %edx,0x28(%eax)
  30463d:	8b 45 fc             	mov    -0x4(%ebp),%eax
  304640:	c7 40 38 23 00 00 00 	movl   $0x23,0x38(%eax)
  304647:	8b 55 10             	mov    0x10(%ebp),%edx
  30464a:	8b 45 fc             	mov    -0x4(%ebp),%eax
  30464d:	89 50 34             	mov    %edx,0x34(%eax)
  304650:	8b 45 fc             	mov    -0x4(%ebp),%eax
  304653:	c7 40 30 00 02 00 00 	movl   $0x200,0x30(%eax)
  30465a:	8b 45 fc             	mov    -0x4(%ebp),%eax
  30465d:	c7 40 1c 01 00 00 00 	movl   $0x1,0x1c(%eax)
  304664:	8b 45 fc             	mov    -0x4(%ebp),%eax
  304667:	c7 40 18 02 00 00 00 	movl   $0x2,0x18(%eax)
  30466e:	8b 45 fc             	mov    -0x4(%ebp),%eax
  304671:	c7 40 14 03 00 00 00 	movl   $0x3,0x14(%eax)
  304678:	8b 45 fc             	mov    -0x4(%ebp),%eax
  30467b:	c7 40 10 04 00 00 00 	movl   $0x4,0x10(%eax)
  304682:	8b 45 fc             	mov    -0x4(%ebp),%eax
  304685:	c7 40 0c 05 00 00 00 	movl   $0x5,0xc(%eax)
  30468c:	8b 55 10             	mov    0x10(%ebp),%edx
  30468f:	8b 45 fc             	mov    -0x4(%ebp),%eax
  304692:	89 50 08             	mov    %edx,0x8(%eax)
  304695:	8b 45 fc             	mov    -0x4(%ebp),%eax
  304698:	c7 40 04 07 00 00 00 	movl   $0x7,0x4(%eax)
  30469f:	8b 45 fc             	mov    -0x4(%ebp),%eax
  3046a2:	c7 00 08 00 00 00    	movl   $0x8,(%eax)
  3046a8:	8b 45 08             	mov    0x8(%ebp),%eax
  3046ab:	8b 40 0c             	mov    0xc(%eax),%eax
  3046ae:	6a 3c                	push   $0x3c
  3046b0:	ff 75 fc             	pushl  -0x4(%ebp)
  3046b3:	50                   	push   %eax
  3046b4:	e8 86 fe ff ff       	call   30453f <memcpy>
  3046b9:	83 c4 0c             	add    $0xc,%esp
  3046bc:	90                   	nop
  3046bd:	c9                   	leave  
  3046be:	c3                   	ret    

003046bf <print_task>:
  3046bf:	55                   	push   %ebp
  3046c0:	89 e5                	mov    %esp,%ebp
  3046c2:	83 ec 08             	sub    $0x8,%esp
  3046c5:	83 ec 0c             	sub    $0xc,%esp
  3046c8:	68 ec 51 30 00       	push   $0x3051ec
  3046cd:	e8 ff e9 ff ff       	call   3030d1 <printf>
  3046d2:	83 c4 10             	add    $0x10,%esp
  3046d5:	8b 45 08             	mov    0x8(%ebp),%eax
  3046d8:	8b 40 08             	mov    0x8(%eax),%eax
  3046db:	83 ec 08             	sub    $0x8,%esp
  3046de:	50                   	push   %eax
  3046df:	68 fb 51 30 00       	push   $0x3051fb
  3046e4:	e8 e8 e9 ff ff       	call   3030d1 <printf>
  3046e9:	83 c4 10             	add    $0x10,%esp
  3046ec:	8b 45 08             	mov    0x8(%ebp),%eax
  3046ef:	8b 40 0c             	mov    0xc(%eax),%eax
  3046f2:	83 ec 08             	sub    $0x8,%esp
  3046f5:	50                   	push   %eax
  3046f6:	68 06 52 30 00       	push   $0x305206
  3046fb:	e8 d1 e9 ff ff       	call   3030d1 <printf>
  304700:	83 c4 10             	add    $0x10,%esp
  304703:	8b 45 08             	mov    0x8(%ebp),%eax
  304706:	8b 40 04             	mov    0x4(%eax),%eax
  304709:	83 ec 08             	sub    $0x8,%esp
  30470c:	50                   	push   %eax
  30470d:	68 11 52 30 00       	push   $0x305211
  304712:	e8 ba e9 ff ff       	call   3030d1 <printf>
  304717:	83 c4 10             	add    $0x10,%esp
  30471a:	90                   	nop
  30471b:	c9                   	leave  
  30471c:	c3                   	ret    

0030471d <sys_counter>:
  30471d:	55                   	push   %ebp
  30471e:	89 e5                	mov    %esp,%ebp
  304720:	8b 75 08             	mov    0x8(%ebp),%esi
  304723:	cd 50                	int    $0x50
  304725:	90                   	nop
  304726:	5d                   	pop    %ebp
  304727:	c3                   	ret    

00304728 <initialise_all_tasks>:
  304728:	55                   	push   %ebp
  304729:	89 e5                	mov    %esp,%ebp
  30472b:	83 ec 18             	sub    $0x18,%esp
  30472e:	83 ec 0c             	sub    $0xc,%esp
  304731:	68 22 52 30 00       	push   $0x305222
  304736:	e8 96 e9 ff ff       	call   3030d1 <printf>
  30473b:	83 c4 10             	add    $0x10,%esp
  30473e:	c7 45 f4 00 00 39 00 	movl   $0x390000,-0xc(%ebp)
  304745:	c7 45 f0 00 10 39 00 	movl   $0x391000,-0x10(%ebp)
  30474c:	c7 45 ec 00 20 39 00 	movl   $0x392000,-0x14(%ebp)
  304753:	83 ec 04             	sub    $0x4,%esp
  304756:	ff 75 f4             	pushl  -0xc(%ebp)
  304759:	68 20 80 30 00       	push   $0x308020
  30475e:	68 30 80 30 00       	push   $0x308030
  304763:	e8 6d fe ff ff       	call   3045d5 <init_task>
  304768:	83 c4 10             	add    $0x10,%esp
  30476b:	83 ec 04             	sub    $0x4,%esp
  30476e:	ff 75 f0             	pushl  -0x10(%ebp)
  304771:	68 10 80 30 00       	push   $0x308010
  304776:	68 20 80 30 00       	push   $0x308020
  30477b:	e8 55 fe ff ff       	call   3045d5 <init_task>
  304780:	83 c4 10             	add    $0x10,%esp
  304783:	83 ec 04             	sub    $0x4,%esp
  304786:	ff 75 ec             	pushl  -0x14(%ebp)
  304789:	68 20 80 30 00       	push   $0x308020
  30478e:	68 10 80 30 00       	push   $0x308010
  304793:	e8 3d fe ff ff       	call   3045d5 <init_task>
  304798:	83 c4 10             	add    $0x10,%esp
  30479b:	b8 00 00 40 00       	mov    $0x400000,%eax
  3047a0:	50                   	push   %eax
  3047a1:	68 00 00 4a 00       	push   $0x4a0000
  3047a6:	68 00 00 31 00       	push   $0x310000
  3047ab:	68 20 80 30 00       	push   $0x308020
  3047b0:	e8 37 fe ff ff       	call   3045ec <init_task_stack>
  3047b5:	83 c4 10             	add    $0x10,%esp
  3047b8:	b8 00 00 80 00       	mov    $0x800000,%eax
  3047bd:	50                   	push   %eax
  3047be:	68 00 00 8a 00       	push   $0x8a0000
  3047c3:	68 00 00 32 00       	push   $0x320000
  3047c8:	68 10 80 30 00       	push   $0x308010
  3047cd:	e8 1a fe ff ff       	call   3045ec <init_task_stack>
  3047d2:	83 c4 10             	add    $0x10,%esp
  3047d5:	c7 05 20 5f 30 00 30 	movl   $0x308030,0x305f20
  3047dc:	80 30 00 
  3047df:	90                   	nop
  3047e0:	c9                   	leave  
  3047e1:	c3                   	ret    

003047e2 <tp>:
  3047e2:	55                   	push   %ebp
  3047e3:	89 e5                	mov    %esp,%ebp
  3047e5:	83 ec 18             	sub    $0x18,%esp
  3047e8:	e8 69 fc ff ff       	call   304456 <init_gdt>
  3047ed:	e8 f8 fb ff ff       	call   3043ea <init_TSS>
  3047f2:	83 ec 0c             	sub    $0xc,%esp
  3047f5:	68 36 52 30 00       	push   $0x305236
  3047fa:	e8 d2 e8 ff ff       	call   3030d1 <printf>
  3047ff:	83 c4 10             	add    $0x10,%esp
  304802:	a1 f0 52 30 00       	mov    0x3052f0,%eax
  304807:	c7 00 00 00 00 00    	movl   $0x0,(%eax)
  30480d:	a1 f4 52 30 00       	mov    0x3052f4,%eax
  304812:	c7 00 00 00 00 00    	movl   $0x0,(%eax)
  304818:	83 ec 0c             	sub    $0xc,%esp
  30481b:	68 51 52 30 00       	push   $0x305251
  304820:	e8 ac e8 ff ff       	call   3030d1 <printf>
  304825:	83 c4 10             	add    $0x10,%esp
  304828:	0f 01 4d f2          	sidtl  -0xe(%ebp)
  30482c:	e8 f7 fe ff ff       	call   304728 <initialise_all_tasks>
  304831:	fb                   	sti    
  304832:	90                   	nop
  304833:	eb fe                	jmp    304833 <tp+0x51>
  304835:	66 90                	xchg   %ax,%ax
  304837:	66 90                	xchg   %ax,%ax
  304839:	66 90                	xchg   %ax,%ax
  30483b:	66 90                	xchg   %ax,%ax
  30483d:	66 90                	xchg   %ax,%ax
  30483f:	90                   	nop

00304840 <__divdi3>:
  304840:	55                   	push   %ebp
  304841:	57                   	push   %edi
  304842:	56                   	push   %esi
  304843:	53                   	push   %ebx
  304844:	83 ec 1c             	sub    $0x1c,%esp
  304847:	8b 54 24 34          	mov    0x34(%esp),%edx
  30484b:	8b 44 24 30          	mov    0x30(%esp),%eax
  30484f:	c7 44 24 08 00 00 00 	movl   $0x0,0x8(%esp)
  304856:	00 
  304857:	89 d5                	mov    %edx,%ebp
  304859:	89 04 24             	mov    %eax,(%esp)
  30485c:	89 54 24 04          	mov    %edx,0x4(%esp)
  304860:	85 ed                	test   %ebp,%ebp
  304862:	8b 44 24 38          	mov    0x38(%esp),%eax
  304866:	8b 54 24 3c          	mov    0x3c(%esp),%edx
  30486a:	79 1a                	jns    304886 <__divdi3+0x46>
  30486c:	f7 1c 24             	negl   (%esp)
  30486f:	c7 44 24 08 ff ff ff 	movl   $0xffffffff,0x8(%esp)
  304876:	ff 
  304877:	83 54 24 04 00       	adcl   $0x0,0x4(%esp)
  30487c:	f7 5c 24 04          	negl   0x4(%esp)
  304880:	8b 7c 24 04          	mov    0x4(%esp),%edi
  304884:	89 fd                	mov    %edi,%ebp
  304886:	85 d2                	test   %edx,%edx
  304888:	89 d3                	mov    %edx,%ebx
  30488a:	79 0d                	jns    304899 <__divdi3+0x59>
  30488c:	f7 d8                	neg    %eax
  30488e:	f7 54 24 08          	notl   0x8(%esp)
  304892:	83 d2 00             	adc    $0x0,%edx
  304895:	f7 da                	neg    %edx
  304897:	89 d3                	mov    %edx,%ebx
  304899:	85 db                	test   %ebx,%ebx
  30489b:	89 c7                	mov    %eax,%edi
  30489d:	8b 04 24             	mov    (%esp),%eax
  3048a0:	75 0e                	jne    3048b0 <__divdi3+0x70>
  3048a2:	39 ef                	cmp    %ebp,%edi
  3048a4:	76 52                	jbe    3048f8 <__divdi3+0xb8>
  3048a6:	89 ea                	mov    %ebp,%edx
  3048a8:	31 f6                	xor    %esi,%esi
  3048aa:	f7 f7                	div    %edi
  3048ac:	89 c1                	mov    %eax,%ecx
  3048ae:	eb 08                	jmp    3048b8 <__divdi3+0x78>
  3048b0:	39 eb                	cmp    %ebp,%ebx
  3048b2:	76 24                	jbe    3048d8 <__divdi3+0x98>
  3048b4:	31 f6                	xor    %esi,%esi
  3048b6:	31 c9                	xor    %ecx,%ecx
  3048b8:	89 c8                	mov    %ecx,%eax
  3048ba:	8b 4c 24 08          	mov    0x8(%esp),%ecx
  3048be:	89 f2                	mov    %esi,%edx
  3048c0:	85 c9                	test   %ecx,%ecx
  3048c2:	74 07                	je     3048cb <__divdi3+0x8b>
  3048c4:	f7 d8                	neg    %eax
  3048c6:	83 d2 00             	adc    $0x0,%edx
  3048c9:	f7 da                	neg    %edx
  3048cb:	83 c4 1c             	add    $0x1c,%esp
  3048ce:	5b                   	pop    %ebx
  3048cf:	5e                   	pop    %esi
  3048d0:	5f                   	pop    %edi
  3048d1:	5d                   	pop    %ebp
  3048d2:	c3                   	ret    
  3048d3:	90                   	nop
  3048d4:	8d 74 26 00          	lea    0x0(%esi,%eiz,1),%esi
  3048d8:	0f bd f3             	bsr    %ebx,%esi
  3048db:	83 f6 1f             	xor    $0x1f,%esi
  3048de:	75 40                	jne    304920 <__divdi3+0xe0>
  3048e0:	39 eb                	cmp    %ebp,%ebx
  3048e2:	72 07                	jb     3048eb <__divdi3+0xab>
  3048e4:	31 c9                	xor    %ecx,%ecx
  3048e6:	3b 3c 24             	cmp    (%esp),%edi
  3048e9:	77 cd                	ja     3048b8 <__divdi3+0x78>
  3048eb:	b9 01 00 00 00       	mov    $0x1,%ecx
  3048f0:	eb c6                	jmp    3048b8 <__divdi3+0x78>
  3048f2:	8d b6 00 00 00 00    	lea    0x0(%esi),%esi
  3048f8:	85 ff                	test   %edi,%edi
  3048fa:	75 0b                	jne    304907 <__divdi3+0xc7>
  3048fc:	b8 01 00 00 00       	mov    $0x1,%eax
  304901:	31 d2                	xor    %edx,%edx
  304903:	f7 f3                	div    %ebx
  304905:	89 c7                	mov    %eax,%edi
  304907:	31 d2                	xor    %edx,%edx
  304909:	89 e8                	mov    %ebp,%eax
  30490b:	f7 f7                	div    %edi
  30490d:	89 c6                	mov    %eax,%esi
  30490f:	8b 04 24             	mov    (%esp),%eax
  304912:	f7 f7                	div    %edi
  304914:	89 c1                	mov    %eax,%ecx
  304916:	eb a0                	jmp    3048b8 <__divdi3+0x78>
  304918:	90                   	nop
  304919:	8d b4 26 00 00 00 00 	lea    0x0(%esi,%eiz,1),%esi
  304920:	b8 20 00 00 00       	mov    $0x20,%eax
  304925:	89 f1                	mov    %esi,%ecx
  304927:	89 fa                	mov    %edi,%edx
  304929:	29 f0                	sub    %esi,%eax
  30492b:	d3 e3                	shl    %cl,%ebx
  30492d:	89 c1                	mov    %eax,%ecx
  30492f:	d3 ea                	shr    %cl,%edx
  304931:	89 f1                	mov    %esi,%ecx
  304933:	09 da                	or     %ebx,%edx
  304935:	d3 e7                	shl    %cl,%edi
  304937:	89 eb                	mov    %ebp,%ebx
  304939:	89 c1                	mov    %eax,%ecx
  30493b:	89 54 24 0c          	mov    %edx,0xc(%esp)
  30493f:	8b 14 24             	mov    (%esp),%edx
  304942:	d3 eb                	shr    %cl,%ebx
  304944:	89 f1                	mov    %esi,%ecx
  304946:	d3 e5                	shl    %cl,%ebp
  304948:	89 c1                	mov    %eax,%ecx
  30494a:	d3 ea                	shr    %cl,%edx
  30494c:	09 d5                	or     %edx,%ebp
  30494e:	89 da                	mov    %ebx,%edx
  304950:	89 e8                	mov    %ebp,%eax
  304952:	f7 74 24 0c          	divl   0xc(%esp)
  304956:	89 d3                	mov    %edx,%ebx
  304958:	89 c5                	mov    %eax,%ebp
  30495a:	f7 e7                	mul    %edi
  30495c:	39 d3                	cmp    %edx,%ebx
  30495e:	72 20                	jb     304980 <__divdi3+0x140>
  304960:	8b 3c 24             	mov    (%esp),%edi
  304963:	89 f1                	mov    %esi,%ecx
  304965:	d3 e7                	shl    %cl,%edi
  304967:	39 c7                	cmp    %eax,%edi
  304969:	73 04                	jae    30496f <__divdi3+0x12f>
  30496b:	39 d3                	cmp    %edx,%ebx
  30496d:	74 11                	je     304980 <__divdi3+0x140>
  30496f:	89 e9                	mov    %ebp,%ecx
  304971:	31 f6                	xor    %esi,%esi
  304973:	e9 40 ff ff ff       	jmp    3048b8 <__divdi3+0x78>
  304978:	90                   	nop
  304979:	8d b4 26 00 00 00 00 	lea    0x0(%esi,%eiz,1),%esi
  304980:	8d 4d ff             	lea    -0x1(%ebp),%ecx
  304983:	31 f6                	xor    %esi,%esi
  304985:	e9 2e ff ff ff       	jmp    3048b8 <__divdi3+0x78>
  30498a:	66 90                	xchg   %ax,%ax
  30498c:	66 90                	xchg   %ax,%ax
  30498e:	66 90                	xchg   %ax,%ax

00304990 <__moddi3>:
  304990:	55                   	push   %ebp
  304991:	57                   	push   %edi
  304992:	56                   	push   %esi
  304993:	53                   	push   %ebx
  304994:	83 ec 2c             	sub    $0x2c,%esp
  304997:	8b 5c 24 44          	mov    0x44(%esp),%ebx
  30499b:	8b 4c 24 40          	mov    0x40(%esp),%ecx
  30499f:	8b 44 24 48          	mov    0x48(%esp),%eax
  3049a3:	8b 54 24 4c          	mov    0x4c(%esp),%edx
  3049a7:	c7 44 24 08 00 00 00 	movl   $0x0,0x8(%esp)
  3049ae:	00 
  3049af:	85 db                	test   %ebx,%ebx
  3049b1:	89 de                	mov    %ebx,%esi
  3049b3:	79 11                	jns    3049c6 <__moddi3+0x36>
  3049b5:	f7 d9                	neg    %ecx
  3049b7:	c7 44 24 08 ff ff ff 	movl   $0xffffffff,0x8(%esp)
  3049be:	ff 
  3049bf:	83 d3 00             	adc    $0x0,%ebx
  3049c2:	f7 db                	neg    %ebx
  3049c4:	89 de                	mov    %ebx,%esi
  3049c6:	85 d2                	test   %edx,%edx
  3049c8:	89 d7                	mov    %edx,%edi
  3049ca:	79 09                	jns    3049d5 <__moddi3+0x45>
  3049cc:	f7 d8                	neg    %eax
  3049ce:	83 d2 00             	adc    $0x0,%edx
  3049d1:	f7 da                	neg    %edx
  3049d3:	89 d7                	mov    %edx,%edi
  3049d5:	85 ff                	test   %edi,%edi
  3049d7:	89 c2                	mov    %eax,%edx
  3049d9:	89 44 24 10          	mov    %eax,0x10(%esp)
  3049dd:	89 4c 24 14          	mov    %ecx,0x14(%esp)
  3049e1:	89 74 24 0c          	mov    %esi,0xc(%esp)
  3049e5:	75 19                	jne    304a00 <__moddi3+0x70>
  3049e7:	89 d3                	mov    %edx,%ebx
  3049e9:	89 f2                	mov    %esi,%edx
  3049eb:	39 f3                	cmp    %esi,%ebx
  3049ed:	76 61                	jbe    304a50 <__moddi3+0xc0>
  3049ef:	89 c8                	mov    %ecx,%eax
  3049f1:	f7 f3                	div    %ebx
  3049f3:	89 54 24 0c          	mov    %edx,0xc(%esp)
  3049f7:	8b 44 24 0c          	mov    0xc(%esp),%eax
  3049fb:	31 d2                	xor    %edx,%edx
  3049fd:	eb 09                	jmp    304a08 <__moddi3+0x78>
  3049ff:	90                   	nop
  304a00:	39 f7                	cmp    %esi,%edi
  304a02:	76 1c                	jbe    304a20 <__moddi3+0x90>
  304a04:	89 c8                	mov    %ecx,%eax
  304a06:	89 f2                	mov    %esi,%edx
  304a08:	8b 4c 24 08          	mov    0x8(%esp),%ecx
  304a0c:	85 c9                	test   %ecx,%ecx
  304a0e:	74 07                	je     304a17 <__moddi3+0x87>
  304a10:	f7 d8                	neg    %eax
  304a12:	83 d2 00             	adc    $0x0,%edx
  304a15:	f7 da                	neg    %edx
  304a17:	83 c4 2c             	add    $0x2c,%esp
  304a1a:	5b                   	pop    %ebx
  304a1b:	5e                   	pop    %esi
  304a1c:	5f                   	pop    %edi
  304a1d:	5d                   	pop    %ebp
  304a1e:	c3                   	ret    
  304a1f:	90                   	nop
  304a20:	0f bd c7             	bsr    %edi,%eax
  304a23:	83 f0 1f             	xor    $0x1f,%eax
  304a26:	89 44 24 18          	mov    %eax,0x18(%esp)
  304a2a:	75 54                	jne    304a80 <__moddi3+0xf0>
  304a2c:	39 f7                	cmp    %esi,%edi
  304a2e:	0f 82 dc 00 00 00    	jb     304b10 <__moddi3+0x180>
  304a34:	8b 4c 24 14          	mov    0x14(%esp),%ecx
  304a38:	39 4c 24 10          	cmp    %ecx,0x10(%esp)
  304a3c:	0f 86 ce 00 00 00    	jbe    304b10 <__moddi3+0x180>
  304a42:	8b 44 24 14          	mov    0x14(%esp),%eax
  304a46:	8b 54 24 0c          	mov    0xc(%esp),%edx
  304a4a:	eb bc                	jmp    304a08 <__moddi3+0x78>
  304a4c:	8d 74 26 00          	lea    0x0(%esi,%eiz,1),%esi
  304a50:	8b 5c 24 10          	mov    0x10(%esp),%ebx
  304a54:	85 db                	test   %ebx,%ebx
  304a56:	75 0d                	jne    304a65 <__moddi3+0xd5>
  304a58:	b8 01 00 00 00       	mov    $0x1,%eax
  304a5d:	31 d2                	xor    %edx,%edx
  304a5f:	f7 f7                	div    %edi
  304a61:	89 44 24 10          	mov    %eax,0x10(%esp)
  304a65:	8b 5c 24 10          	mov    0x10(%esp),%ebx
  304a69:	89 f0                	mov    %esi,%eax
  304a6b:	31 d2                	xor    %edx,%edx
  304a6d:	f7 f3                	div    %ebx
  304a6f:	8b 44 24 14          	mov    0x14(%esp),%eax
  304a73:	f7 f3                	div    %ebx
  304a75:	89 54 24 0c          	mov    %edx,0xc(%esp)
  304a79:	e9 79 ff ff ff       	jmp    3049f7 <__moddi3+0x67>
  304a7e:	66 90                	xchg   %ax,%ax
  304a80:	8b 5c 24 18          	mov    0x18(%esp),%ebx
  304a84:	b8 20 00 00 00       	mov    $0x20,%eax
  304a89:	8b 6c 24 10          	mov    0x10(%esp),%ebp
  304a8d:	89 c2                	mov    %eax,%edx
  304a8f:	29 da                	sub    %ebx,%edx
  304a91:	89 d9                	mov    %ebx,%ecx
  304a93:	89 e8                	mov    %ebp,%eax
  304a95:	d3 e7                	shl    %cl,%edi
  304a97:	89 d1                	mov    %edx,%ecx
  304a99:	89 54 24 1c          	mov    %edx,0x1c(%esp)
  304a9d:	d3 e8                	shr    %cl,%eax
  304a9f:	89 d9                	mov    %ebx,%ecx
  304aa1:	d3 e5                	shl    %cl,%ebp
  304aa3:	09 c7                	or     %eax,%edi
  304aa5:	89 d1                	mov    %edx,%ecx
  304aa7:	89 6c 24 0c          	mov    %ebp,0xc(%esp)
  304aab:	8b 6c 24 14          	mov    0x14(%esp),%ebp
  304aaf:	89 d8                	mov    %ebx,%eax
  304ab1:	89 f3                	mov    %esi,%ebx
  304ab3:	d3 eb                	shr    %cl,%ebx
  304ab5:	89 c1                	mov    %eax,%ecx
  304ab7:	d3 e6                	shl    %cl,%esi
  304ab9:	89 e8                	mov    %ebp,%eax
  304abb:	89 d1                	mov    %edx,%ecx
  304abd:	d3 e8                	shr    %cl,%eax
  304abf:	0f b6 4c 24 18       	movzbl 0x18(%esp),%ecx
  304ac4:	89 da                	mov    %ebx,%edx
  304ac6:	09 f0                	or     %esi,%eax
  304ac8:	89 ee                	mov    %ebp,%esi
  304aca:	f7 f7                	div    %edi
  304acc:	89 d3                	mov    %edx,%ebx
  304ace:	d3 e6                	shl    %cl,%esi
  304ad0:	f7 64 24 0c          	mull   0xc(%esp)
  304ad4:	39 d3                	cmp    %edx,%ebx
  304ad6:	89 c5                	mov    %eax,%ebp
  304ad8:	89 d1                	mov    %edx,%ecx
  304ada:	72 06                	jb     304ae2 <__moddi3+0x152>
  304adc:	75 0e                	jne    304aec <__moddi3+0x15c>
  304ade:	39 c6                	cmp    %eax,%esi
  304ae0:	73 0a                	jae    304aec <__moddi3+0x15c>
  304ae2:	2b 44 24 0c          	sub    0xc(%esp),%eax
  304ae6:	19 fa                	sbb    %edi,%edx
  304ae8:	89 d1                	mov    %edx,%ecx
  304aea:	89 c5                	mov    %eax,%ebp
  304aec:	29 ee                	sub    %ebp,%esi
  304aee:	19 cb                	sbb    %ecx,%ebx
  304af0:	0f b6 4c 24 1c       	movzbl 0x1c(%esp),%ecx
  304af5:	8b 6c 24 18          	mov    0x18(%esp),%ebp
  304af9:	89 df                	mov    %ebx,%edi
  304afb:	d3 e7                	shl    %cl,%edi
  304afd:	89 e9                	mov    %ebp,%ecx
  304aff:	d3 ee                	shr    %cl,%esi
  304b01:	d3 eb                	shr    %cl,%ebx
  304b03:	09 f7                	or     %esi,%edi
  304b05:	89 da                	mov    %ebx,%edx
  304b07:	89 f8                	mov    %edi,%eax
  304b09:	e9 fa fe ff ff       	jmp    304a08 <__moddi3+0x78>
  304b0e:	66 90                	xchg   %ax,%ax
  304b10:	8b 44 24 14          	mov    0x14(%esp),%eax
  304b14:	89 f2                	mov    %esi,%edx
  304b16:	2b 44 24 10          	sub    0x10(%esp),%eax
  304b1a:	19 fa                	sbb    %edi,%edx
  304b1c:	89 54 24 0c          	mov    %edx,0xc(%esp)
  304b20:	89 44 24 14          	mov    %eax,0x14(%esp)
  304b24:	e9 19 ff ff ff       	jmp    304a42 <__moddi3+0xb2>
  304b29:	66 90                	xchg   %ax,%ax
  304b2b:	66 90                	xchg   %ax,%ax
  304b2d:	66 90                	xchg   %ax,%ax
  304b2f:	90                   	nop

00304b30 <__udivdi3>:
  304b30:	55                   	push   %ebp
  304b31:	57                   	push   %edi
  304b32:	56                   	push   %esi
  304b33:	53                   	push   %ebx
  304b34:	83 ec 1c             	sub    $0x1c,%esp
  304b37:	8b 54 24 3c          	mov    0x3c(%esp),%edx
  304b3b:	8b 6c 24 30          	mov    0x30(%esp),%ebp
  304b3f:	8b 74 24 34          	mov    0x34(%esp),%esi
  304b43:	8b 5c 24 38          	mov    0x38(%esp),%ebx
  304b47:	85 d2                	test   %edx,%edx
  304b49:	75 35                	jne    304b80 <__udivdi3+0x50>
  304b4b:	39 f3                	cmp    %esi,%ebx
  304b4d:	0f 87 bd 00 00 00    	ja     304c10 <__udivdi3+0xe0>
  304b53:	85 db                	test   %ebx,%ebx
  304b55:	89 d9                	mov    %ebx,%ecx
  304b57:	75 0b                	jne    304b64 <__udivdi3+0x34>
  304b59:	b8 01 00 00 00       	mov    $0x1,%eax
  304b5e:	31 d2                	xor    %edx,%edx
  304b60:	f7 f3                	div    %ebx
  304b62:	89 c1                	mov    %eax,%ecx
  304b64:	31 d2                	xor    %edx,%edx
  304b66:	89 f0                	mov    %esi,%eax
  304b68:	f7 f1                	div    %ecx
  304b6a:	89 c6                	mov    %eax,%esi
  304b6c:	89 e8                	mov    %ebp,%eax
  304b6e:	89 f7                	mov    %esi,%edi
  304b70:	f7 f1                	div    %ecx
  304b72:	89 fa                	mov    %edi,%edx
  304b74:	83 c4 1c             	add    $0x1c,%esp
  304b77:	5b                   	pop    %ebx
  304b78:	5e                   	pop    %esi
  304b79:	5f                   	pop    %edi
  304b7a:	5d                   	pop    %ebp
  304b7b:	c3                   	ret    
  304b7c:	8d 74 26 00          	lea    0x0(%esi,%eiz,1),%esi
  304b80:	39 f2                	cmp    %esi,%edx
  304b82:	77 7c                	ja     304c00 <__udivdi3+0xd0>
  304b84:	0f bd fa             	bsr    %edx,%edi
  304b87:	83 f7 1f             	xor    $0x1f,%edi
  304b8a:	0f 84 98 00 00 00    	je     304c28 <__udivdi3+0xf8>
  304b90:	89 f9                	mov    %edi,%ecx
  304b92:	b8 20 00 00 00       	mov    $0x20,%eax
  304b97:	29 f8                	sub    %edi,%eax
  304b99:	d3 e2                	shl    %cl,%edx
  304b9b:	89 54 24 08          	mov    %edx,0x8(%esp)
  304b9f:	89 c1                	mov    %eax,%ecx
  304ba1:	89 da                	mov    %ebx,%edx
  304ba3:	d3 ea                	shr    %cl,%edx
  304ba5:	8b 4c 24 08          	mov    0x8(%esp),%ecx
  304ba9:	09 d1                	or     %edx,%ecx
  304bab:	89 f2                	mov    %esi,%edx
  304bad:	89 4c 24 08          	mov    %ecx,0x8(%esp)
  304bb1:	89 f9                	mov    %edi,%ecx
  304bb3:	d3 e3                	shl    %cl,%ebx
  304bb5:	89 c1                	mov    %eax,%ecx
  304bb7:	d3 ea                	shr    %cl,%edx
  304bb9:	89 f9                	mov    %edi,%ecx
  304bbb:	89 5c 24 0c          	mov    %ebx,0xc(%esp)
  304bbf:	d3 e6                	shl    %cl,%esi
  304bc1:	89 eb                	mov    %ebp,%ebx
  304bc3:	89 c1                	mov    %eax,%ecx
  304bc5:	d3 eb                	shr    %cl,%ebx
  304bc7:	09 de                	or     %ebx,%esi
  304bc9:	89 f0                	mov    %esi,%eax
  304bcb:	f7 74 24 08          	divl   0x8(%esp)
  304bcf:	89 d6                	mov    %edx,%esi
  304bd1:	89 c3                	mov    %eax,%ebx
  304bd3:	f7 64 24 0c          	mull   0xc(%esp)
  304bd7:	39 d6                	cmp    %edx,%esi
  304bd9:	72 0c                	jb     304be7 <__udivdi3+0xb7>
  304bdb:	89 f9                	mov    %edi,%ecx
  304bdd:	d3 e5                	shl    %cl,%ebp
  304bdf:	39 c5                	cmp    %eax,%ebp
  304be1:	73 5d                	jae    304c40 <__udivdi3+0x110>
  304be3:	39 d6                	cmp    %edx,%esi
  304be5:	75 59                	jne    304c40 <__udivdi3+0x110>
  304be7:	8d 43 ff             	lea    -0x1(%ebx),%eax
  304bea:	31 ff                	xor    %edi,%edi
  304bec:	89 fa                	mov    %edi,%edx
  304bee:	83 c4 1c             	add    $0x1c,%esp
  304bf1:	5b                   	pop    %ebx
  304bf2:	5e                   	pop    %esi
  304bf3:	5f                   	pop    %edi
  304bf4:	5d                   	pop    %ebp
  304bf5:	c3                   	ret    
  304bf6:	8d 76 00             	lea    0x0(%esi),%esi
  304bf9:	8d bc 27 00 00 00 00 	lea    0x0(%edi,%eiz,1),%edi
  304c00:	31 ff                	xor    %edi,%edi
  304c02:	31 c0                	xor    %eax,%eax
  304c04:	89 fa                	mov    %edi,%edx
  304c06:	83 c4 1c             	add    $0x1c,%esp
  304c09:	5b                   	pop    %ebx
  304c0a:	5e                   	pop    %esi
  304c0b:	5f                   	pop    %edi
  304c0c:	5d                   	pop    %ebp
  304c0d:	c3                   	ret    
  304c0e:	66 90                	xchg   %ax,%ax
  304c10:	31 ff                	xor    %edi,%edi
  304c12:	89 e8                	mov    %ebp,%eax
  304c14:	89 f2                	mov    %esi,%edx
  304c16:	f7 f3                	div    %ebx
  304c18:	89 fa                	mov    %edi,%edx
  304c1a:	83 c4 1c             	add    $0x1c,%esp
  304c1d:	5b                   	pop    %ebx
  304c1e:	5e                   	pop    %esi
  304c1f:	5f                   	pop    %edi
  304c20:	5d                   	pop    %ebp
  304c21:	c3                   	ret    
  304c22:	8d b6 00 00 00 00    	lea    0x0(%esi),%esi
  304c28:	39 f2                	cmp    %esi,%edx
  304c2a:	72 06                	jb     304c32 <__udivdi3+0x102>
  304c2c:	31 c0                	xor    %eax,%eax
  304c2e:	39 eb                	cmp    %ebp,%ebx
  304c30:	77 d2                	ja     304c04 <__udivdi3+0xd4>
  304c32:	b8 01 00 00 00       	mov    $0x1,%eax
  304c37:	eb cb                	jmp    304c04 <__udivdi3+0xd4>
  304c39:	8d b4 26 00 00 00 00 	lea    0x0(%esi,%eiz,1),%esi
  304c40:	89 d8                	mov    %ebx,%eax
  304c42:	31 ff                	xor    %edi,%edi
  304c44:	eb be                	jmp    304c04 <__udivdi3+0xd4>
  304c46:	66 90                	xchg   %ax,%ax
  304c48:	66 90                	xchg   %ax,%ax
  304c4a:	66 90                	xchg   %ax,%ax
  304c4c:	66 90                	xchg   %ax,%ax
  304c4e:	66 90                	xchg   %ax,%ax

00304c50 <__umoddi3>:
  304c50:	55                   	push   %ebp
  304c51:	57                   	push   %edi
  304c52:	56                   	push   %esi
  304c53:	53                   	push   %ebx
  304c54:	83 ec 1c             	sub    $0x1c,%esp
  304c57:	8b 6c 24 3c          	mov    0x3c(%esp),%ebp
  304c5b:	8b 74 24 30          	mov    0x30(%esp),%esi
  304c5f:	8b 5c 24 34          	mov    0x34(%esp),%ebx
  304c63:	8b 7c 24 38          	mov    0x38(%esp),%edi
  304c67:	85 ed                	test   %ebp,%ebp
  304c69:	89 f0                	mov    %esi,%eax
  304c6b:	89 da                	mov    %ebx,%edx
  304c6d:	75 19                	jne    304c88 <__umoddi3+0x38>
  304c6f:	39 df                	cmp    %ebx,%edi
  304c71:	0f 86 b1 00 00 00    	jbe    304d28 <__umoddi3+0xd8>
  304c77:	f7 f7                	div    %edi
  304c79:	89 d0                	mov    %edx,%eax
  304c7b:	31 d2                	xor    %edx,%edx
  304c7d:	83 c4 1c             	add    $0x1c,%esp
  304c80:	5b                   	pop    %ebx
  304c81:	5e                   	pop    %esi
  304c82:	5f                   	pop    %edi
  304c83:	5d                   	pop    %ebp
  304c84:	c3                   	ret    
  304c85:	8d 76 00             	lea    0x0(%esi),%esi
  304c88:	39 dd                	cmp    %ebx,%ebp
  304c8a:	77 f1                	ja     304c7d <__umoddi3+0x2d>
  304c8c:	0f bd cd             	bsr    %ebp,%ecx
  304c8f:	83 f1 1f             	xor    $0x1f,%ecx
  304c92:	89 4c 24 04          	mov    %ecx,0x4(%esp)
  304c96:	0f 84 b4 00 00 00    	je     304d50 <__umoddi3+0x100>
  304c9c:	b8 20 00 00 00       	mov    $0x20,%eax
  304ca1:	89 c2                	mov    %eax,%edx
  304ca3:	8b 44 24 04          	mov    0x4(%esp),%eax
  304ca7:	29 c2                	sub    %eax,%edx
  304ca9:	89 c1                	mov    %eax,%ecx
  304cab:	89 f8                	mov    %edi,%eax
  304cad:	d3 e5                	shl    %cl,%ebp
  304caf:	89 d1                	mov    %edx,%ecx
  304cb1:	89 54 24 0c          	mov    %edx,0xc(%esp)
  304cb5:	d3 e8                	shr    %cl,%eax
  304cb7:	09 c5                	or     %eax,%ebp
  304cb9:	8b 44 24 04          	mov    0x4(%esp),%eax
  304cbd:	89 c1                	mov    %eax,%ecx
  304cbf:	d3 e7                	shl    %cl,%edi
  304cc1:	89 d1                	mov    %edx,%ecx
  304cc3:	89 7c 24 08          	mov    %edi,0x8(%esp)
  304cc7:	89 df                	mov    %ebx,%edi
  304cc9:	d3 ef                	shr    %cl,%edi
  304ccb:	89 c1                	mov    %eax,%ecx
  304ccd:	89 f0                	mov    %esi,%eax
  304ccf:	d3 e3                	shl    %cl,%ebx
  304cd1:	89 d1                	mov    %edx,%ecx
  304cd3:	89 fa                	mov    %edi,%edx
  304cd5:	d3 e8                	shr    %cl,%eax
  304cd7:	0f b6 4c 24 04       	movzbl 0x4(%esp),%ecx
  304cdc:	09 d8                	or     %ebx,%eax
  304cde:	f7 f5                	div    %ebp
  304ce0:	d3 e6                	shl    %cl,%esi
  304ce2:	89 d1                	mov    %edx,%ecx
  304ce4:	f7 64 24 08          	mull   0x8(%esp)
  304ce8:	39 d1                	cmp    %edx,%ecx
  304cea:	89 c3                	mov    %eax,%ebx
  304cec:	89 d7                	mov    %edx,%edi
  304cee:	72 06                	jb     304cf6 <__umoddi3+0xa6>
  304cf0:	75 0e                	jne    304d00 <__umoddi3+0xb0>
  304cf2:	39 c6                	cmp    %eax,%esi
  304cf4:	73 0a                	jae    304d00 <__umoddi3+0xb0>
  304cf6:	2b 44 24 08          	sub    0x8(%esp),%eax
  304cfa:	19 ea                	sbb    %ebp,%edx
  304cfc:	89 d7                	mov    %edx,%edi
  304cfe:	89 c3                	mov    %eax,%ebx
  304d00:	89 ca                	mov    %ecx,%edx
  304d02:	0f b6 4c 24 0c       	movzbl 0xc(%esp),%ecx
  304d07:	29 de                	sub    %ebx,%esi
  304d09:	19 fa                	sbb    %edi,%edx
  304d0b:	8b 5c 24 04          	mov    0x4(%esp),%ebx
  304d0f:	89 d0                	mov    %edx,%eax
  304d11:	d3 e0                	shl    %cl,%eax
  304d13:	89 d9                	mov    %ebx,%ecx
  304d15:	d3 ee                	shr    %cl,%esi
  304d17:	d3 ea                	shr    %cl,%edx
  304d19:	09 f0                	or     %esi,%eax
  304d1b:	83 c4 1c             	add    $0x1c,%esp
  304d1e:	5b                   	pop    %ebx
  304d1f:	5e                   	pop    %esi
  304d20:	5f                   	pop    %edi
  304d21:	5d                   	pop    %ebp
  304d22:	c3                   	ret    
  304d23:	90                   	nop
  304d24:	8d 74 26 00          	lea    0x0(%esi,%eiz,1),%esi
  304d28:	85 ff                	test   %edi,%edi
  304d2a:	89 f9                	mov    %edi,%ecx
  304d2c:	75 0b                	jne    304d39 <__umoddi3+0xe9>
  304d2e:	b8 01 00 00 00       	mov    $0x1,%eax
  304d33:	31 d2                	xor    %edx,%edx
  304d35:	f7 f7                	div    %edi
  304d37:	89 c1                	mov    %eax,%ecx
  304d39:	89 d8                	mov    %ebx,%eax
  304d3b:	31 d2                	xor    %edx,%edx
  304d3d:	f7 f1                	div    %ecx
  304d3f:	89 f0                	mov    %esi,%eax
  304d41:	f7 f1                	div    %ecx
  304d43:	e9 31 ff ff ff       	jmp    304c79 <__umoddi3+0x29>
  304d48:	90                   	nop
  304d49:	8d b4 26 00 00 00 00 	lea    0x0(%esi,%eiz,1),%esi
  304d50:	39 dd                	cmp    %ebx,%ebp
  304d52:	72 08                	jb     304d5c <__umoddi3+0x10c>
  304d54:	39 f7                	cmp    %esi,%edi
  304d56:	0f 87 21 ff ff ff    	ja     304c7d <__umoddi3+0x2d>
  304d5c:	89 da                	mov    %ebx,%edx
  304d5e:	89 f0                	mov    %esi,%eax
  304d60:	29 f8                	sub    %edi,%eax
  304d62:	19 ea                	sbb    %ebp,%edx
  304d64:	e9 14 ff ff ff       	jmp    304c7d <__umoddi3+0x2d>

Disassembly of section .rodata:

00304d6c <.rodata>:
  304d6c:	0a 73 65             	or     0x65(%ebx),%dh
  304d6f:	63 6f 73             	arpl   %bp,0x73(%edi)
  304d72:	2d 34 35 39 30       	sub    $0x30393534,%eax
  304d77:	37                   	aaa    
  304d78:	62 39                	bound  %edi,(%ecx)
  304d7a:	2d 39 38 31 30       	sub    $0x30313839,%eax
  304d7f:	65 36 31 20          	gs xor %esp,%ss:(%eax)
  304d83:	28 63 29             	sub    %ah,0x29(%ebx)
  304d86:	20 41 69             	and    %al,0x69(%ecx)
  304d89:	72 62                	jb     304ded <__umoddi3+0x19d>
  304d8b:	75 73                	jne    304e00 <__umoddi3+0x1b0>
  304d8d:	0a 00                	or     (%eax),%al
  304d8f:	68 61 6c 74 65       	push   $0x65746c61
  304d94:	64 20 21             	and    %ah,%fs:(%ecx)
  304d97:	00 30                	add    %dh,(%eax)
  304d99:	78 00                	js     304d9b <__umoddi3+0x14b>
  304d9b:	75 6e                	jne    304e0b <__umoddi3+0x1bb>
  304d9d:	73 75                	jae    304e14 <__umoddi3+0x1c4>
  304d9f:	70 70                	jo     304e11 <__umoddi3+0x1c1>
  304da1:	6f                   	outsl  %ds:(%esi),(%dx)
  304da2:	72 74                	jb     304e18 <__umoddi3+0x1c8>
  304da4:	65 64 20 66 6f       	gs and %ah,%fs:0x6f(%esi)
  304da9:	72 6d                	jb     304e18 <__umoddi3+0x1c8>
  304dab:	61                   	popa   
  304dac:	74 20                	je     304dce <__umoddi3+0x17e>
  304dae:	61                   	popa   
  304daf:	72 67                	jb     304e18 <__umoddi3+0x1c8>
  304db1:	20 27                	and    %ah,(%edi)
  304db3:	25 63 27 0a 00       	and    $0xa2763,%eax
  304db8:	0a 45 6e             	or     0x6e(%ebp),%al
  304dbb:	74 65                	je     304e22 <__umoddi3+0x1d2>
  304dbd:	72 20                	jb     304ddf <__umoddi3+0x18f>
  304dbf:	69 6e 74 33 32 20 68 	imul   $0x68203233,0x74(%esi),%ebp
  304dc6:	61                   	popa   
  304dc7:	6e                   	outsb  %ds:(%esi),(%dx)
  304dc8:	64 6c                	fs insb (%dx),%es:(%edi)
  304dca:	65 72 0a             	gs jb  304dd7 <__umoddi3+0x187>
  304dcd:	00 4b 65             	add    %cl,0x65(%ebx)
  304dd0:	72 6e                	jb     304e40 <__umoddi3+0x1f0>
  304dd2:	65 6c                	gs insb (%dx),%es:(%edi)
  304dd4:	20 74 61 73          	and    %dh,0x73(%ecx,%eiz,2)
  304dd8:	6b 20 69             	imul   $0x69,(%eax),%esp
  304ddb:	6e                   	outsb  %ds:(%esi),(%dx)
  304ddc:	74 65                	je     304e43 <__umoddi3+0x1f3>
  304dde:	72 72                	jb     304e52 <__umoddi3+0x202>
  304de0:	75 70                	jne    304e52 <__umoddi3+0x202>
  304de2:	74 65                	je     304e49 <__umoddi3+0x1f9>
  304de4:	64 20 0a             	and    %cl,%fs:(%edx)
  304de7:	00 55 73             	add    %dl,0x73(%ebp)
  304dea:	65 72 31             	gs jb  304e1e <__umoddi3+0x1ce>
  304ded:	20 74 61 73          	and    %dh,0x73(%ecx,%eiz,2)
  304df1:	6b 20 69             	imul   $0x69,(%eax),%esp
  304df4:	6e                   	outsb  %ds:(%esi),(%dx)
  304df5:	74 65                	je     304e5c <__umoddi3+0x20c>
  304df7:	72 72                	jb     304e6b <__umoddi3+0x21b>
  304df9:	75 70                	jne    304e6b <__umoddi3+0x21b>
  304dfb:	74 65                	je     304e62 <__umoddi3+0x212>
  304dfd:	64 20 0a             	and    %cl,%fs:(%edx)
  304e00:	00 55 73             	add    %dl,0x73(%ebp)
  304e03:	65 72 32             	gs jb  304e38 <__umoddi3+0x1e8>
  304e06:	20 74 61 73          	and    %dh,0x73(%ecx,%eiz,2)
  304e0a:	6b 20 69             	imul   $0x69,(%eax),%esp
  304e0d:	6e                   	outsb  %ds:(%esi),(%dx)
  304e0e:	74 65                	je     304e75 <__umoddi3+0x225>
  304e10:	72 72                	jb     304e84 <__umoddi3+0x234>
  304e12:	75 70                	jne    304e84 <__umoddi3+0x234>
  304e14:	74 65                	je     304e7b <__umoddi3+0x22b>
  304e16:	64 20 0a             	and    %cl,%fs:(%edx)
  304e19:	00 69 6e             	add    %ch,0x6e(%ecx)
  304e1c:	63 72 65             	arpl   %si,0x65(%edx)
  304e1f:	6d                   	insl   (%dx),%es:(%edi)
  304e20:	65 6e                	outsb  %gs:(%esi),(%dx)
  304e22:	74 69                	je     304e8d <__umoddi3+0x23d>
  304e24:	6e                   	outsb  %ds:(%esi),(%dx)
  304e25:	67 20 63 6f          	and    %ah,0x6f(%bp,%di)
  304e29:	75 6e                	jne    304e99 <__umoddi3+0x249>
  304e2b:	74 65                	je     304e92 <__umoddi3+0x242>
  304e2d:	72 3a                	jb     304e69 <__umoddi3+0x219>
  304e2f:	20 25 64 00 00 0a    	and    %ah,0xa000064
  304e35:	49                   	dec    %ecx
  304e36:	44                   	inc    %esp
  304e37:	54                   	push   %esp
  304e38:	20 65 76             	and    %ah,0x76(%ebp)
  304e3b:	65 6e                	outsb  %gs:(%esi),(%dx)
  304e3d:	74 0a                	je     304e49 <__umoddi3+0x1f9>
  304e3f:	20 2e                	and    %ch,(%esi)
  304e41:	20 69 6e             	and    %ch,0x6e(%ecx)
  304e44:	74 20                	je     304e66 <__umoddi3+0x216>
  304e46:	20 20                	and    %ah,(%eax)
  304e48:	20 23                	and    %ah,(%ebx)
  304e4a:	25 64 0a 20 2e       	and    $0x2e200a64,%eax
  304e4f:	20 65 72             	and    %ah,0x72(%ebp)
  304e52:	72 6f                	jb     304ec3 <__umoddi3+0x273>
  304e54:	72 20                	jb     304e76 <__umoddi3+0x226>
  304e56:	20 30                	and    %dh,(%eax)
  304e58:	78 25                	js     304e7f <__umoddi3+0x22f>
  304e5a:	78 0a                	js     304e66 <__umoddi3+0x216>
  304e5c:	20 2e                	and    %ch,(%esi)
  304e5e:	20 63 73             	and    %ah,0x73(%ebx)
  304e61:	3a 65 69             	cmp    0x69(%ebp),%ah
  304e64:	70 20                	jo     304e86 <__umoddi3+0x236>
  304e66:	30 78 25             	xor    %bh,0x25(%eax)
  304e69:	78 3a                	js     304ea5 <__umoddi3+0x255>
  304e6b:	30 78 25             	xor    %bh,0x25(%eax)
  304e6e:	78 0a                	js     304e7a <__umoddi3+0x22a>
  304e70:	20 2e                	and    %ch,(%esi)
  304e72:	20 73 73             	and    %dh,0x73(%ebx)
  304e75:	3a 65 73             	cmp    0x73(%ebp),%ah
  304e78:	70 20                	jo     304e9a <__umoddi3+0x24a>
  304e7a:	30 78 25             	xor    %bh,0x25(%eax)
  304e7d:	78 3a                	js     304eb9 <__umoddi3+0x269>
  304e7f:	30 78 25             	xor    %bh,0x25(%eax)
  304e82:	78 0a                	js     304e8e <__umoddi3+0x23e>
  304e84:	20 2e                	and    %ch,(%esi)
  304e86:	20 65 66             	and    %ah,0x66(%ebp)
  304e89:	6c                   	insb   (%dx),%es:(%edi)
  304e8a:	61                   	popa   
  304e8b:	67 73 20             	addr16 jae 304eae <__umoddi3+0x25e>
  304e8e:	30 78 25             	xor    %bh,0x25(%eax)
  304e91:	78 0a                	js     304e9d <__umoddi3+0x24d>
  304e93:	0a 2d 20 47 50 52    	or     0x52504720,%ch
  304e99:	0a 65 61             	or     0x61(%ebp),%ah
  304e9c:	78 20                	js     304ebe <__umoddi3+0x26e>
  304e9e:	20 20                	and    %ah,(%eax)
  304ea0:	20 20                	and    %ah,(%eax)
  304ea2:	3a 20                	cmp    (%eax),%ah
  304ea4:	30 78 25             	xor    %bh,0x25(%eax)
  304ea7:	78 0a                	js     304eb3 <__umoddi3+0x263>
  304ea9:	65 63 78 20          	arpl   %di,%gs:0x20(%eax)
  304ead:	20 20                	and    %ah,(%eax)
  304eaf:	20 20                	and    %ah,(%eax)
  304eb1:	3a 20                	cmp    (%eax),%ah
  304eb3:	30 78 25             	xor    %bh,0x25(%eax)
  304eb6:	78 0a                	js     304ec2 <__umoddi3+0x272>
  304eb8:	65 64 78 20          	gs fs js 304edc <__umoddi3+0x28c>
  304ebc:	20 20                	and    %ah,(%eax)
  304ebe:	20 20                	and    %ah,(%eax)
  304ec0:	3a 20                	cmp    (%eax),%ah
  304ec2:	30 78 25             	xor    %bh,0x25(%eax)
  304ec5:	78 0a                	js     304ed1 <__umoddi3+0x281>
  304ec7:	65 62 78 20          	bound  %edi,%gs:0x20(%eax)
  304ecb:	20 20                	and    %ah,(%eax)
  304ecd:	20 20                	and    %ah,(%eax)
  304ecf:	3a 20                	cmp    (%eax),%ah
  304ed1:	30 78 25             	xor    %bh,0x25(%eax)
  304ed4:	78 0a                	js     304ee0 <__umoddi3+0x290>
  304ed6:	65 73 70             	gs jae 304f49 <__umoddi3+0x2f9>
  304ed9:	20 20                	and    %ah,(%eax)
  304edb:	20 20                	and    %ah,(%eax)
  304edd:	20 3a                	and    %bh,(%edx)
  304edf:	20 30                	and    %dh,(%eax)
  304ee1:	78 25                	js     304f08 <__umoddi3+0x2b8>
  304ee3:	78 0a                	js     304eef <__umoddi3+0x29f>
  304ee5:	65 62 70 20          	bound  %esi,%gs:0x20(%eax)
  304ee9:	20 20                	and    %ah,(%eax)
  304eeb:	20 20                	and    %ah,(%eax)
  304eed:	3a 20                	cmp    (%eax),%ah
  304eef:	30 78 25             	xor    %bh,0x25(%eax)
  304ef2:	78 0a                	js     304efe <__umoddi3+0x2ae>
  304ef4:	65 73 69             	gs jae 304f60 <__umoddi3+0x310>
  304ef7:	20 20                	and    %ah,(%eax)
  304ef9:	20 20                	and    %ah,(%eax)
  304efb:	20 3a                	and    %bh,(%edx)
  304efd:	20 30                	and    %dh,(%eax)
  304eff:	78 25                	js     304f26 <__umoddi3+0x2d6>
  304f01:	78 0a                	js     304f0d <__umoddi3+0x2bd>
  304f03:	65 64 69 20 20 20 20 	gs imul $0x20202020,%fs:(%eax),%esp
  304f0a:	20 
  304f0b:	3a 20                	cmp    (%eax),%ah
  304f0d:	30 78 25             	xor    %bh,0x25(%eax)
  304f10:	78 0a                	js     304f1c <__umoddi3+0x2cc>
  304f12:	00 69 67             	add    %ch,0x67(%ecx)
  304f15:	6e                   	outsb  %ds:(%esi),(%dx)
  304f16:	6f                   	outsl  %ds:(%esi),(%dx)
  304f17:	72 65                	jb     304f7e <__umoddi3+0x32e>
  304f19:	20 49 52             	and    %cl,0x52(%ecx)
  304f1c:	51                   	push   %ecx
  304f1d:	20 25 64 0a 00 00    	and    %ah,0xa64
  304f23:	00 44 69 76          	add    %al,0x76(%ecx,%ebp,2)
  304f27:	69 64 65 20 62 79 20 	imul   $0x7a207962,0x20(%ebp,%eiz,2),%esp
  304f2e:	7a 
  304f2f:	65 72 6f             	gs jb  304fa1 <__umoddi3+0x351>
  304f32:	00 44 65 62          	add    %al,0x62(%ebp,%eiz,2)
  304f36:	75 67                	jne    304f9f <__umoddi3+0x34f>
  304f38:	00 4e 4d             	add    %cl,0x4d(%esi)
  304f3b:	49                   	dec    %ecx
  304f3c:	20 69 6e             	and    %ch,0x6e(%ecx)
  304f3f:	74 65                	je     304fa6 <__umoddi3+0x356>
  304f41:	72 72                	jb     304fb5 <__umoddi3+0x365>
  304f43:	75 70                	jne    304fb5 <__umoddi3+0x365>
  304f45:	74 00                	je     304f47 <__umoddi3+0x2f7>
  304f47:	42                   	inc    %edx
  304f48:	72 65                	jb     304faf <__umoddi3+0x35f>
  304f4a:	61                   	popa   
  304f4b:	6b 70 6f 69          	imul   $0x69,0x6f(%eax),%esi
  304f4f:	6e                   	outsb  %ds:(%esi),(%dx)
  304f50:	74 00                	je     304f52 <__umoddi3+0x302>
  304f52:	4f                   	dec    %edi
  304f53:	76 65                	jbe    304fba <__umoddi3+0x36a>
  304f55:	72 66                	jb     304fbd <__umoddi3+0x36d>
  304f57:	6c                   	insb   (%dx),%es:(%edi)
  304f58:	6f                   	outsl  %ds:(%esi),(%dx)
  304f59:	77 00                	ja     304f5b <__umoddi3+0x30b>
  304f5b:	42                   	inc    %edx
  304f5c:	4f                   	dec    %edi
  304f5d:	55                   	push   %ebp
  304f5e:	4e                   	dec    %esi
  304f5f:	44                   	inc    %esp
  304f60:	20 72 61             	and    %dh,0x61(%edx)
  304f63:	6e                   	outsb  %ds:(%esi),(%dx)
  304f64:	67 65 20 65 78       	and    %ah,%gs:0x78(%di)
  304f69:	63 65 65             	arpl   %sp,0x65(%ebp)
  304f6c:	64 65 64 00 49 6e    	fs gs add %cl,%fs:0x6e(%ecx)
  304f72:	76 61                	jbe    304fd5 <__umoddi3+0x385>
  304f74:	6c                   	insb   (%dx),%es:(%edi)
  304f75:	69 64 20 4f 70 63 6f 	imul   $0x646f6370,0x4f(%eax,%eiz,1),%esp
  304f7c:	64 
  304f7d:	65 00 44 65 76       	add    %al,%gs:0x76(%ebp,%eiz,2)
  304f82:	69 63 65 20 6e 6f 74 	imul   $0x746f6e20,0x65(%ebx),%esp
  304f89:	20 61 76             	and    %ah,0x76(%ecx)
  304f8c:	61                   	popa   
  304f8d:	69 6c 61 62 6c 65 00 	imul   $0x4400656c,0x62(%ecx,%eiz,2),%ebp
  304f94:	44 
  304f95:	6f                   	outsl  %ds:(%esi),(%dx)
  304f96:	75 62                	jne    304ffa <__umoddi3+0x3aa>
  304f98:	6c                   	insb   (%dx),%es:(%edi)
  304f99:	65 20 66 61          	and    %ah,%gs:0x61(%esi)
  304f9d:	75 6c                	jne    30500b <__umoddi3+0x3bb>
  304f9f:	74 00                	je     304fa1 <__umoddi3+0x351>
  304fa1:	43                   	inc    %ebx
  304fa2:	6f                   	outsl  %ds:(%esi),(%dx)
  304fa3:	70 72                	jo     305017 <__umoddi3+0x3c7>
  304fa5:	6f                   	outsl  %ds:(%esi),(%dx)
  304fa6:	63 65 73             	arpl   %sp,0x73(%ebp)
  304fa9:	73 6f                	jae    30501a <__umoddi3+0x3ca>
  304fab:	72 20                	jb     304fcd <__umoddi3+0x37d>
  304fad:	73 65                	jae    305014 <__umoddi3+0x3c4>
  304faf:	67 6d                	insl   (%dx),%es:(%di)
  304fb1:	65 6e                	outsb  %gs:(%esi),(%dx)
  304fb3:	74 20                	je     304fd5 <__umoddi3+0x385>
  304fb5:	6f                   	outsl  %ds:(%esi),(%dx)
  304fb6:	76 65                	jbe    30501d <__umoddi3+0x3cd>
  304fb8:	72 72                	jb     30502c <__umoddi3+0x3dc>
  304fba:	75 6e                	jne    30502a <__umoddi3+0x3da>
  304fbc:	00 49 6e             	add    %cl,0x6e(%ecx)
  304fbf:	76 61                	jbe    305022 <__umoddi3+0x3d2>
  304fc1:	6c                   	insb   (%dx),%es:(%edi)
  304fc2:	69 64 20 54 53 53 00 	imul   $0x53005353,0x54(%eax,%eiz,1),%esp
  304fc9:	53 
  304fca:	65 67 6d             	gs insl (%dx),%es:(%di)
  304fcd:	65 6e                	outsb  %gs:(%esi),(%dx)
  304fcf:	74 20                	je     304ff1 <__umoddi3+0x3a1>
  304fd1:	6e                   	outsb  %ds:(%esi),(%dx)
  304fd2:	6f                   	outsl  %ds:(%esi),(%dx)
  304fd3:	74 20                	je     304ff5 <__umoddi3+0x3a5>
  304fd5:	70 72                	jo     305049 <__umoddi3+0x3f9>
  304fd7:	65 73 65             	gs jae 30503f <__umoddi3+0x3ef>
  304fda:	6e                   	outsb  %ds:(%esi),(%dx)
  304fdb:	74 00                	je     304fdd <__umoddi3+0x38d>
  304fdd:	53                   	push   %ebx
  304fde:	74 61                	je     305041 <__umoddi3+0x3f1>
  304fe0:	63 6b 20             	arpl   %bp,0x20(%ebx)
  304fe3:	66 61                	popaw  
  304fe5:	75 6c                	jne    305053 <__umoddi3+0x403>
  304fe7:	74 00                	je     304fe9 <__umoddi3+0x399>
  304fe9:	47                   	inc    %edi
  304fea:	65 6e                	outsb  %gs:(%esi),(%dx)
  304fec:	65 72 61             	gs jb  305050 <__umoddi3+0x400>
  304fef:	6c                   	insb   (%dx),%es:(%edi)
  304ff0:	20 70 72             	and    %dh,0x72(%eax)
  304ff3:	6f                   	outsl  %ds:(%esi),(%dx)
  304ff4:	74 65                	je     30505b <__umoddi3+0x40b>
  304ff6:	63 74 69 6f          	arpl   %si,0x6f(%ecx,%ebp,2)
  304ffa:	6e                   	outsb  %ds:(%esi),(%dx)
  304ffb:	00 50 61             	add    %dl,0x61(%eax)
  304ffe:	67 65 20 66 61       	and    %ah,%gs:0x61(%bp)
  305003:	75 6c                	jne    305071 <__umoddi3+0x421>
  305005:	74 00                	je     305007 <__umoddi3+0x3b7>
  305007:	49                   	dec    %ecx
  305008:	6e                   	outsb  %ds:(%esi),(%dx)
  305009:	74 65                	je     305070 <__umoddi3+0x420>
  30500b:	6c                   	insb   (%dx),%es:(%edi)
  30500c:	20 52 65             	and    %dl,0x65(%edx)
  30500f:	73 65                	jae    305076 <__umoddi3+0x426>
  305011:	72 76                	jb     305089 <__umoddi3+0x439>
  305013:	65 64 00 46 6c       	gs add %al,%fs:0x6c(%esi)
  305018:	6f                   	outsl  %ds:(%esi),(%dx)
  305019:	61                   	popa   
  30501a:	74 69                	je     305085 <__umoddi3+0x435>
  30501c:	6e                   	outsb  %ds:(%esi),(%dx)
  30501d:	67 20 70 6f          	and    %dh,0x6f(%bx,%si)
  305021:	69 6e 74 20 65 72 72 	imul   $0x72726520,0x74(%esi),%ebp
  305028:	6f                   	outsl  %ds:(%esi),(%dx)
  305029:	72 00                	jb     30502b <__umoddi3+0x3db>
  30502b:	41                   	inc    %ecx
  30502c:	6c                   	insb   (%dx),%es:(%edi)
  30502d:	69 67 6e 6d 65 6e 74 	imul   $0x746e656d,0x6e(%edi),%esp
  305034:	20 63 68             	and    %ah,0x68(%ebx)
  305037:	65 63 6b 00          	arpl   %bp,%gs:0x0(%ebx)
  30503b:	4d                   	dec    %ebp
  30503c:	61                   	popa   
  30503d:	63 68 69             	arpl   %bp,0x69(%eax)
  305040:	6e                   	outsb  %ds:(%esi),(%dx)
  305041:	65 20 63 68          	and    %ah,%gs:0x68(%ebx)
  305045:	65 63 6b 00          	arpl   %bp,%gs:0x0(%ebx)
  305049:	53                   	push   %ebx
  30504a:	49                   	dec    %ecx
  30504b:	4d                   	dec    %ebp
  30504c:	44                   	inc    %esp
  30504d:	20 66 6c             	and    %ah,0x6c(%esi)
  305050:	6f                   	outsl  %ds:(%esi),(%dx)
  305051:	61                   	popa   
  305052:	74 69                	je     3050bd <__umoddi3+0x46d>
  305054:	6e                   	outsb  %ds:(%esi),(%dx)
  305055:	67 20 70 6f          	and    %dh,0x6f(%bx,%si)
  305059:	69 6e 74 00 0a 45 78 	imul   $0x78450a00,0x74(%esi),%ebp
  305060:	63 65 70             	arpl   %sp,0x70(%ebp)
  305063:	74 69                	je     3050ce <__umoddi3+0x47e>
  305065:	6f                   	outsl  %ds:(%esi),(%dx)
  305066:	6e                   	outsb  %ds:(%esi),(%dx)
  305067:	3a 20                	cmp    (%eax),%ah
  305069:	25 73 0a 00 23       	and    $0x23000a73,%eax
  30506e:	4e                   	dec    %esi
  30506f:	4d                   	dec    %ebp
  305070:	49                   	dec    %ecx
  305071:	20 28                	and    %ch,(%eax)
  305073:	69 67 6e 6f 72 65 64 	imul   $0x6465726f,0x6e(%edi),%esp
  30507a:	29 0a                	sub    %ecx,(%edx)
  30507c:	00 00                	add    %al,(%eax)
  30507e:	00 00                	add    %al,(%eax)
  305080:	23 50 46             	and    0x46(%eax),%edx
  305083:	20 64 65 74          	and    %ah,0x74(%ebp,%eiz,2)
  305087:	61                   	popa   
  305088:	69 6c 73 3a 20 70 3a 	imul   $0x253a7020,0x3a(%ebx,%esi,2),%ebp
  30508f:	25 
  305090:	64 20 77 72          	and    %dh,%fs:0x72(%edi)
  305094:	3a 25 64 20 75 73    	cmp    0x73752064,%ah
  30509a:	3a 25 64 20 69 64    	cmp    0x64692064,%ah
  3050a0:	3a 25 64 20 61 64    	cmp    0x64612064,%ah
  3050a6:	64 72 20             	fs jb  3050c9 <__umoddi3+0x479>
  3050a9:	30 78 25             	xor    %bh,0x25(%eax)
  3050ac:	78 0a                	js     3050b8 <__umoddi3+0x468>
  3050ae:	00 00                	add    %al,(%eax)
  3050b0:	23 47 50             	and    0x50(%edi),%eax
  3050b3:	20 64 65 74          	and    %ah,0x74(%ebp,%eiz,2)
  3050b7:	61                   	popa   
  3050b8:	69 6c 73 3a 20 65 78 	imul   $0x74786520,0x3a(%ebx,%esi,2),%ebp
  3050bf:	74 
  3050c0:	3a 25 64 20 69 64    	cmp    0x64692064,%ah
  3050c6:	74 3a                	je     305102 <__umoddi3+0x4b2>
  3050c8:	25 64 20 74 69       	and    $0x69742064,%eax
  3050cd:	3a 25 64 20 69 6e    	cmp    0x6e692064,%ah
  3050d3:	64 65 78 3a          	fs gs js 305111 <__umoddi3+0x4c1>
  3050d7:	25 64 0a 00 63       	and    $0x63000a64,%eax
  3050dc:	72 30                	jb     30510e <__umoddi3+0x4be>
  3050de:	20 3d 20 25 70 0a    	and    %bh,0xa702520
  3050e4:	00 63 72             	add    %ah,0x72(%ebx)
  3050e7:	34 20                	xor    $0x20,%al
  3050e9:	3d 20 25 70 0a       	cmp    $0xa702520,%eax
  3050ee:	00 66 61             	add    %ah,0x61(%esi)
  3050f1:	74 61                	je     305154 <__umoddi3+0x504>
  3050f3:	6c                   	insb   (%dx),%es:(%edi)
  3050f4:	20 65 78             	and    %ah,0x78(%ebp)
  3050f7:	63 65 70             	arpl   %sp,0x70(%ebp)
  3050fa:	74 69                	je     305165 <__umoddi3+0x515>
  3050fc:	6f                   	outsl  %ds:(%esi),(%dx)
  3050fd:	6e                   	outsb  %ds:(%esi),(%dx)
  3050fe:	20 21                	and    %ah,(%ecx)
  305100:	0a 00                	or     (%eax),%al
  305102:	0a 2d 3d 20 53 74    	or     0x7453203d,%ch
  305108:	61                   	popa   
  305109:	63 6b 20             	arpl   %bp,0x20(%ebx)
  30510c:	54                   	push   %esp
  30510d:	72 61                	jb     305170 <__umoddi3+0x520>
  30510f:	63 65 20             	arpl   %sp,0x20(%ebp)
  305112:	3d 2d 0a 00 25       	cmp    $0x25000a2d,%eax
  305117:	70 0a                	jo     305123 <__umoddi3+0x4d3>
  305119:	00 00                	add    %al,(%eax)
  30511b:	00 23                	add    %ah,(%ebx)
  30511d:	23 23                	and    (%ebx),%esp
  30511f:	20 47 44             	and    %al,0x44(%edi)
  305122:	54                   	push   %esp
  305123:	20 23                	and    %ah,(%ebx)
  305125:	23 23                	and    (%ebx),%esp
  305127:	0a 00                	or     (%eax),%al
  305129:	73 69                	jae    305194 <__umoddi3+0x544>
  30512b:	7a 65                	jp     305192 <__umoddi3+0x542>
  30512d:	20 6f 66             	and    %ch,0x66(%edi)
  305130:	20 47 44             	and    %al,0x44(%edi)
  305133:	54                   	push   %esp
  305134:	3a 20                	cmp    (%eax),%ah
  305136:	25 64 0a 00 73       	and    $0x73000a64,%eax
  30513b:	73 3a                	jae    305177 <__umoddi3+0x527>
  30513d:	20 25 64 09 00 64    	and    %ah,0x64000964
  305143:	73 3a                	jae    30517f <__umoddi3+0x52f>
  305145:	20 25 64 09 00 65    	and    %ah,0x65000964
  30514b:	73 3a                	jae    305187 <__umoddi3+0x537>
  30514d:	20 25 64 09 00 66    	and    %ah,0x66000964
  305153:	73 3a                	jae    30518f <__umoddi3+0x53f>
  305155:	20 25 64 09 00 67    	and    %ah,0x67000964
  30515b:	73 3a                	jae    305197 <__umoddi3+0x547>
  30515d:	20 25 64 0a 00 00    	and    %ah,0xa64
  305163:	00 2d 2d 2d 2d 2d    	add    %ch,0x2d2d2d2d
  305169:	2d 2d 2d 2d 2d       	sub    $0x2d2d2d2d,%eax
  30516e:	2d 2d 2d 2d 2d       	sub    $0x2d2d2d2d,%eax
  305173:	2d 47 44 54 5b       	sub    $0x5b544447,%eax
  305178:	25 64 5d 2d 2d       	and    $0x2d2d5d64,%eax
  30517d:	2d 2d 2d 2d 2d       	sub    $0x2d2d2d2d,%eax
  305182:	2d 2d 2d 2d 2d       	sub    $0x2d2d2d2d,%eax
  305187:	2d 2d 2d 2d 2d       	sub    $0x2d2d2d2d,%eax
  30518c:	2d 2d 2d 0a 20       	sub    $0x200a2d2d,%eax
  305191:	00 6c 69 6d          	add    %ch,0x6d(%ecx,%ebp,2)
  305195:	69 74 3a 20 25 64 20 	imul   $0x9206425,0x20(%edx,%edi,1),%esi
  30519c:	09 
  30519d:	00 62 61             	add    %ah,0x61(%edx)
  3051a0:	73 65                	jae    305207 <__umoddi3+0x5b7>
  3051a2:	3a 20                	cmp    (%eax),%ah
  3051a4:	25 78 20 09 00       	and    $0x92078,%eax
  3051a9:	64 70 6c             	fs jo  305218 <__umoddi3+0x5c8>
  3051ac:	3a 20                	cmp    (%eax),%ah
  3051ae:	25 64 20 09 00       	and    $0x92064,%eax
  3051b3:	74 79                	je     30522e <__umoddi3+0x5de>
  3051b5:	70 65                	jo     30521c <__umoddi3+0x5cc>
  3051b7:	3a 20                	cmp    (%eax),%ah
  3051b9:	25 64 20 0a 20       	and    $0x200a2064,%eax
  3051be:	00 0a                	add    %cl,(%edx)
  3051c0:	54                   	push   %esp
  3051c1:	53                   	push   %ebx
  3051c2:	53                   	push   %ebx
  3051c3:	20 69 6e             	and    %ch,0x6e(%ecx)
  3051c6:	69 74 69 61 6c 69 7a 	imul   $0x617a696c,0x61(%ecx,%ebp,2),%esi
  3051cd:	61 
  3051ce:	74 69                	je     305239 <__umoddi3+0x5e9>
  3051d0:	6f                   	outsl  %ds:(%esi),(%dx)
  3051d1:	6e                   	outsb  %ds:(%esi),(%dx)
  3051d2:	20 0a                	and    %cl,(%edx)
  3051d4:	00 0a                	add    %cl,(%edx)
  3051d6:	47                   	inc    %edi
  3051d7:	44                   	inc    %esp
  3051d8:	54                   	push   %esp
  3051d9:	20 69 6e             	and    %ch,0x6e(%ecx)
  3051dc:	69 74 69 61 6c 69 7a 	imul   $0x617a696c,0x61(%ecx,%ebp,2),%esi
  3051e3:	61 
  3051e4:	74 69                	je     30524f <__umoddi3+0x5ff>
  3051e6:	6f                   	outsl  %ds:(%esi),(%dx)
  3051e7:	6e                   	outsb  %ds:(%esi),(%dx)
  3051e8:	3a 20                	cmp    (%eax),%ah
  3051ea:	0a 00                	or     (%eax),%al
  3051ec:	0a 20                	or     (%eax),%ah
  3051ee:	70 72                	jo     305262 <__umoddi3+0x612>
  3051f0:	69 6e 74 20 74 61 73 	imul   $0x73617420,0x74(%esi),%ebp
  3051f7:	6b 20 0a             	imul   $0xa,(%eax),%esp
  3051fa:	00 20                	add    %ah,(%eax)
  3051fc:	65 62 70 20          	bound  %esi,%gs:0x20(%eax)
  305200:	3d 20 25 78 0a       	cmp    $0xa782520,%eax
  305205:	00 20                	add    %ah,(%eax)
  305207:	65 73 70             	gs jae 30527a <__umoddi3+0x62a>
  30520a:	20 3d 20 25 78 0a    	and    %bh,0xa782520
  305210:	00 20                	add    %ah,(%eax)
  305212:	6e                   	outsb  %ds:(%esi),(%dx)
  305213:	65 78 74             	gs js  30528a <__hextable+0x6>
  305216:	5f                   	pop    %edi
  305217:	74 61                	je     30527a <__umoddi3+0x62a>
  305219:	73 6b                	jae    305286 <__hextable+0x2>
  30521b:	20 3d 20 25 78 0a    	and    %bh,0xa782520
  305221:	00 0a                	add    %cl,(%edx)
  305223:	49                   	dec    %ecx
  305224:	6e                   	outsb  %ds:(%esi),(%dx)
  305225:	69 74 69 61 6c 69 73 	imul   $0x6573696c,0x61(%ecx,%ebp,2),%esi
  30522c:	65 
  30522d:	20 74 61 73          	and    %dh,0x73(%ecx,%eiz,2)
  305231:	6b 73 20 0a          	imul   $0xa,0x20(%ebx),%esi
  305235:	00 0a                	add    %cl,(%edx)
  305237:	49                   	dec    %ecx
  305238:	6e                   	outsb  %ds:(%esi),(%dx)
  305239:	69 74 69 61 6c 69 73 	imul   $0x6573696c,0x61(%ecx,%ebp,2),%esi
  305240:	65 
  305241:	20 63 6f             	and    %ah,0x6f(%ebx)
  305244:	6d                   	insl   (%dx),%es:(%edi)
  305245:	70 74                	jo     3052bb <exception_names+0x1b>
  305247:	65 72 20             	gs jb  30526a <__umoddi3+0x61a>
  30524a:	74 6f                	je     3052bb <exception_names+0x1b>
  30524c:	20 30                	and    %dh,(%eax)
  30524e:	20 0a                	and    %cl,(%edx)
  305250:	00 0a                	add    %cl,(%edx)
  305252:	45                   	inc    %ebp
  305253:	6e                   	outsb  %ds:(%esi),(%dx)
  305254:	61                   	popa   
  305255:	62 6c 65 20          	bound  %ebp,0x20(%ebp,%eiz,2)
  305259:	69 6e 74 65 72 72 75 	imul   $0x75727265,0x74(%esi),%ebp
  305260:	70 74                	jo     3052d6 <exception_names+0x36>
  305262:	69                   	.byte 0x69
  305263:	6f                   	outsl  %ds:(%esi),(%dx)
  305264:	6e                   	outsb  %ds:(%esi),(%dx)
  305265:	20 0a                	and    %cl,(%edx)
	...

Disassembly of section .data:

00305280 <info>:
  305280:	00 53 30             	add    %dl,0x30(%ebx)
	...

00305284 <__hextable>:
  305284:	30 31                	xor    %dh,(%ecx)
  305286:	32 33                	xor    (%ebx),%dh
  305288:	34 35                	xor    $0x35,%al
  30528a:	36 37                	ss aaa 
  30528c:	38 39                	cmp    %bh,(%ecx)
  30528e:	61                   	popa   
  30528f:	62 63 64             	bound  %esp,0x64(%ebx)
  305292:	65 66 00 00          	data16 add %al,%gs:(%eax)
	...

003052a0 <exception_names>:
  3052a0:	24 4f                	and    $0x4f,%al
  3052a2:	30 00                	xor    %al,(%eax)
  3052a4:	33 4f 30             	xor    0x30(%edi),%ecx
  3052a7:	00 39                	add    %bh,(%ecx)
  3052a9:	4f                   	dec    %edi
  3052aa:	30 00                	xor    %al,(%eax)
  3052ac:	47                   	inc    %edi
  3052ad:	4f                   	dec    %edi
  3052ae:	30 00                	xor    %al,(%eax)
  3052b0:	52                   	push   %edx
  3052b1:	4f                   	dec    %edi
  3052b2:	30 00                	xor    %al,(%eax)
  3052b4:	5b                   	pop    %ebx
  3052b5:	4f                   	dec    %edi
  3052b6:	30 00                	xor    %al,(%eax)
  3052b8:	70 4f                	jo     305309 <__info+0x9>
  3052ba:	30 00                	xor    %al,(%eax)
  3052bc:	7f 4f                	jg     30530d <__info+0xd>
  3052be:	30 00                	xor    %al,(%eax)
  3052c0:	94                   	xchg   %eax,%esp
  3052c1:	4f                   	dec    %edi
  3052c2:	30 00                	xor    %al,(%eax)
  3052c4:	a1 4f 30 00 bd       	mov    0xbd00304f,%eax
  3052c9:	4f                   	dec    %edi
  3052ca:	30 00                	xor    %al,(%eax)
  3052cc:	c9                   	leave  
  3052cd:	4f                   	dec    %edi
  3052ce:	30 00                	xor    %al,(%eax)
  3052d0:	dd 4f 30             	fisttpll 0x30(%edi)
  3052d3:	00 e9                	add    %ch,%cl
  3052d5:	4f                   	dec    %edi
  3052d6:	30 00                	xor    %al,(%eax)
  3052d8:	fc                   	cld    
  3052d9:	4f                   	dec    %edi
  3052da:	30 00                	xor    %al,(%eax)
  3052dc:	07                   	pop    %es
  3052dd:	50                   	push   %eax
  3052de:	30 00                	xor    %al,(%eax)
  3052e0:	16                   	push   %ss
  3052e1:	50                   	push   %eax
  3052e2:	30 00                	xor    %al,(%eax)
  3052e4:	2b 50 30             	sub    0x30(%eax),%edx
  3052e7:	00 3b                	add    %bh,(%ebx)
  3052e9:	50                   	push   %eax
  3052ea:	30 00                	xor    %al,(%eax)
  3052ec:	49                   	dec    %ecx
  3052ed:	50                   	push   %eax
  3052ee:	30 00                	xor    %al,(%eax)

003052f0 <cpt_user1>:
  3052f0:	00 10                	add    %dl,(%eax)
  3052f2:	40                   	inc    %eax
	...

003052f4 <cpt_user2>:
  3052f4:	00 10                	add    %dl,(%eax)
  3052f6:	80                   	.byte 0x80
	...

Disassembly of section .bss:

00305300 <__info>:
	...

00305320 <vprint_buffer>:
	...

00305720 <IDT>:
	...

00305f20 <current_task>:
	...

00305f40 <TSS>:
	...

00307fe0 <GDT>:
	...

00308010 <usr2_task>:
	...

00308020 <usr1_task>:
	...

00308030 <krn_task>:
	...

Disassembly of section .user1:

00400000 <user1>:
  400000:	55                   	push   %ebp
  400001:	89 e5                	mov    %esp,%ebp
  400003:	a1 f0 52 30 00       	mov    0x3052f0,%eax
  400008:	8b 10                	mov    (%eax),%edx
  40000a:	83 c2 01             	add    $0x1,%edx
  40000d:	89 10                	mov    %edx,(%eax)
  40000f:	eb f2                	jmp    400003 <user1+0x3>

Disassembly of section .user2:

00800000 <user2>:
  800000:	55                   	push   %ebp
  800001:	89 e5                	mov    %esp,%ebp
  800003:	a1 f4 52 30 00       	mov    0x3052f4,%eax
  800008:	50                   	push   %eax
  800009:	e8 0f 47 b0 ff       	call   30471d <sys_counter>
  80000e:	83 c4 04             	add    $0x4,%esp
  800011:	eb f0                	jmp    800003 <user2+0x3>

Disassembly of section .debug_line:

00000000 <.debug_line>:
   0:	49                   	dec    %ecx
   1:	00 00                	add    %al,(%eax)
   3:	00 02                	add    %al,(%edx)
   5:	00 2d 00 00 00 01    	add    %ch,0x1000000
   b:	01 fb                	add    %edi,%ebx
   d:	0e                   	push   %cs
   e:	0d 00 01 01 01       	or     $0x1010100,%eax
  13:	01 00                	add    %eax,(%eax)
  15:	00 00                	add    %al,(%eax)
  17:	01 00                	add    %eax,(%eax)
  19:	00 01                	add    %al,(%ecx)
  1b:	2e 2e 2f             	cs cs das 
  1e:	6b 65 72 6e          	imul   $0x6e,0x72(%ebp),%esp
  22:	65 6c                	gs insb (%dx),%es:(%edi)
  24:	2f                   	das    
  25:	63 6f 72             	arpl   %bp,0x72(%edi)
  28:	65 00 00             	add    %al,%gs:(%eax)
  2b:	65 6e                	outsb  %gs:(%esi),(%dx)
  2d:	74 72                	je     a1 <mbh-0x2fff5f>
  2f:	79 2e                	jns    5f <mbh-0x2fffa1>
  31:	73 00                	jae    33 <mbh-0x2fffcd>
  33:	01 00                	add    %eax,(%eax)
  35:	00 00                	add    %al,(%eax)
  37:	00 05 02 10 30 30    	add    %al,0x30301002
  3d:	00 03                	add    %al,(%ebx)
  3f:	0a 01                	or     (%ecx),%al
  41:	21 59 2f             	and    %ebx,0x2f(%ecx)
  44:	21 2f                	and    %ebp,(%edi)
  46:	5b                   	pop    %ebx
  47:	21 02                	and    %eax,(%edx)
  49:	02 00                	add    (%eax),%al
  4b:	01 01                	add    %eax,(%ecx)
  4d:	88 00                	mov    %al,(%eax)
  4f:	00 00                	add    %al,(%eax)
  51:	02 00                	add    (%eax),%al
  53:	6b 00 00             	imul   $0x0,(%eax),%eax
  56:	00 01                	add    %al,(%ecx)
  58:	01 fb                	add    %edi,%ebx
  5a:	0e                   	push   %cs
  5b:	0d 00 01 01 01       	or     $0x1010100,%eax
  60:	01 00                	add    %eax,(%eax)
  62:	00 00                	add    %al,(%eax)
  64:	01 00                	add    %eax,(%eax)
  66:	00 01                	add    %al,(%ecx)
  68:	2e 2e 2f             	cs cs das 
  6b:	6b 65 72 6e          	imul   $0x6e,0x72(%ebp),%esp
  6f:	65 6c                	gs insb (%dx),%es:(%edi)
  71:	2f                   	das    
  72:	63 6f 72             	arpl   %bp,0x72(%edi)
  75:	65 00 2e             	add    %ch,%gs:(%esi)
  78:	2e 2f                	cs das 
  7a:	6b 65 72 6e          	imul   $0x6e,0x72(%ebp),%esp
  7e:	65 6c                	gs insb (%dx),%es:(%edi)
  80:	2f                   	das    
  81:	69 6e 63 6c 75 64 65 	imul   $0x6564756c,0x63(%esi),%ebp
  88:	00 00                	add    %al,(%eax)
  8a:	73 74                	jae    100 <mbh-0x2fff00>
  8c:	61                   	popa   
  8d:	72 74                	jb     103 <mbh-0x2ffefd>
  8f:	2e 63 00             	arpl   %ax,%cs:(%eax)
  92:	01 00                	add    %eax,(%eax)
  94:	00 74 79 70          	add    %dh,0x70(%ecx,%edi,2)
  98:	65 73 2e             	gs jae c9 <mbh-0x2fff37>
  9b:	68 00 02 00 00       	push   $0x200
  a0:	67 72 75             	addr16 jb 118 <mbh-0x2ffee8>
  a3:	62 5f 6d             	bound  %ebx,0x6d(%edi)
  a6:	62 69 2e             	bound  %ebp,0x2e(%ecx)
  a9:	68 00 02 00 00       	push   $0x200
  ae:	6d                   	insl   (%dx),%es:(%edi)
  af:	62 69 2e             	bound  %ebp,0x2e(%ecx)
  b2:	68 00 02 00 00       	push   $0x200
  b7:	69 6e 66 6f 2e 68 00 	imul   $0x682e6f,0x66(%esi),%ebp
  be:	02 00                	add    (%eax),%al
  c0:	00 00                	add    %al,(%eax)
  c2:	00 05 02 23 30 30    	add    %al,0x30302302
  c8:	00 03                	add    %al,(%ebx)
  ca:	12 01                	adc    (%ecx),%al
  cc:	91                   	xchg   %eax,%ecx
  cd:	a0 59 59 59 f4       	mov    0xf4595959,%al
  d2:	5a                   	pop    %edx
  d3:	f3 02 03             	repz add (%ebx),%al
  d6:	00 01                	add    %al,(%ecx)
  d8:	01 c9                	add    %ecx,%ecx
  da:	01 00                	add    %eax,(%eax)
  dc:	00 02                	add    %al,(%edx)
  de:	00 61 00             	add    %ah,0x0(%ecx)
  e1:	00 00                	add    %al,(%eax)
  e3:	01 01                	add    %eax,(%ecx)
  e5:	fb                   	sti    
  e6:	0e                   	push   %cs
  e7:	0d 00 01 01 01       	or     $0x1010100,%eax
  ec:	01 00                	add    %eax,(%eax)
  ee:	00 00                	add    %al,(%eax)
  f0:	01 00                	add    %eax,(%eax)
  f2:	00 01                	add    %al,(%ecx)
  f4:	2e 2e 2f             	cs cs das 
  f7:	6b 65 72 6e          	imul   $0x6e,0x72(%ebp),%esp
  fb:	65 6c                	gs insb (%dx),%es:(%edi)
  fd:	2f                   	das    
  fe:	69 6e 63 6c 75 64 65 	imul   $0x6564756c,0x63(%esi),%ebp
 105:	00 2e                	add    %ch,(%esi)
 107:	2e 2f                	cs das 
 109:	6b 65 72 6e          	imul   $0x6e,0x72(%ebp),%esp
 10d:	65 6c                	gs insb (%dx),%es:(%edi)
 10f:	2f                   	das    
 110:	63 6f 72             	arpl   %bp,0x72(%edi)
 113:	65 00 00             	add    %al,%gs:(%eax)
 116:	73 74                	jae    18c <mbh-0x2ffe74>
 118:	72 69                	jb     183 <mbh-0x2ffe7d>
 11a:	6e                   	outsb  %ds:(%esi),(%dx)
 11b:	67 2e 68 00 01 00 00 	addr16 cs push $0x100
 122:	70 72                	jo     196 <mbh-0x2ffe6a>
 124:	69 6e 74 2e 63 00 02 	imul   $0x200632e,0x74(%esi),%ebp
 12b:	00 00                	add    %al,(%eax)
 12d:	74 79                	je     1a8 <mbh-0x2ffe58>
 12f:	70 65                	jo     196 <mbh-0x2ffe6a>
 131:	73 2e                	jae    161 <mbh-0x2ffe9f>
 133:	68 00 01 00 00       	push   $0x100
 138:	70 72                	jo     1ac <mbh-0x2ffe54>
 13a:	69 6e 74 2e 68 00 01 	imul   $0x100682e,0x74(%esi),%ebp
 141:	00 00                	add    %al,(%eax)
 143:	00 00                	add    %al,(%eax)
 145:	05 02 6d 30 30       	add    $0x30306d02,%eax
 14a:	00 03                	add    %al,(%ebx)
 14c:	fa                   	cli    
 14d:	00 01                	add    %al,(%ecx)
 14f:	c9                   	leave  
 150:	ad                   	lods   %ds:(%esi),%eax
 151:	08 bb 04 02 03 8c    	or     %bh,-0x73fcfdfc(%ebx)
 157:	7f 74                	jg     1cd <mbh-0x2ffe33>
 159:	69 22 67 08 23 00    	imul   $0x230867,(%edx),%esp
 15f:	02 04 01             	add    (%ecx,%eax,1),%al
 162:	59                   	pop    %ecx
 163:	4f                   	dec    %edi
 164:	6a 67                	push   $0x67
 166:	08 4d 3d             	or     %cl,0x3d(%ebp)
 169:	31 6a 67             	xor    %ebp,0x67(%edx)
 16c:	08 77 3d             	or     %dh,0x3d(%edi)
 16f:	31 69 08             	xor    %ebp,0x8(%ecx)
 172:	9f                   	lahf   
 173:	08 67 3d             	or     %ah,0x3d(%edi)
 176:	31 3d 2f 08 c7 a0    	xor    %edi,0xa0c7082f
 17c:	3f                   	aas    
 17d:	3d 08 4b 40 08       	cmp    $0x8404b08,%eax
 182:	3f                   	aas    
 183:	92                   	xchg   %eax,%edx
 184:	02 29                	add    (%ecx),%ch
 186:	13 00                	adc    (%eax),%eax
 188:	02 04 01             	add    (%ecx,%eax,1),%al
 18b:	06                   	push   %es
 18c:	66 00 02             	data16 add %al,(%edx)
 18f:	04 02                	add    $0x2,%al
 191:	74 00                	je     193 <mbh-0x2ffe6d>
 193:	02 04 04             	add    (%esp,%eax,1),%al
 196:	58                   	pop    %eax
 197:	00 02                	add    %al,(%edx)
 199:	04 04                	add    $0x4,%al
 19b:	06                   	push   %es
 19c:	e1 00                	loope  19e <mbh-0x2ffe62>
 19e:	02 04 02             	add    (%edx,%eax,1),%al
 1a1:	06                   	push   %es
 1a2:	4a                   	dec    %edx
 1a3:	06                   	push   %es
 1a4:	87 85 08 4e 08 59    	xchg   %eax,0x59084e08(%ebp)
 1aa:	08 4c 67 76          	or     %cl,0x76(%edi,%eiz,2)
 1ae:	68 f3 a1 30 02       	push   $0x230a1f3
 1b3:	29 13                	sub    %edx,(%ebx)
 1b5:	08 8d 08 7a 2f 08    	or     %cl,0x82f7a08(%ebp)
 1bb:	e3 ca                	jecxz  187 <mbh-0x2ffe79>
 1bd:	85 08                	test   %ecx,(%eax)
 1bf:	4e                   	dec    %esi
 1c0:	08 59 08             	or     %bl,0x8(%ecx)
 1c3:	4c                   	dec    %esp
 1c4:	67 76 30             	addr16 jbe 1f7 <mbh-0x2ffe09>
 1c7:	02 29                	add    (%ecx),%ch
 1c9:	13 08                	adc    (%eax),%ecx
 1cb:	8d 08                	lea    (%eax),%ecx
 1cd:	7a 2f                	jp     1fe <mbh-0x2ffe02>
 1cf:	08 e3                	or     %ah,%bl
 1d1:	ca 8a 08             	lret   $0x88a
 1d4:	4c                   	dec    %esp
 1d5:	76 00                	jbe    1d7 <mbh-0x2ffe29>
 1d7:	02 04 01             	add    (%ecx,%eax,1),%al
 1da:	06                   	push   %es
 1db:	66 06                	pushw  %es
 1dd:	67 76 30             	addr16 jbe 210 <mbh-0x2ffdf0>
 1e0:	02 27                	add    (%edi),%ah
 1e2:	13 08                	adc    (%eax),%ecx
 1e4:	2f                   	das    
 1e5:	4b                   	dec    %ebx
 1e6:	45                   	inc    %ebp
 1e7:	00 02                	add    %al,(%edx)
 1e9:	04 01                	add    $0x1,%al
 1eb:	06                   	push   %es
 1ec:	66 00 02             	data16 add %al,(%edx)
 1ef:	04 02                	add    $0x2,%al
 1f1:	66 00 02             	data16 add %al,(%edx)
 1f4:	04 03                	add    $0x3,%al
 1f6:	08 74 06 6e          	or     %dh,0x6e(%esi,%eax,1)
 1fa:	67 2f                	addr16 das 
 1fc:	08 b9 cb 3d 86 08    	or     %bh,0x8863dcb(%ecx)
 202:	21 08                	and    %ecx,(%eax)
 204:	91                   	xchg   %eax,%ecx
 205:	40                   	inc    %eax
 206:	6c                   	insb   (%dx),%es:(%edi)
 207:	67 75 75             	addr16 jne 27f <mbh-0x2ffd81>
 20a:	75 76                	jne    282 <mbh-0x2ffd7e>
 20c:	00 02                	add    %al,(%edx)
 20e:	04 01                	add    $0x1,%al
 210:	06                   	push   %es
 211:	9e                   	sahf   
 212:	00 02                	add    %al,(%edx)
 214:	04 01                	add    $0x1,%al
 216:	06                   	push   %es
 217:	4c                   	dec    %esp
 218:	5a                   	pop    %edx
 219:	e6 a1                	out    %al,$0xa1
 21b:	67 67 bc 75 59 67 83 	addr16 addr16 mov $0x83675975,%esp
 222:	5c                   	pop    %esp
 223:	67 d7                	xlat   %ds:(%bx)
 225:	08 67 67             	or     %ah,0x67(%edi)
 228:	d7                   	xlat   %ds:(%ebx)
 229:	08 67 67             	or     %ah,0x67(%edi)
 22c:	08 4b 08             	or     %cl,0x8(%ebx)
 22f:	d7                   	xlat   %ds:(%ebx)
 230:	67 08 3d             	or     %bh,(%di)
 233:	08 d9                	or     %bl,%cl
 235:	00 02                	add    %al,(%edx)
 237:	04 01                	add    $0x1,%al
 239:	06                   	push   %es
 23a:	66 06                	pushw  %es
 23c:	a1 67 08 59 67       	mov    0x67590867,%eax
 241:	08 3d 67 08 4c 08    	or     %bh,0x84c0867
 247:	4c                   	dec    %esp
 248:	03 74 08 4a          	add    0x4a(%eax,%ecx,1),%esi
 24c:	03 0e                	add    (%esi),%ecx
 24e:	58                   	pop    %eax
 24f:	00 02                	add    %al,(%edx)
 251:	04 01                	add    $0x1,%al
 253:	06                   	push   %es
 254:	66 06                	pushw  %es
 256:	a1 67 08 59 67       	mov    0x67590867,%eax
 25b:	08 67 67             	or     %ah,0x67(%edi)
 25e:	08 92 08 76 67 03    	or     %dl,0x3677608(%edx)
 264:	73 08                	jae    26e <mbh-0x2ffd92>
 266:	4a                   	dec    %edx
 267:	03 0f                	add    (%edi),%ecx
 269:	58                   	pop    %eax
 26a:	03 71 08             	add    0x8(%ecx),%esi
 26d:	90                   	nop
 26e:	03 12                	add    (%edx),%edx
 270:	58                   	pop    %eax
 271:	67 08 3d             	or     %bh,(%di)
 274:	08 91 67 08 3d 08    	or     %dl,0x83d0867(%ecx)
 27a:	d9 67 08             	fldenv 0x8(%edi)
 27d:	4b                   	dec    %ebx
 27e:	08 67 08             	or     %ah,0x8(%edi)
 281:	af                   	scas   %es:(%edi),%eax
 282:	00 02                	add    %al,(%edx)
 284:	04 01                	add    $0x1,%al
 286:	06                   	push   %es
 287:	66 06                	pushw  %es
 289:	67 31 67 08          	xor    %esp,0x8(%bx)
 28d:	86 08                	xchg   %cl,(%eax)
 28f:	4d                   	dec    %ebp
 290:	75 92                	jne    224 <mbh-0x2ffddc>
 292:	68 75 93 03 9c       	push   $0x9c039375
 297:	7f 08                	jg     2a1 <mbh-0x2ffd5f>
 299:	66 03 e7             	add    %di,%sp
 29c:	00 d6                	add    %dl,%dh
 29e:	08 13                	or     %dl,(%ebx)
 2a0:	3d 02 02 00 01       	cmp    $0x1000202,%eax
 2a5:	01 b9 00 00 00 02    	add    %edi,0x2000000(%ecx)
 2ab:	00 53 00             	add    %dl,0x0(%ebx)
 2ae:	00 00                	add    %al,(%eax)
 2b0:	01 01                	add    %eax,(%ecx)
 2b2:	fb                   	sti    
 2b3:	0e                   	push   %cs
 2b4:	0d 00 01 01 01       	or     $0x1010100,%eax
 2b9:	01 00                	add    %eax,(%eax)
 2bb:	00 00                	add    %al,(%eax)
 2bd:	01 00                	add    %eax,(%eax)
 2bf:	00 01                	add    %al,(%ecx)
 2c1:	2e 2e 2f             	cs cs das 
 2c4:	6b 65 72 6e          	imul   $0x6e,0x72(%ebp),%esp
 2c8:	65 6c                	gs insb (%dx),%es:(%edi)
 2ca:	2f                   	das    
 2cb:	63 6f 72             	arpl   %bp,0x72(%edi)
 2ce:	65 00 2e             	add    %ch,%gs:(%esi)
 2d1:	2e 2f                	cs das 
 2d3:	6b 65 72 6e          	imul   $0x6e,0x72(%ebp),%esp
 2d7:	65 6c                	gs insb (%dx),%es:(%edi)
 2d9:	2f                   	das    
 2da:	69 6e 63 6c 75 64 65 	imul   $0x6564756c,0x63(%esi),%ebp
 2e1:	00 00                	add    %al,(%eax)
 2e3:	75 61                	jne    346 <mbh-0x2ffcba>
 2e5:	72 74                	jb     35b <mbh-0x2ffca5>
 2e7:	2e 63 00             	arpl   %ax,%cs:(%eax)
 2ea:	01 00                	add    %eax,(%eax)
 2ec:	00 74 79 70          	add    %dh,0x70(%ecx,%edi,2)
 2f0:	65 73 2e             	gs jae 321 <mbh-0x2ffcdf>
 2f3:	68 00 02 00 00       	push   $0x200
 2f8:	75 61                	jne    35b <mbh-0x2ffca5>
 2fa:	72 74                	jb     370 <mbh-0x2ffc90>
 2fc:	2e 68 00 02 00 00    	cs push $0x200
 302:	00 00                	add    %al,(%eax)
 304:	05 02 10 39 30       	add    $0x30391002,%eax
 309:	00 16                	add    %dl,(%esi)
 30b:	c9                   	leave  
 30c:	2f                   	das    
 30d:	9d                   	popf   
 30e:	08 a0 3f cc c9 4b    	or     %ah,0x4bc9cc3f(%eax)
 314:	9f                   	lahf   
 315:	bc 9f 9f bc ca       	mov    $0xcabc9f9f,%esp
 31a:	4b                   	dec    %ebx
 31b:	9f                   	lahf   
 31c:	9f                   	lahf   
 31d:	bb 3f ce c9 9f       	mov    $0x9fc9ce3f,%ebx
 322:	cb                   	lret   
 323:	4b                   	dec    %ebx
 324:	9f                   	lahf   
 325:	03 0b                	add    (%ebx),%ecx
 327:	ba 4c bd c9 3f       	mov    $0x3fc9bd4c,%edx
 32c:	3d c9 c9 3f c9       	cmp    $0xc93fc9c9,%eax
 331:	30 08                	xor    %cl,(%eax)
 333:	bb e1 00 02 04       	mov    $0x40200e1,%ebx
 338:	01 06                	add    %eax,(%esi)
 33a:	08 9e 06 b1 3f c9    	or     %bl,-0x36c04efa(%esi)
 340:	30 08                	xor    %cl,(%eax)
 342:	a0 08 4b df b4       	mov    0xb4df4b08,%al
 347:	3f                   	aas    
 348:	69 67 76 08 3d 3d 31 	imul   $0x313d3d08,0x76(%edi),%esp
 34f:	69 67 76 08 3d 3d 31 	imul   $0x313d3d08,0x76(%edi),%esp
 356:	67 76 2f             	addr16 jbe 388 <mbh-0x2ffc78>
 359:	08 84 ad 46 6c 02 03 	or     %al,0x3026c46(%ebp,%ebp,4)
 360:	00 01                	add    %al,(%ecx)
 362:	01 79 00             	add    %edi,0x0(%ecx)
 365:	00 00                	add    %al,(%eax)
 367:	02 00                	add    (%eax),%al
 369:	51                   	push   %ecx
 36a:	00 00                	add    %al,(%eax)
 36c:	00 01                	add    %al,(%ecx)
 36e:	01 fb                	add    %edi,%ebx
 370:	0e                   	push   %cs
 371:	0d 00 01 01 01       	or     $0x1010100,%eax
 376:	01 00                	add    %eax,(%eax)
 378:	00 00                	add    %al,(%eax)
 37a:	01 00                	add    %eax,(%eax)
 37c:	00 01                	add    %al,(%ecx)
 37e:	2e 2e 2f             	cs cs das 
 381:	6b 65 72 6e          	imul   $0x6e,0x72(%ebp),%esp
 385:	65 6c                	gs insb (%dx),%es:(%edi)
 387:	2f                   	das    
 388:	63 6f 72             	arpl   %bp,0x72(%edi)
 38b:	65 00 2e             	add    %ch,%gs:(%esi)
 38e:	2e 2f                	cs das 
 390:	6b 65 72 6e          	imul   $0x6e,0x72(%ebp),%esp
 394:	65 6c                	gs insb (%dx),%es:(%edi)
 396:	2f                   	das    
 397:	69 6e 63 6c 75 64 65 	imul   $0x6564756c,0x63(%esi),%ebp
 39e:	00 00                	add    %al,(%eax)
 3a0:	70 69                	jo     40b <mbh-0x2ffbf5>
 3a2:	63 2e                	arpl   %bp,(%esi)
 3a4:	63 00                	arpl   %ax,(%eax)
 3a6:	01 00                	add    %eax,(%eax)
 3a8:	00 70 69             	add    %dh,0x69(%eax)
 3ab:	63 2e                	arpl   %bp,(%esi)
 3ad:	68 00 02 00 00       	push   $0x200
 3b2:	74 79                	je     42d <mbh-0x2ffbd3>
 3b4:	70 65                	jo     41b <mbh-0x2ffbe5>
 3b6:	73 2e                	jae    3e6 <mbh-0x2ffc1a>
 3b8:	68 00 02 00 00       	push   $0x200
 3bd:	00 00                	add    %al,(%eax)
 3bf:	05 02 b2 3b 30       	add    $0x303bb202,%eax
 3c4:	00 16                	add    %dl,(%esi)
 3c6:	03 0b                	add    (%ebx),%ecx
 3c8:	66 4b                	dec    %bx
 3ca:	9f                   	lahf   
 3cb:	a5                   	movsl  %ds:(%esi),%es:(%edi)
 3cc:	4b                   	dec    %ebx
 3cd:	a0 4b a5 4b 9f       	mov    0x9f4ba54b,%al
 3d2:	a0 4b c9 03 09       	mov    0x903c94b,%al
 3d7:	9e                   	sahf   
 3d8:	4b                   	dec    %ebx
 3d9:	9f                   	lahf   
 3da:	9f                   	lahf   
 3db:	02 03                	add    (%ebx),%al
 3dd:	00 01                	add    %al,(%ecx)
 3df:	01 31                	add    %esi,(%ecx)
 3e1:	01 00                	add    %eax,(%eax)
 3e3:	00 02                	add    %al,(%edx)
 3e5:	00 b9 00 00 00 01    	add    %bh,0x1000000(%ecx)
 3eb:	01 fb                	add    %edi,%ebx
 3ed:	0e                   	push   %cs
 3ee:	0d 00 01 01 01       	or     $0x1010100,%eax
 3f3:	01 00                	add    %eax,(%eax)
 3f5:	00 00                	add    %al,(%eax)
 3f7:	01 00                	add    %eax,(%eax)
 3f9:	00 01                	add    %al,(%ecx)
 3fb:	2e 2e 2f             	cs cs das 
 3fe:	6b 65 72 6e          	imul   $0x6e,0x72(%ebp),%esp
 402:	65 6c                	gs insb (%dx),%es:(%edi)
 404:	2f                   	das    
 405:	63 6f 72             	arpl   %bp,0x72(%edi)
 408:	65 00 2e             	add    %ch,%gs:(%esi)
 40b:	2e 2f                	cs das 
 40d:	6b 65 72 6e          	imul   $0x6e,0x72(%ebp),%esp
 411:	65 6c                	gs insb (%dx),%es:(%edi)
 413:	2f                   	das    
 414:	69 6e 63 6c 75 64 65 	imul   $0x6564756c,0x63(%esi),%ebp
 41b:	00 2e                	add    %ch,(%esi)
 41d:	2e 2f                	cs das 
 41f:	6c                   	insb   (%dx),%es:(%edi)
 420:	69 62 2f 69 6e 63 6c 	imul   $0x6c636e69,0x2f(%edx),%esp
 427:	75 64                	jne    48d <mbh-0x2ffb73>
 429:	65 00 00             	add    %al,%gs:(%eax)
 42c:	69 6e 74 72 2e 63 00 	imul   $0x632e72,0x74(%esi),%ebp
 433:	01 00                	add    %eax,(%eax)
 435:	00 74 79 70          	add    %dh,0x70(%ecx,%edi,2)
 439:	65 73 2e             	gs jae 46a <mbh-0x2ffb96>
 43c:	68 00 02 00 00       	push   $0x200
 441:	67 70 72             	addr16 jo 4b6 <mbh-0x2ffb4a>
 444:	2e 68 00 02 00 00    	cs push $0x200
 44a:	73 65                	jae    4b1 <mbh-0x2ffb4f>
 44c:	67 6d                	insl   (%dx),%es:(%di)
 44e:	65 6d                	gs insl (%dx),%es:(%edi)
 450:	2e 68 00 02 00 00    	cs push $0x200
 456:	65 78 63             	gs js  4bc <mbh-0x2ffb44>
 459:	70 2e                	jo     489 <mbh-0x2ffb77>
 45b:	68 00 02 00 00       	push   $0x200
 460:	69 6e 74 72 2e 68 00 	imul   $0x682e72,0x74(%esi),%ebp
 467:	02 00                	add    (%eax),%al
 469:	00 67 72             	add    %ah,0x72(%edi)
 46c:	75 62                	jne    4d0 <mbh-0x2ffb30>
 46e:	5f                   	pop    %edi
 46f:	6d                   	insl   (%dx),%es:(%edi)
 470:	62 69 2e             	bound  %ebp,0x2e(%ecx)
 473:	68 00 02 00 00       	push   $0x200
 478:	6d                   	insl   (%dx),%es:(%edi)
 479:	62 69 2e             	bound  %ebp,0x2e(%ecx)
 47c:	68 00 02 00 00       	push   $0x200
 481:	69 6e 66 6f 2e 68 00 	imul   $0x682e6f,0x66(%esi),%ebp
 488:	02 00                	add    (%eax),%al
 48a:	00 70 61             	add    %dh,0x61(%eax)
 48d:	67 65 6d             	gs insl (%dx),%es:(%di)
 490:	65 6d                	gs insl (%dx),%es:(%edi)
 492:	2e 68 00 02 00 00    	cs push $0x200
 498:	74 61                	je     4fb <mbh-0x2ffb05>
 49a:	73 6b                	jae    507 <mbh-0x2ffaf9>
 49c:	2e 68 00 03 00 00    	cs push $0x300
 4a2:	00 00                	add    %al,(%eax)
 4a4:	05 02 3a 3c 30       	add    $0x303c3a02,%eax
 4a9:	00 03                	add    %al,(%ebx)
 4ab:	0f 01                	(bad)  
 4ad:	6b 77 00 02          	imul   $0x2,0x0(%edi),%esi
 4b1:	04 03                	add    $0x3,%al
 4b3:	bb 00 02 04 03       	mov    $0x3040200,%ebx
 4b8:	02 85 01 11 00 02    	add    0x2001101(%ebp),%al
 4be:	04 01                	add    $0x1,%al
 4c0:	06                   	push   %es
 4c1:	82 06 cb             	addb   $0xcb,(%esi)
 4c4:	75 67                	jne    52d <mbh-0x2ffad3>
 4c6:	4b                   	dec    %ebx
 4c7:	3f                   	aas    
 4c8:	91                   	xchg   %eax,%ecx
 4c9:	f3 93                	repz xchg %eax,%ebx
 4cb:	cc                   	int3   
 4cc:	00 02                	add    %al,(%edx)
 4ce:	04 01                	add    $0x1,%al
 4d0:	06                   	push   %es
 4d1:	90                   	nop
 4d2:	06                   	push   %es
 4d3:	91                   	xchg   %eax,%ecx
 4d4:	08 22                	or     %ah,(%edx)
 4d6:	00 02                	add    %al,(%edx)
 4d8:	04 01                	add    $0x1,%al
 4da:	06                   	push   %es
 4db:	90                   	nop
 4dc:	06                   	push   %es
 4dd:	91                   	xchg   %eax,%ecx
 4de:	08 22                	or     %ah,(%edx)
 4e0:	00 02                	add    %al,(%edx)
 4e2:	04 01                	add    $0x1,%al
 4e4:	06                   	push   %es
 4e5:	90                   	nop
 4e6:	06                   	push   %es
 4e7:	91                   	xchg   %eax,%ecx
 4e8:	f4                   	hlt    
 4e9:	b0 9f                	mov    $0x9f,%al
 4eb:	cb                   	lret   
 4ec:	83 3e 67             	cmpl   $0x67,(%esi)
 4ef:	08 67 3e             	or     %ah,0x3e(%edi)
 4f2:	91                   	xchg   %eax,%ecx
 4f3:	03 1b                	add    (%ebx),%ebx
 4f5:	02 a2 01 01 93 92    	add    -0x6d6cfeff(%edx),%ah
 4fb:	a0 69 03 10 82       	mov    0x82100369,%al
 500:	03 72 2e             	add    0x2e(%edx),%esi
 503:	69 03 0b d6 03 77    	imul   $0x7703d60b,(%ebx),%eax
 509:	2e 68 d7 88 2c 08    	cs push $0x82c88d7
 50f:	4c                   	dec    %esp
 510:	02 03                	add    (%ebx),%al
 512:	00 01                	add    %al,(%ecx)
 514:	01 a0 00 00 00 02    	add    %esp,0x2000000(%eax)
 51a:	00 2b                	add    %ch,(%ebx)
 51c:	00 00                	add    %al,(%eax)
 51e:	00 01                	add    %al,(%ecx)
 520:	01 fb                	add    %edi,%ebx
 522:	0e                   	push   %cs
 523:	0d 00 01 01 01       	or     $0x1010100,%eax
 528:	01 00                	add    %eax,(%eax)
 52a:	00 00                	add    %al,(%eax)
 52c:	01 00                	add    %eax,(%eax)
 52e:	00 01                	add    %al,(%ecx)
 530:	2e 2e 2f             	cs cs das 
 533:	6b 65 72 6e          	imul   $0x6e,0x72(%ebp),%esp
 537:	65 6c                	gs insb (%dx),%es:(%edi)
 539:	2f                   	das    
 53a:	63 6f 72             	arpl   %bp,0x72(%edi)
 53d:	65 00 00             	add    %al,%gs:(%eax)
 540:	69 64 74 2e 73 00 01 	imul   $0x10073,0x2e(%esp,%esi,2),%esp
 547:	00 
 548:	00 00                	add    %al,(%eax)
 54a:	00 05 02 0a 3f 30    	add    %al,0x303f0a02
 550:	00 03                	add    %al,(%ebx)
 552:	10 01                	adc    %al,(%ecx)
 554:	21 2f                	and    %ebp,(%edi)
 556:	2f                   	das    
 557:	30 21                	xor    %ah,(%ecx)
 559:	30 2f                	xor    %ch,(%edi)
 55b:	03 11                	add    (%ecx),%edx
 55d:	20 21                	and    %ah,(%ecx)
 55f:	2f                   	das    
 560:	5b                   	pop    %ebx
 561:	21 3d 02 01 00 01    	and    %edi,0x1000102
 567:	01 00                	add    %eax,(%eax)
 569:	05 02 10 20 30       	add    $0x30201002,%eax
 56e:	00 03                	add    %al,(%ebx)
 570:	3b 01                	cmp    (%ecx),%eax
 572:	2f                   	das    
 573:	2f                   	das    
 574:	be 2f 2f be 2f       	mov    $0x2fbe2f2f,%esi
 579:	2f                   	das    
 57a:	be 2f 2f be 2f       	mov    $0x2fbe2f2f,%esi
 57f:	2f                   	das    
 580:	be 2f 2f be 2f       	mov    $0x2fbe2f2f,%esi
 585:	2f                   	das    
 586:	be 2f 2f be 2f       	mov    $0x2fbe2f2f,%esi
 58b:	da 2f                	fisubrl (%edi)
 58d:	2f                   	das    
 58e:	be 2f da 2f da       	mov    $0xda2fda2f,%esi
 593:	2f                   	das    
 594:	da 2f                	fisubrl (%edi)
 596:	da 2f                	fisubrl (%edi)
 598:	da 2f                	fisubrl (%edi)
 59a:	2f                   	das    
 59b:	be 2f 2f be 2f       	mov    $0x2fbe2f2f,%esi
 5a0:	da 2f                	fisubrl (%edi)
 5a2:	2f                   	das    
 5a3:	be 2f 2f c0 02       	mov    $0x2c02f2f,%esi
 5a8:	c0 01 1a             	rolb   $0x1a,(%ecx)
 5ab:	02 80 01 1a 02 80    	add    -0x7ffde5ff(%eax),%al
 5b1:	01 1a                	add    %ebx,(%edx)
 5b3:	02 fc                	add    %ah,%bh
 5b5:	19 00                	sbb    %eax,(%eax)
 5b7:	01 01                	add    %eax,(%ecx)
 5b9:	b3 00                	mov    $0x0,%bl
 5bb:	00 00                	add    %al,(%eax)
 5bd:	02 00                	add    (%eax),%al
 5bf:	87 00                	xchg   %eax,(%eax)
 5c1:	00 00                	add    %al,(%eax)
 5c3:	01 01                	add    %eax,(%ecx)
 5c5:	fb                   	sti    
 5c6:	0e                   	push   %cs
 5c7:	0d 00 01 01 01       	or     $0x1010100,%eax
 5cc:	01 00                	add    %eax,(%eax)
 5ce:	00 00                	add    %al,(%eax)
 5d0:	01 00                	add    %eax,(%eax)
 5d2:	00 01                	add    %al,(%ecx)
 5d4:	2e 2e 2f             	cs cs das 
 5d7:	6b 65 72 6e          	imul   $0x6e,0x72(%ebp),%esp
 5db:	65 6c                	gs insb (%dx),%es:(%edi)
 5dd:	2f                   	das    
 5de:	63 6f 72             	arpl   %bp,0x72(%edi)
 5e1:	65 00 2e             	add    %ch,%gs:(%esi)
 5e4:	2e 2f                	cs das 
 5e6:	6b 65 72 6e          	imul   $0x6e,0x72(%ebp),%esp
 5ea:	65 6c                	gs insb (%dx),%es:(%edi)
 5ec:	2f                   	das    
 5ed:	69 6e 63 6c 75 64 65 	imul   $0x6564756c,0x63(%esi),%ebp
 5f4:	00 00                	add    %al,(%eax)
 5f6:	65 78 63             	gs js  65c <mbh-0x2ff9a4>
 5f9:	70 2e                	jo     629 <mbh-0x2ff9d7>
 5fb:	63 00                	arpl   %ax,(%eax)
 5fd:	01 00                	add    %eax,(%eax)
 5ff:	00 74 79 70          	add    %dh,0x70(%ecx,%edi,2)
 603:	65 73 2e             	gs jae 634 <mbh-0x2ff9cc>
 606:	68 00 02 00 00       	push   $0x200
 60b:	67 70 72             	addr16 jo 680 <mbh-0x2ff980>
 60e:	2e 68 00 02 00 00    	cs push $0x200
 614:	65 78 63             	gs js  67a <mbh-0x2ff986>
 617:	70 2e                	jo     647 <mbh-0x2ff9b9>
 619:	68 00 02 00 00       	push   $0x200
 61e:	69 6e 74 72 2e 68 00 	imul   $0x682e72,0x74(%esi),%ebp
 625:	02 00                	add    (%eax),%al
 627:	00 67 72             	add    %ah,0x72(%edi)
 62a:	75 62                	jne    68e <mbh-0x2ff972>
 62c:	5f                   	pop    %edi
 62d:	6d                   	insl   (%dx),%es:(%edi)
 62e:	62 69 2e             	bound  %ebp,0x2e(%ecx)
 631:	68 00 02 00 00       	push   $0x200
 636:	6d                   	insl   (%dx),%es:(%edi)
 637:	62 69 2e             	bound  %ebp,0x2e(%ecx)
 63a:	68 00 02 00 00       	push   $0x200
 63f:	69 6e 66 6f 2e 68 00 	imul   $0x682e6f,0x66(%esi),%ebp
 646:	02 00                	add    (%eax),%al
 648:	00 00                	add    %al,(%eax)
 64a:	00 05 02 24 3f 30    	add    %al,0x303f2402
 650:	00 03                	add    %al,(%ebx)
 652:	20 01                	and    %al,(%ecx)
 654:	ad                   	lods   %ds:(%esi),%eax
 655:	02 22                	add    (%edx),%ah
 657:	14 08                	adc    $0x8,%al
 659:	bd f3 5c 02 5a       	mov    $0x5a025cf3,%ebp
 65e:	18 31                	sbb    %dh,(%ecx)
 660:	02 59 17             	add    0x17(%ecx),%bl
 663:	23 08                	and    (%eax),%ecx
 665:	91                   	xchg   %eax,%ecx
 666:	08 91 08 21 f3 02    	or     %dl,0x2f32108(%ecx)
 66c:	07                   	pop    %es
 66d:	00 01                	add    %al,(%ecx)
 66f:	01 8e 00 00 00 02    	add    %ecx,0x2000000(%esi)
 675:	00 6b 00             	add    %ch,0x0(%ebx)
 678:	00 00                	add    %al,(%eax)
 67a:	01 01                	add    %eax,(%ecx)
 67c:	fb                   	sti    
 67d:	0e                   	push   %cs
 67e:	0d 00 01 01 01       	or     $0x1010100,%eax
 683:	01 00                	add    %eax,(%eax)
 685:	00 00                	add    %al,(%eax)
 687:	01 00                	add    %eax,(%eax)
 689:	00 01                	add    %al,(%ecx)
 68b:	2e 2e 2f             	cs cs das 
 68e:	6b 65 72 6e          	imul   $0x6e,0x72(%ebp),%esp
 692:	65 6c                	gs insb (%dx),%es:(%edi)
 694:	2f                   	das    
 695:	63 6f 72             	arpl   %bp,0x72(%edi)
 698:	65 00 2e             	add    %ch,%gs:(%esi)
 69b:	2e 2f                	cs das 
 69d:	6b 65 72 6e          	imul   $0x6e,0x72(%ebp),%esp
 6a1:	65 6c                	gs insb (%dx),%es:(%edi)
 6a3:	2f                   	das    
 6a4:	69 6e 63 6c 75 64 65 	imul   $0x6564756c,0x63(%esi),%ebp
 6ab:	00 00                	add    %al,(%eax)
 6ad:	73 74                	jae    723 <mbh-0x2ff8dd>
 6af:	61                   	popa   
 6b0:	63 6b 2e             	arpl   %bp,0x2e(%ebx)
 6b3:	63 00                	arpl   %ax,(%eax)
 6b5:	01 00                	add    %eax,(%eax)
 6b7:	00 74 79 70          	add    %dh,0x70(%ecx,%edi,2)
 6bb:	65 73 2e             	gs jae 6ec <mbh-0x2ff914>
 6be:	68 00 02 00 00       	push   $0x200
 6c3:	67 72 75             	addr16 jb 73b <mbh-0x2ff8c5>
 6c6:	62 5f 6d             	bound  %ebx,0x6d(%edi)
 6c9:	62 69 2e             	bound  %ebp,0x2e(%ecx)
 6cc:	68 00 02 00 00       	push   $0x200
 6d1:	6d                   	insl   (%dx),%es:(%edi)
 6d2:	62 69 2e             	bound  %ebp,0x2e(%ecx)
 6d5:	68 00 02 00 00       	push   $0x200
 6da:	69 6e 66 6f 2e 68 00 	imul   $0x682e6f,0x66(%esi),%ebp
 6e1:	02 00                	add    (%eax),%al
 6e3:	00 00                	add    %al,(%eax)
 6e5:	00 05 02 96 40 30    	add    %al,0x30409602
 6eb:	00 1a                	add    %bl,(%edx)
 6ed:	69 f4 67 30 ad 83    	imul   $0x83ad3067,%esp,%esi
 6f3:	08 38                	or     %bh,(%eax)
 6f5:	00 02                	add    %al,(%edx)
 6f7:	04 01                	add    $0x1,%al
 6f9:	06                   	push   %es
 6fa:	66 06                	pushw  %es
 6fc:	96                   	xchg   %eax,%esi
 6fd:	02 03                	add    (%ebx),%al
 6ff:	00 01                	add    %al,(%ecx)
 701:	01 4c 00 00          	add    %ecx,0x0(%eax,%eax,1)
 705:	00 02                	add    %al,(%edx)
 707:	00 34 00             	add    %dh,(%eax,%eax,1)
 70a:	00 00                	add    %al,(%eax)
 70c:	01 01                	add    %eax,(%ecx)
 70e:	fb                   	sti    
 70f:	0e                   	push   %cs
 710:	0d 00 01 01 01       	or     $0x1010100,%eax
 715:	01 00                	add    %eax,(%eax)
 717:	00 00                	add    %al,(%eax)
 719:	01 00                	add    %eax,(%eax)
 71b:	00 01                	add    %al,(%ecx)
 71d:	2e 2e 2f             	cs cs das 
 720:	6b 65 72 6e          	imul   $0x6e,0x72(%ebp),%esp
 724:	65 6c                	gs insb (%dx),%es:(%edi)
 726:	2f                   	das    
 727:	63 6f 72             	arpl   %bp,0x72(%edi)
 72a:	65 00 00             	add    %al,%gs:(%eax)
 72d:	73 77                	jae    7a6 <mbh-0x2ff85a>
 72f:	69 74 63 68 5f 73 74 	imul   $0x6174735f,0x68(%ebx,%eiz,2),%esi
 736:	61 
 737:	63 6b 2e             	arpl   %bp,0x2e(%ebx)
 73a:	73 00                	jae    73c <mbh-0x2ff8c4>
 73c:	01 00                	add    %eax,(%eax)
 73e:	00 00                	add    %al,(%eax)
 740:	00 05 02 ed 40 30    	add    %al,0x3040ed02
 746:	00 03                	add    %al,(%ebx)
 748:	0d 01 32 21 3d       	or     $0x3d213201,%eax
 74d:	02 01                	add    (%ecx),%al
 74f:	00 01                	add    %al,(%ecx)
 751:	01 14 01             	add    %edx,(%ecx,%eax,1)
 754:	00 00                	add    %al,(%eax)
 756:	02 00                	add    (%eax),%al
 758:	72 00                	jb     75a <mbh-0x2ff8a6>
 75a:	00 00                	add    %al,(%eax)
 75c:	01 01                	add    %eax,(%ecx)
 75e:	fb                   	sti    
 75f:	0e                   	push   %cs
 760:	0d 00 01 01 01       	or     $0x1010100,%eax
 765:	01 00                	add    %eax,(%eax)
 767:	00 00                	add    %al,(%eax)
 769:	01 00                	add    %eax,(%eax)
 76b:	00 01                	add    %al,(%ecx)
 76d:	2e 2e 2f             	cs cs das 
 770:	6c                   	insb   (%dx),%es:(%edi)
 771:	69 62 2f 63 6f 72 65 	imul   $0x65726f63,0x2f(%edx),%esp
 778:	00 2e                	add    %ch,(%esi)
 77a:	2e 2f                	cs das 
 77c:	6b 65 72 6e          	imul   $0x6e,0x72(%ebp),%esp
 780:	65 6c                	gs insb (%dx),%es:(%edi)
 782:	2f                   	das    
 783:	69 6e 63 6c 75 64 65 	imul   $0x6564756c,0x63(%esi),%ebp
 78a:	00 2e                	add    %ch,(%esi)
 78c:	2e 2f                	cs das 
 78e:	6c                   	insb   (%dx),%es:(%edi)
 78f:	69 62 2f 69 6e 63 6c 	imul   $0x6c636e69,0x2f(%edx),%esp
 796:	75 64                	jne    7fc <mbh-0x2ff804>
 798:	65 00 00             	add    %al,%gs:(%eax)
 79b:	67 64 74 2e          	addr16 fs je 7cd <mbh-0x2ff833>
 79f:	63 00                	arpl   %ax,(%eax)
 7a1:	01 00                	add    %eax,(%eax)
 7a3:	00 74 79 70          	add    %dh,0x70(%ecx,%edi,2)
 7a7:	65 73 2e             	gs jae 7d8 <mbh-0x2ff828>
 7aa:	68 00 02 00 00       	push   $0x200
 7af:	67 70 72             	addr16 jo 824 <mbh-0x2ff7dc>
 7b2:	2e 68 00 02 00 00    	cs push $0x200
 7b8:	73 65                	jae    81f <mbh-0x2ff7e1>
 7ba:	67 6d                	insl   (%dx),%es:(%di)
 7bc:	65 6d                	gs insl (%dx),%es:(%edi)
 7be:	2e 68 00 02 00 00    	cs push $0x200
 7c4:	67 64 74 2e          	addr16 fs je 7f6 <mbh-0x2ff80a>
 7c8:	68 00 03 00 00       	push   $0x300
 7cd:	00 00                	add    %al,(%eax)
 7cf:	05 02 f4 40 30       	add    $0x3040f402,%eax
 7d4:	00 03                	add    %al,(%ebx)
 7d6:	09 01                	or     %eax,(%ecx)
 7d8:	68 4b f3 08 75       	push   $0x7508f34b
 7dd:	08 d7                	or     %dl,%bh
 7df:	08 d7                	or     %dl,%bh
 7e1:	08 d7                	or     %dl,%bh
 7e3:	08 d7                	or     %dl,%bh
 7e5:	08 d7                	or     %dl,%bh
 7e7:	f4                   	hlt    
 7e8:	00 02                	add    %al,(%edx)
 7ea:	04 03                	add    $0x3,%al
 7ec:	bc 00 02 04 03       	mov    $0x3040200,%esp
 7f1:	d7                   	xlat   %ds:(%ebx)
 7f2:	00 02                	add    %al,(%edx)
 7f4:	04 03                	add    $0x3,%al
 7f6:	02 2f                	add    (%edi),%ch
 7f8:	13 00                	adc    (%eax),%eax
 7fa:	02 04 03             	add    (%ebx,%eax,1),%al
 7fd:	9f                   	lahf   
 7fe:	00 02                	add    %al,(%edx)
 800:	04 03                	add    $0x3,%al
 802:	08 2f                	or     %ch,(%edi)
 804:	00 02                	add    %al,(%edx)
 806:	04 03                	add    $0x3,%al
 808:	08 4b 00             	or     %cl,0x0(%ebx)
 80b:	02 04 03             	add    (%ebx,%eax,1),%al
 80e:	08 59 00             	or     %bl,0x0(%ecx)
 811:	02 04 03             	add    (%ebx,%eax,1),%al
 814:	08 f3                	or     %dh,%bl
 816:	00 02                	add    %al,(%edx)
 818:	04 03                	add    $0x3,%al
 81a:	03 77 08             	add    0x8(%edi),%esi
 81d:	c8 00 02 04          	enter  $0x200,$0x4
 821:	01 06                	add    %eax,(%esi)
 823:	4a                   	dec    %edx
 824:	06                   	push   %es
 825:	03 0b                	add    (%ebx),%ecx
 827:	ba 3f 08 2f 08       	mov    $0x82f083f,%edx
 82c:	bb 08 e5 02 2d       	mov    $0x2d02e508,%ebx
 831:	13 d7                	adc    %edi,%edx
 833:	d7                   	xlat   %ds:(%ebx)
 834:	02 2b                	add    (%ebx),%ch
 836:	13 08                	adc    (%eax),%ecx
 838:	bb c9 c9 c9 c9       	mov    $0xc9c9c9c9,%ebx
 83d:	c9                   	leave  
 83e:	c9                   	leave  
 83f:	77 67                	ja     8a8 <mbh-0x2ff758>
 841:	f3 75 76             	repz jne 8ba <mbh-0x2ff746>
 844:	91                   	xchg   %eax,%ecx
 845:	ad                   	lods   %ds:(%esi),%eax
 846:	08 91 e5 83 3f 67    	or     %dl,0x673f83e5(%ecx)
 84c:	f3 08 3e             	repz or %bh,(%esi)
 84f:	67 75 4d             	addr16 jne 89f <mbh-0x2ff761>
 852:	08 75 08             	or     %dh,0x8(%ebp)
 855:	75 75                	jne    8cc <mbh-0x2ff734>
 857:	75 75                	jne    8ce <mbh-0x2ff732>
 859:	75 75                	jne    8d0 <mbh-0x2ff730>
 85b:	77 08                	ja     865 <mbh-0x2ff79b>
 85d:	75 08                	jne    867 <mbh-0x2ff799>
 85f:	75 75                	jne    8d6 <mbh-0x2ff72a>
 861:	75 75                	jne    8d8 <mbh-0x2ff728>
 863:	75 59                	jne    8be <mbh-0x2ff742>
 865:	02 03                	add    (%ebx),%al
 867:	00 01                	add    %al,(%ecx)
 869:	01 fd                	add    %edi,%ebp
 86b:	00 00                	add    %al,(%eax)
 86d:	00 02                	add    %al,(%edx)
 86f:	00 aa 00 00 00 01    	add    %ch,0x1000000(%edx)
 875:	01 fb                	add    %edi,%ebx
 877:	0e                   	push   %cs
 878:	0d 00 01 01 01       	or     $0x1010100,%eax
 87d:	01 00                	add    %eax,(%eax)
 87f:	00 00                	add    %al,(%eax)
 881:	01 00                	add    %eax,(%eax)
 883:	00 01                	add    %al,(%ecx)
 885:	2e 2e 2f             	cs cs das 
 888:	6b 65 72 6e          	imul   $0x6e,0x72(%ebp),%esp
 88c:	65 6c                	gs insb (%dx),%es:(%edi)
 88e:	2f                   	das    
 88f:	69 6e 63 6c 75 64 65 	imul   $0x6564756c,0x63(%esi),%ebp
 896:	00 2e                	add    %ch,(%esi)
 898:	2e 2f                	cs das 
 89a:	6c                   	insb   (%dx),%es:(%edi)
 89b:	69 62 2f 63 6f 72 65 	imul   $0x65726f63,0x2f(%edx),%esp
 8a2:	00 2e                	add    %ch,(%esi)
 8a4:	2e 2f                	cs das 
 8a6:	6c                   	insb   (%dx),%es:(%edi)
 8a7:	69 62 2f 69 6e 63 6c 	imul   $0x6c636e69,0x2f(%edx),%esp
 8ae:	75 64                	jne    914 <mbh-0x2ff6ec>
 8b0:	65 00 00             	add    %al,%gs:(%eax)
 8b3:	73 74                	jae    929 <mbh-0x2ff6d7>
 8b5:	72 69                	jb     920 <mbh-0x2ff6e0>
 8b7:	6e                   	outsb  %ds:(%esi),(%dx)
 8b8:	67 2e 68 00 01 00 00 	addr16 cs push $0x100
 8bf:	74 61                	je     922 <mbh-0x2ff6de>
 8c1:	73 6b                	jae    92e <mbh-0x2ff6d2>
 8c3:	2e 63 00             	arpl   %ax,%cs:(%eax)
 8c6:	02 00                	add    (%eax),%al
 8c8:	00 74 79 70          	add    %dh,0x70(%ecx,%edi,2)
 8cc:	65 73 2e             	gs jae 8fd <mbh-0x2ff703>
 8cf:	68 00 01 00 00       	push   $0x100
 8d4:	70 61                	jo     937 <mbh-0x2ff6c9>
 8d6:	67 65 6d             	gs insl (%dx),%es:(%di)
 8d9:	65 6d                	gs insl (%dx),%es:(%edi)
 8db:	2e 68 00 01 00 00    	cs push $0x100
 8e1:	67 70 72             	addr16 jo 956 <mbh-0x2ff6aa>
 8e4:	2e 68 00 01 00 00    	cs push $0x100
 8ea:	73 65                	jae    951 <mbh-0x2ff6af>
 8ec:	67 6d                	insl   (%dx),%es:(%di)
 8ee:	65 6d                	gs insl (%dx),%es:(%edi)
 8f0:	2e 68 00 01 00 00    	cs push $0x100
 8f6:	65 78 63             	gs js  95c <mbh-0x2ff6a4>
 8f9:	70 2e                	jo     929 <mbh-0x2ff6d7>
 8fb:	68 00 01 00 00       	push   $0x100
 900:	69 6e 74 72 2e 68 00 	imul   $0x682e72,0x74(%esi),%ebp
 907:	01 00                	add    %eax,(%eax)
 909:	00 74 61 73          	add    %dh,0x73(%ecx,%eiz,2)
 90d:	6b 2e 68             	imul   $0x68,(%esi),%ebp
 910:	00 03                	add    %al,(%ebx)
 912:	00 00                	add    %al,(%eax)
 914:	67 64 74 2e          	addr16 fs je 946 <mbh-0x2ff6ba>
 918:	68 00 03 00 00       	push   $0x300
 91d:	00 00                	add    %al,(%eax)
 91f:	05 02 3f 45 30       	add    $0x30453f02,%eax
 924:	00 03                	add    %al,(%ebx)
 926:	c9                   	leave  
 927:	00 01                	add    %al,(%ecx)
 929:	86 67 68             	xchg   %ah,0x68(%edi)
 92c:	67 5a                	addr16 pop %edx
 92e:	08 4c 68 08          	or     %cl,0x8(%eax,%ebp,2)
 932:	75 d7                	jne    90b <mbh-0x2ff6f5>
 934:	d9 67 08             	fldenv 0x8(%edi)
 937:	76 00                	jbe    939 <mbh-0x2ff6c7>
 939:	02 04 01             	add    (%ecx,%eax,1),%al
 93c:	3d 04 02 03 a7       	cmp    $0xa7030204,%eax
 941:	7f 74                	jg     9b7 <mbh-0x2ff649>
 943:	3d 91 83 3f 67       	cmp    $0x673f8391,%eax
 948:	91                   	xchg   %eax,%ecx
 949:	08 23                	or     %ah,(%ebx)
 94b:	91                   	xchg   %eax,%ecx
 94c:	9f                   	lahf   
 94d:	9f                   	lahf   
 94e:	9f                   	lahf   
 94f:	91                   	xchg   %eax,%ecx
 950:	9f                   	lahf   
 951:	91                   	xchg   %eax,%ecx
 952:	9f                   	lahf   
 953:	9f                   	lahf   
 954:	9f                   	lahf   
 955:	9f                   	lahf   
 956:	9f                   	lahf   
 957:	9f                   	lahf   
 958:	91                   	xchg   %eax,%ecx
 959:	9f                   	lahf   
 95a:	92                   	xchg   %eax,%edx
 95b:	08 3d 3e 67 f3 08    	or     %bh,0x8f3673e
 961:	67 08 67 08          	or     %ah,0x8(%bx)
 965:	67 02 03             	add    (%bp,%di),%al
 968:	00 01                	add    %al,(%ecx)
 96a:	01 fe                	add    %edi,%esi
 96c:	00 00                	add    %al,(%eax)
 96e:	00 02                	add    %al,(%edx)
 970:	00 9d 00 00 00 01    	add    %bl,0x1000000(%ebp)
 976:	01 fb                	add    %edi,%ebx
 978:	0e                   	push   %cs
 979:	0d 00 01 01 01       	or     $0x1010100,%eax
 97e:	01 00                	add    %eax,(%eax)
 980:	00 00                	add    %al,(%eax)
 982:	01 00                	add    %eax,(%eax)
 984:	00 01                	add    %al,(%ecx)
 986:	2e 2e 2f             	cs cs das 
 989:	6b 65 72 6e          	imul   $0x6e,0x72(%ebp),%esp
 98d:	65 6c                	gs insb (%dx),%es:(%edi)
 98f:	2f                   	das    
 990:	69 6e 63 6c 75 64 65 	imul   $0x6564756c,0x63(%esi),%ebp
 997:	00 2e                	add    %ch,(%esi)
 999:	2e 2f                	cs das 
 99b:	6c                   	insb   (%dx),%es:(%edi)
 99c:	69 62 2f 69 6e 63 6c 	imul   $0x6c636e69,0x2f(%edx),%esp
 9a3:	75 64                	jne    a09 <mbh-0x2ff5f7>
 9a5:	65 00 00             	add    %al,%gs:(%eax)
 9a8:	74 70                	je     a1a <mbh-0x2ff5e6>
 9aa:	2e 63 00             	arpl   %ax,%cs:(%eax)
 9ad:	00 00                	add    %al,(%eax)
 9af:	00 74 79 70          	add    %dh,0x70(%ecx,%edi,2)
 9b3:	65 73 2e             	gs jae 9e4 <mbh-0x2ff61c>
 9b6:	68 00 01 00 00       	push   $0x100
 9bb:	67 72 75             	addr16 jb a33 <mbh-0x2ff5cd>
 9be:	62 5f 6d             	bound  %ebx,0x6d(%edi)
 9c1:	62 69 2e             	bound  %ebp,0x2e(%ecx)
 9c4:	68 00 01 00 00       	push   $0x100
 9c9:	6d                   	insl   (%dx),%es:(%edi)
 9ca:	62 69 2e             	bound  %ebp,0x2e(%ecx)
 9cd:	68 00 01 00 00       	push   $0x100
 9d2:	69 6e 66 6f 2e 68 00 	imul   $0x682e6f,0x66(%esi),%ebp
 9d9:	01 00                	add    %eax,(%eax)
 9db:	00 67 70             	add    %ah,0x70(%edi)
 9de:	72 2e                	jb     a0e <mbh-0x2ff5f2>
 9e0:	68 00 01 00 00       	push   $0x100
 9e5:	73 65                	jae    a4c <mbh-0x2ff5b4>
 9e7:	67 6d                	insl   (%dx),%es:(%di)
 9e9:	65 6d                	gs insl (%dx),%es:(%edi)
 9eb:	2e 68 00 01 00 00    	cs push $0x100
 9f1:	67 64 74 2e          	addr16 fs je a23 <mbh-0x2ff5dd>
 9f5:	68 00 02 00 00       	push   $0x200
 9fa:	70 61                	jo     a5d <mbh-0x2ff5a3>
 9fc:	67 65 6d             	gs insl (%dx),%es:(%di)
 9ff:	65 6d                	gs insl (%dx),%es:(%edi)
 a01:	2e 68 00 01 00 00    	cs push $0x100
 a07:	74 61                	je     a6a <mbh-0x2ff596>
 a09:	73 6b                	jae    a76 <mbh-0x2ff58a>
 a0b:	2e 68 00 02 00 00    	cs push $0x200
 a11:	00 00                	add    %al,(%eax)
 a13:	05 02 1d 47 30       	add    $0x30471d02,%eax
 a18:	00 03                	add    %al,(%ebx)
 a1a:	15 01 3d 5a 03       	adc    $0x35a3d01,%eax
 a1f:	1a 3c 67             	sbb    (%edi,%eiz,2),%bh
 a22:	f3 75 75             	repz jne a9a <mbh-0x2ff566>
 a25:	76 08                	jbe    a2f <mbh-0x2ff5d1>
 a27:	75 08                	jne    a31 <mbh-0x2ff5cf>
 a29:	75 08                	jne    a33 <mbh-0x2ff5cd>
 a2b:	75 08                	jne    a35 <mbh-0x2ff5cb>
 a2d:	bb 08 bf 9f 3f       	mov    $0x3f9fbf08,%ebx
 a32:	68 59 5a f3 ad       	push   $0xadf35a59
 a37:	af                   	scas   %es:(%edi),%eax
 a38:	f4                   	hlt    
 a39:	4c                   	dec    %esp
 a3a:	5a                   	pop    %edx
 a3b:	00 02                	add    %al,(%edx)
 a3d:	04 01                	add    $0x1,%al
 a3f:	30 02                	xor    %al,(%edx)
 a41:	02 00                	add    (%eax),%al
 a43:	01 01                	add    %eax,(%ecx)
 a45:	00 05 02 00 00 40    	add    %al,0x40000002
 a4b:	00 03                	add    %al,(%ebx)
 a4d:	1b 01                	sbb    (%ecx),%eax
 a4f:	00 02                	add    %al,(%edx)
 a51:	04 01                	add    $0x1,%al
 a53:	41                   	inc    %ecx
 a54:	02 0e                	add    (%esi),%cl
 a56:	00 01                	add    %al,(%ecx)
 a58:	01 00                	add    %eax,(%eax)
 a5a:	05 02 00 00 80       	add    $0x80000002,%eax
 a5f:	00 03                	add    %al,(%ebx)
 a61:	27                   	daa    
 a62:	01 00                	add    %eax,(%eax)
 a64:	02 04 01             	add    (%ecx,%eax,1),%al
 a67:	41                   	inc    %ecx
 a68:	02 10                	add    (%eax),%dl
 a6a:	00 01                	add    %al,(%ecx)
 a6c:	01                   	.byte 0x1

Disassembly of section .debug_info:

00000000 <.debug_info>:
       0:	22 00                	and    (%eax),%al
       2:	00 00                	add    %al,(%eax)
       4:	02 00                	add    (%eax),%al
       6:	00 00                	add    %al,(%eax)
       8:	00 00                	add    %al,(%eax)
       a:	04 01                	add    $0x1,%al
       c:	00 00                	add    %al,(%eax)
       e:	00 00                	add    %al,(%eax)
      10:	10 30                	adc    %dh,(%eax)
      12:	30 00                	xor    %al,(%eax)
      14:	23 30                	and    (%eax),%esi
      16:	30 00                	xor    %al,(%eax)
      18:	00 00                	add    %al,(%eax)
      1a:	00 00                	add    %al,(%eax)
      1c:	17                   	pop    %ss
      1d:	00 00                	add    %al,(%eax)
      1f:	00 3c 00             	add    %bh,(%eax,%eax,1)
      22:	00 00                	add    %al,(%eax)
      24:	01 80 e7 03 00 00    	add    %eax,0x3e7(%eax)
      2a:	04 00                	add    $0x0,%al
      2c:	14 00                	adc    $0x0,%al
      2e:	00 00                	add    %al,(%eax)
      30:	04 01                	add    $0x1,%al
      32:	2d 01 00 00 0c       	sub    $0xc000001,%eax
      37:	1c 03                	sbb    $0x3,%al
      39:	00 00                	add    %al,(%eax)
      3b:	17                   	pop    %ss
      3c:	00 00                	add    %al,(%eax)
      3e:	00 23                	add    %ah,(%ebx)
      40:	30 30                	xor    %dh,(%eax)
      42:	00 4a 00             	add    %cl,0x0(%edx)
      45:	00 00                	add    %al,(%eax)
      47:	4d                   	dec    %ebp
      48:	00 00                	add    %al,(%eax)
      4a:	00 02                	add    %al,(%edx)
      4c:	01 08                	add    %ecx,(%eax)
      4e:	51                   	push   %ecx
      4f:	03 00                	add    (%eax),%eax
      51:	00 02                	add    %al,(%edx)
      53:	02 07                	add    (%edi),%al
      55:	f3 03 00             	repz add (%eax),%eax
      58:	00 03                	add    %al,(%ebx)
      5a:	9a 00 00 00 02 1c 48 	lcall  $0x481c,$0x2000000
      61:	00 00                	add    %al,(%eax)
      63:	00 04 33             	add    %al,(%ebx,%esi,1)
      66:	00 00                	add    %al,(%eax)
      68:	00 05 3e 00 00 00    	add    %al,0x3e
      6e:	02 04 07             	add    (%edi,%eax,1),%al
      71:	95                   	xchg   %eax,%ebp
      72:	03 00                	add    (%eax),%eax
      74:	00 02                	add    %al,(%edx)
      76:	08 07                	or     %al,(%edi)
      78:	8b 03                	mov    (%ebx),%eax
      7a:	00 00                	add    %al,(%eax)
      7c:	02 01                	add    (%ecx),%al
      7e:	06                   	push   %es
      7f:	53                   	push   %ebx
      80:	03 00                	add    (%eax),%eax
      82:	00 02                	add    %al,(%edx)
      84:	02 05 a3 00 00 00    	add    0xa3,%al
      8a:	06                   	push   %es
      8b:	04 05                	add    $0x5,%al
      8d:	69 6e 74 00 02 08 05 	imul   $0x5080200,0x74(%esi),%ebp
      94:	d8 02                	fadds  (%edx)
      96:	00 00                	add    %al,(%eax)
      98:	02 01                	add    (%ecx),%al
      9a:	06                   	push   %es
      9b:	5a                   	pop    %edx
      9c:	03 00                	add    (%eax),%eax
      9e:	00 02                	add    %al,(%edx)
      a0:	04 07                	add    $0x7,%al
      a2:	90                   	nop
      a3:	03 00                	add    (%eax),%eax
      a5:	00 03                	add    %al,(%ebx)
      a7:	58                   	pop    %eax
      a8:	05 00 00 03 60       	add    $0x60030000,%eax
      ad:	25 00 00 00 03       	and    $0x3000000,%eax
      b2:	ad                   	lods   %ds:(%esi),%eax
      b3:	00 00                	add    %al,(%eax)
      b5:	00 03                	add    %al,(%ebx)
      b7:	61                   	popa   
      b8:	2c 00                	sub    $0x0,%al
      ba:	00 00                	add    %al,(%eax)
      bc:	03 90 00 00 00 03    	add    0x3000000(%eax),%edx
      c2:	62 48 00             	bound  %ecx,0x0(%eax)
      c5:	00 00                	add    %al,(%eax)
      c7:	03 06                	add    (%esi),%eax
      c9:	04 00                	add    $0x0,%al
      cb:	00 03                	add    %al,(%ebx)
      cd:	63 4f 00             	arpl   %cx,0x0(%edi)
      d0:	00 00                	add    %al,(%eax)
      d2:	07                   	pop    %es
      d3:	31 05 00 00 10 03    	xor    %eax,0x3100000
      d9:	7f e9                	jg     c4 <mbh-0x2fff3c>
      db:	00 00                	add    %al,(%eax)
      dd:	00 08                	add    %cl,(%eax)
      df:	aa                   	stos   %al,%es:(%edi)
      e0:	04 00                	add    $0x0,%al
      e2:	00 03                	add    %al,(%ebx)
      e4:	81 96 00 00 00 00 08 	adcl   $0x29b08,0x0(%esi)
      eb:	9b 02 00 
      ee:	00 03                	add    %al,(%ebx)
      f0:	82 96 00 00 00 04 08 	adcb   $0x8,0x4000000(%esi)
      f7:	99                   	cltd   
      f8:	05 00 00 03 83       	add    $0x83030000,%eax
      fd:	96                   	xchg   %eax,%esi
      fe:	00 00                	add    %al,(%eax)
     100:	00 08                	add    %cl,(%eax)
     102:	08 7c 05 00          	or     %bh,0x0(%ebp,%eax,1)
     106:	00 03                	add    %al,(%ebx)
     108:	84 96 00 00 00 0c    	test   %dl,0xc000000(%esi)
     10e:	00 03                	add    %al,(%ebx)
     110:	7a 04                	jp     116 <mbh-0x2ffeea>
     112:	00 00                	add    %al,(%eax)
     114:	03 86 ac 00 00 00    	add    0xac(%esi),%eax
     11a:	07                   	pop    %es
     11b:	34 04                	xor    $0x4,%al
     11d:	00 00                	add    %al,(%eax)
     11f:	10 03                	adc    %al,(%ebx)
     121:	89 31                	mov    %esi,(%ecx)
     123:	01 00                	add    %eax,(%eax)
     125:	00 09                	add    %cl,(%ecx)
     127:	6e                   	outsb  %ds:(%esi),(%dx)
     128:	75 6d                	jne    197 <mbh-0x2ffe69>
     12a:	00 03                	add    %al,(%ebx)
     12c:	8b 96 00 00 00 00    	mov    0x0(%esi),%edx
     132:	08 c7                	or     %al,%bh
     134:	04 00                	add    $0x0,%al
     136:	00 03                	add    %al,(%ebx)
     138:	8c 96 00 00 00 04    	mov    %ss,0x4000000(%esi)
     13e:	08 99 05 00 00 03    	or     %bl,0x3000005(%ecx)
     144:	8d 96 00 00 00 08    	lea    0x8000000(%esi),%edx
     14a:	08 c8                	or     %cl,%al
     14c:	02 00                	add    (%eax),%al
     14e:	00 03                	add    %al,(%ebx)
     150:	8e 96 00 00 00 0c    	mov    0xc000000(%esi),%ss
     156:	00 03                	add    %al,(%ebx)
     158:	a3 02 00 00 03       	mov    %eax,0x3000002
     15d:	90                   	nop
     15e:	f4                   	hlt    
     15f:	00 00                	add    %al,(%eax)
     161:	00 0a                	add    %cl,(%edx)
     163:	10 03                	adc    %al,(%ebx)
     165:	a5                   	movsl  %ds:(%esi),%es:(%edi)
     166:	5b                   	pop    %ebx
     167:	01 00                	add    %eax,(%eax)
     169:	00 0b                	add    %cl,(%ebx)
     16b:	1a 01                	sbb    (%ecx),%al
     16d:	00 00                	add    %al,(%eax)
     16f:	03 a7 e9 00 00 00    	add    0xe9(%edi),%esp
     175:	0b 70 03             	or     0x3(%eax),%esi
     178:	00 00                	add    %al,(%eax)
     17a:	03 a8 31 01 00 00    	add    0x131(%eax),%ebp
     180:	00 0c 08             	add    %cl,(%eax,%ecx,1)
     183:	03 cf                	add    %edi,%ecx
     185:	7c 01                	jl     188 <mbh-0x2ffe78>
     187:	00 00                	add    %al,(%eax)
     189:	08 85 05 00 00 03    	or     %al,0x3000005(%ebp)
     18f:	d1 96 00 00 00 00    	rcll   0x0(%esi)
     195:	08 ec                	or     %ch,%ah
     197:	02 00                	add    (%eax),%al
     199:	00 03                	add    %al,(%ebx)
     19b:	d2 8b 00 00 00 04    	rorb   %cl,0x4000000(%ebx)
     1a1:	00 0c 06             	add    %cl,(%esi,%eax,1)
     1a4:	03 d4                	add    %esp,%edx
     1a6:	cd 01                	int    $0x1
     1a8:	00 00                	add    %al,(%eax)
     1aa:	08 c0                	or     %al,%al
     1ac:	00 00                	add    %al,(%eax)
     1ae:	00 03                	add    %al,(%ebx)
     1b0:	d6                   	(bad)  
     1b1:	80 00 00             	addb   $0x0,(%eax)
     1b4:	00 00                	add    %al,(%eax)
     1b6:	08 b2 04 00 00 03    	or     %dh,0x3000004(%edx)
     1bc:	d7                   	xlat   %ds:(%ebx)
     1bd:	80 00 00             	addb   $0x0,(%eax)
     1c0:	00 01                	add    %al,(%ecx)
     1c2:	08 c0                	or     %al,%al
     1c4:	03 00                	add    (%eax),%eax
     1c6:	00 03                	add    %al,(%ebx)
     1c8:	d8 80 00 00 00 02    	fadds  0x2000000(%eax)
     1ce:	08 f1                	or     %dh,%cl
     1d0:	04 00                	add    $0x0,%al
     1d2:	00 03                	add    %al,(%ebx)
     1d4:	d9 80 00 00 00 03    	flds   0x3000000(%eax)
     1da:	08 fa                	or     %bh,%dl
     1dc:	00 00                	add    %al,(%eax)
     1de:	00 03                	add    %al,(%ebx)
     1e0:	da 80 00 00 00 04    	fiaddl 0x4000000(%eax)
     1e6:	08 48 00             	or     %cl,0x0(%eax)
     1e9:	00 00                	add    %al,(%eax)
     1eb:	03 db                	add    %ebx,%ebx
     1ed:	80 00 00             	addb   $0x0,(%eax)
     1f0:	00 05 00 0a 08 03    	add    %al,0x3080a00
     1f6:	cd e0                	int    $0xe0
     1f8:	01 00                	add    %eax,(%eax)
     1fa:	00 0d 5b 01 00 00    	add    %cl,0x15b
     200:	0d 7c 01 00 00       	or     $0x17c,%eax
     205:	00 07                	add    %al,(%edi)
     207:	25 04 00 00 78       	and    $0x78000004,%eax
     20c:	03 92 35 03 00 00    	add    0x335(%edx),%edx
     212:	08 4c 0c 00          	or     %cl,0x0(%esp,%ecx,1)
     216:	00 03                	add    %al,(%ebx)
     218:	95                   	xchg   %eax,%ebp
     219:	96                   	xchg   %eax,%esi
     21a:	00 00                	add    %al,(%eax)
     21c:	00 00                	add    %al,(%eax)
     21e:	08 78 03             	or     %bh,0x3(%eax)
     221:	00 00                	add    %al,(%eax)
     223:	03 98 96 00 00 00    	add    0x96(%eax),%ebx
     229:	04 08                	add    $0x8,%al
     22b:	da 04 00             	fiaddl (%eax,%eax,1)
     22e:	00 03                	add    %al,(%ebx)
     230:	99                   	cltd   
     231:	96                   	xchg   %eax,%esi
     232:	00 00                	add    %al,(%eax)
     234:	00 08                	add    %cl,(%eax)
     236:	08 19                	or     %bl,(%ecx)
     238:	04 00                	add    $0x0,%al
     23a:	00 03                	add    %al,(%ebx)
     23c:	9c                   	pushf  
     23d:	96                   	xchg   %eax,%esi
     23e:	00 00                	add    %al,(%eax)
     240:	00 0c 08             	add    %cl,(%eax,%ecx,1)
     243:	f2 00 00             	repnz add %al,(%eax)
     246:	00 03                	add    %al,(%ebx)
     248:	9f                   	lahf   
     249:	96                   	xchg   %eax,%esi
     24a:	00 00                	add    %al,(%eax)
     24c:	00 10                	add    %dl,(%eax)
     24e:	08 4d 05             	or     %cl,0x5(%ebp)
     251:	00 00                	add    %al,(%eax)
     253:	03 a2 96 00 00 00    	add    0x96(%edx),%esp
     259:	14 08                	adc    $0x8,%al
     25b:	23 01                	and    (%ecx),%eax
     25d:	00 00                	add    %al,(%eax)
     25f:	03 a3 96 00 00 00    	add    0x96(%ebx),%esp
     265:	18 09                	sbb    %cl,(%ecx)
     267:	75 00                	jne    269 <mbh-0x2ffd97>
     269:	03 a9 3c 01 00 00    	add    0x13c(%ecx),%ebp
     26f:	1c 08                	sbb    $0x8,%al
     271:	b4 03                	mov    $0x3,%ah
     273:	00 00                	add    %al,(%eax)
     275:	03 ac 96 00 00 00 2c 	add    0x2c000000(%esi,%edx,4),%ebp
     27c:	08 63 00             	or     %ah,0x0(%ebx)
     27f:	00 00                	add    %al,(%eax)
     281:	03 ad 96 00 00 00    	add    0x96(%ebp),%ebp
     287:	30 08                	xor    %cl,(%eax)
     289:	cc                   	int3   
     28a:	04 00                	add    $0x0,%al
     28c:	00 03                	add    %al,(%ebx)
     28e:	b0 96                	mov    $0x96,%al
     290:	00 00                	add    %al,(%eax)
     292:	00 34 08             	add    %dh,(%eax,%ecx,1)
     295:	e6 00                	out    %al,$0x0
     297:	00 00                	add    %al,(%eax)
     299:	03 b1 96 00 00 00    	add    0x96(%ecx),%esi
     29f:	38 08                	cmp    %cl,(%eax)
     2a1:	e4 04                	in     $0x4,%al
     2a3:	00 00                	add    %al,(%eax)
     2a5:	03 b4 96 00 00 00 3c 	add    0x3c000000(%esi,%edx,4),%esi
     2ac:	08 0b                	or     %cl,(%ebx)
     2ae:	03 00                	add    (%eax),%eax
     2b0:	00 03                	add    %al,(%ebx)
     2b2:	b7 96                	mov    $0x96,%bh
     2b4:	00 00                	add    %al,(%eax)
     2b6:	00 40 08             	add    %al,0x8(%eax)
     2b9:	ce                   	into   
     2ba:	02 00                	add    (%eax),%al
     2bc:	00 03                	add    %al,(%ebx)
     2be:	ba 96 00 00 00       	mov    $0x96,%edx
     2c3:	44                   	inc    %esp
     2c4:	08 5f 03             	or     %bl,0x3(%edi)
     2c7:	00 00                	add    %al,(%eax)
     2c9:	03 bd 96 00 00 00    	add    0x96(%ebp),%edi
     2cf:	48                   	dec    %eax
     2d0:	08 43 03             	or     %al,0x3(%ebx)
     2d3:	00 00                	add    %al,(%eax)
     2d5:	03 be 96 00 00 00    	add    0x96(%esi),%edi
     2db:	4c                   	dec    %esp
     2dc:	08 82 03 00 00 03    	or     %al,0x3000003(%edx)
     2e2:	bf 8b 00 00 00       	mov    $0x8b,%edi
     2e7:	50                   	push   %eax
     2e8:	08 6a 05             	or     %ch,0x5(%edx)
     2eb:	00 00                	add    %al,(%eax)
     2ed:	03 c0                	add    %eax,%eax
     2ef:	8b 00                	mov    (%eax),%eax
     2f1:	00 00                	add    %al,(%eax)
     2f3:	52                   	push   %edx
     2f4:	08 7e 00             	or     %bh,0x0(%esi)
     2f7:	00 00                	add    %al,(%eax)
     2f9:	03 c1                	add    %ecx,%eax
     2fb:	8b 00                	mov    (%eax),%eax
     2fd:	00 00                	add    %al,(%eax)
     2ff:	54                   	push   %esp
     300:	08 98 04 00 00 03    	or     %bl,0x3000004(%eax)
     306:	c2 8b 00             	ret    $0x8b
     309:	00 00                	add    %al,(%eax)
     30b:	56                   	push   %esi
     30c:	08 6d 00             	or     %ch,0x0(%ebp)
     30f:	00 00                	add    %al,(%eax)
     311:	03 c4                	add    %esp,%eax
     313:	a1 00 00 00 58       	mov    0x58000000,%eax
     318:	08 57 04             	or     %dl,0x4(%edi)
     31b:	00 00                	add    %al,(%eax)
     31d:	03 c5                	add    %ebp,%eax
     31f:	96                   	xchg   %eax,%esi
     320:	00 00                	add    %al,(%eax)
     322:	00 60 08             	add    %ah,0x8(%eax)
     325:	a2 03 00 00 03       	mov    %al,0x3000003
     32a:	c6                   	(bad)  
     32b:	96                   	xchg   %eax,%esi
     32c:	00 00                	add    %al,(%eax)
     32e:	00 64 08 1e          	add    %ah,0x1e(%eax,%ecx,1)
     332:	05 00 00 03 c7       	add    $0xc7030000,%eax
     337:	96                   	xchg   %eax,%esi
     338:	00 00                	add    %al,(%eax)
     33a:	00 68 08             	add    %ch,0x8(%eax)
     33d:	33 03                	xor    (%ebx),%eax
     33f:	00 00                	add    %al,(%eax)
     341:	03 c8                	add    %eax,%ecx
     343:	80 00 00             	addb   $0x0,(%eax)
     346:	00 6c 08 69          	add    %ch,0x69(%eax,%ecx,1)
     34a:	04 00                	add    $0x0,%al
     34c:	00 03                	add    %al,(%ebx)
     34e:	cc                   	int3   
     34f:	80 00 00             	addb   $0x0,(%eax)
     352:	00 6d 0e             	add    %ch,0xe(%ebp)
     355:	cd 01                	int    $0x1
     357:	00 00                	add    %al,(%eax)
     359:	70 00                	jo     35b <mbh-0x2ffca5>
     35b:	03 0d 05 00 00 03    	add    0x3000005,%ecx
     361:	df e0                	fnstsw %ax
     363:	01 00                	add    %eax,(%eax)
     365:	00 03                	add    %al,(%ebx)
     367:	e6 02                	out    %al,$0x2
     369:	00 00                	add    %al,(%eax)
     36b:	04 08                	add    $0x8,%al
     36d:	35 03 00 00 07       	xor    $0x7000003,%eax
     372:	e1 03                	loope  377 <mbh-0x2ffc89>
     374:	00 00                	add    %al,(%eax)
     376:	04 05                	add    $0x5,%al
     378:	08 64 03 00          	or     %ah,0x0(%ebx,%eax,1)
     37c:	00 09                	add    %cl,(%ecx)
     37e:	6d                   	insl   (%dx),%es:(%edi)
     37f:	62 69 00             	bound  %ebp,0x0(%ecx)
     382:	05 0a 64 03 00       	add    $0x3640a,%eax
     387:	00 00                	add    %al,(%eax)
     389:	00 0f                	add    %cl,(%edi)
     38b:	04 40                	add    $0x40,%al
     38d:	03 00                	add    (%eax),%eax
     38f:	00 03                	add    %al,(%ebx)
     391:	17                   	pop    %ss
     392:	05 00 00 05 0c       	add    $0xc050000,%eax
     397:	4b                   	dec    %ebx
     398:	03 00                	add    (%eax),%eax
     39a:	00 10                	add    %dl,(%eax)
     39c:	43                   	inc    %ebx
     39d:	00 00                	add    %al,(%eax)
     39f:	00 85 03 00 00 11    	add    %al,0x11000003(%ebp)
     3a5:	48                   	dec    %eax
     3a6:	00 00                	add    %al,(%eax)
     3a8:	00 02                	add    %al,(%edx)
     3aa:	00 04 75 03 00 00 05 	add    %al,0x5000003(,%esi,2)
     3b1:	85 03                	test   %eax,(%ebx)
     3b3:	00 00                	add    %al,(%eax)
     3b5:	12 6d 62             	adc    0x62(%ebp),%ch
     3b8:	68 00 01 09 8a       	push   $0x8a090100
     3bd:	03 00                	add    (%eax),%eax
     3bf:	00 04 05 03 00 00 30 	add    %al,0x30000003(,%eax,1)
     3c6:	00 13                	add    %dl,(%ebx)
     3c8:	df 00                	filds  (%eax)
     3ca:	00 00                	add    %al,(%eax)
     3cc:	01 0f                	add    %ecx,(%edi)
     3ce:	6a 03                	push   $0x3
     3d0:	00 00                	add    %al,(%eax)
     3d2:	10 05 03 00 53 30    	adc    %al,0x30530003
     3d8:	00 14 e1             	add    %dl,(%ecx,%eiz,8)
     3db:	00 00                	add    %al,(%eax)
     3dd:	00 01                	add    %al,(%ecx)
     3df:	10 c4                	adc    %al,%ah
     3e1:	03 00                	add    (%eax),%eax
     3e3:	00 05 03 80 52 30    	add    %al,0x30528003
     3e9:	00 0f                	add    %cl,(%edi)
     3eb:	04 6a                	add    $0x6a,%al
     3ed:	03 00                	add    (%eax),%eax
     3ef:	00 15 ed 03 00 00    	add    %dl,0x3ed
     3f5:	01 12                	add    %edx,(%edx)
     3f7:	23 30                	and    (%eax),%esi
     3f9:	30 00                	xor    %al,(%eax)
     3fb:	4a                   	dec    %edx
     3fc:	00 00                	add    %al,(%eax)
     3fe:	00 01                	add    %al,(%ecx)
     400:	9c                   	pushf  
     401:	16                   	push   %ss
     402:	6d                   	insl   (%dx),%es:(%edi)
     403:	62 69 00             	bound  %ebp,0x0(%ecx)
     406:	01 12                	add    %edx,(%edx)
     408:	64 03 00             	add    %fs:(%eax),%eax
     40b:	00 02                	add    %al,(%edx)
     40d:	91                   	xchg   %eax,%ecx
     40e:	6c                   	insb   (%dx),%es:(%edi)
     40f:	00 00                	add    %al,(%eax)
     411:	7e 0a                	jle    41d <mbh-0x2ffbe3>
     413:	00 00                	add    %al,(%eax)
     415:	04 00                	add    $0x0,%al
     417:	36 01 00             	add    %eax,%ss:(%eax)
     41a:	00 04 01             	add    %al,(%ecx,%eax,1)
     41d:	2d 01 00 00 0c       	sub    $0xc000001,%eax
     422:	a3 06 00 00 17       	mov    %eax,0x17000006
     427:	00 00                	add    %al,(%eax)
     429:	00 6d 30             	add    %ch,0x30(%ebp)
     42c:	30 00                	xor    %al,(%eax)
     42e:	a3 08 00 00 d9       	mov    %eax,0xd9000008
     433:	00 00                	add    %al,(%eax)
     435:	00 02                	add    %al,(%edx)
     437:	62 05 00 00 03 1a    	bound  %eax,0x1a030000
     43d:	30 00                	xor    %al,(%eax)
     43f:	00 00                	add    %al,(%eax)
     441:	03 01                	add    (%ecx),%eax
     443:	08 51 03             	or     %dl,0x3(%ecx)
     446:	00 00                	add    %al,(%eax)
     448:	02 b7 00 00 00 03    	add    0x3000000(%edi),%dh
     44e:	1b 42 00             	sbb    0x0(%edx),%eax
     451:	00 00                	add    %al,(%eax)
     453:	03 02                	add    (%edx),%eax
     455:	07                   	pop    %es
     456:	f3 03 00             	repz add (%eax),%eax
     459:	00 02                	add    %al,(%edx)
     45b:	9a 00 00 00 03 1c 54 	lcall  $0x541c,$0x3000000
     462:	00 00                	add    %al,(%eax)
     464:	00 03                	add    %al,(%ebx)
     466:	04 07                	add    $0x7,%al
     468:	95                   	xchg   %eax,%ebp
     469:	03 00                	add    (%eax),%eax
     46b:	00 02                	add    %al,(%edx)
     46d:	10 04 00             	adc    %al,(%eax,%eax,1)
     470:	00 03                	add    %al,(%ebx)
     472:	1d 66 00 00 00       	sbb    $0x66,%eax
     477:	03 08                	add    (%eax),%ecx
     479:	07                   	pop    %es
     47a:	8b 03                	mov    (%ebx),%eax
     47c:	00 00                	add    %al,(%eax)
     47e:	02 bd 07 00 00 03    	add    0x3000007(%ebp),%bh
     484:	1f                   	pop    %ds
     485:	78 00                	js     487 <mbh-0x2ffb79>
     487:	00 00                	add    %al,(%eax)
     489:	03 01                	add    (%ecx),%eax
     48b:	06                   	push   %es
     48c:	53                   	push   %ebx
     48d:	03 00                	add    (%eax),%eax
     48f:	00 02                	add    %al,(%edx)
     491:	0a 07                	or     (%edi),%al
     493:	00 00                	add    %al,(%eax)
     495:	03 20                	add    (%eax),%esp
     497:	8a 00                	mov    (%eax),%al
     499:	00 00                	add    %al,(%eax)
     49b:	03 02                	add    (%edx),%eax
     49d:	05 a3 00 00 00       	add    $0xa3,%eax
     4a2:	02 b0 05 00 00 03    	add    0x3000005(%eax),%dh
     4a8:	21 9c 00 00 00 04 04 	and    %ebx,0x4040000(%eax,%eax,1)
     4af:	05 69 6e 74 00       	add    $0x746e69,%eax
     4b4:	02 89 06 00 00 03    	add    0x3000006(%ecx),%cl
     4ba:	22 ae 00 00 00 03    	and    0x3000000(%esi),%ch
     4c0:	08 05 d8 02 00 00    	or     %al,0x2d8
     4c6:	02 b9 05 00 00 03    	add    0x3000005(%ecx),%bh
     4cc:	24 c0                	and    $0xc0,%al
     4ce:	00 00                	add    %al,(%eax)
     4d0:	00 05 04 c6 00 00    	add    %al,0xc604
     4d6:	00 03                	add    %al,(%ebx)
     4d8:	01 06                	add    %eax,(%esi)
     4da:	5a                   	pop    %edx
     4db:	03 00                	add    (%eax),%eax
     4dd:	00 06                	add    %al,(%esi)
     4df:	c6 00 00             	movb   $0x0,(%eax)
     4e2:	00 02                	add    %al,(%edx)
     4e4:	a9 05 00 00 03       	test   $0x3000005,%eax
     4e9:	25 dd 00 00 00       	and    $0xdd,%eax
     4ee:	03 04 07             	add    (%edi,%eax,1),%eax
     4f1:	90                   	nop
     4f2:	03 00                	add    (%eax),%eax
     4f4:	00 02                	add    %al,(%edx)
     4f6:	6a 07                	push   $0x7
     4f8:	00 00                	add    %al,(%eax)
     4fa:	03 26                	add    (%esi),%esp
     4fc:	dd 00                	fldl   (%eax)
     4fe:	00 00                	add    %al,(%eax)
     500:	07                   	pop    %es
     501:	07                   	pop    %es
     502:	04 54                	add    $0x54,%al
     504:	00 00                	add    %al,(%eax)
     506:	00 03                	add    %al,(%ebx)
     508:	29 09                	sub    %ecx,(%ecx)
     50a:	01 00                	add    %eax,(%eax)
     50c:	00 08                	add    %cl,(%eax)
     50e:	4a                   	dec    %edx
     50f:	07                   	pop    %es
     510:	00 00                	add    %al,(%eax)
     512:	00 08                	add    %cl,(%eax)
     514:	d3 07                	roll   %cl,(%edi)
     516:	00 00                	add    %al,(%eax)
     518:	01 00                	add    %eax,(%eax)
     51a:	02 ff                	add    %bh,%bh
     51c:	05 00 00 03 29       	add    $0x29030000,%eax
     521:	ef                   	out    %eax,(%dx)
     522:	00 00                	add    %al,(%eax)
     524:	00 09                	add    %cl,(%ecx)
     526:	02 03                	add    (%ebx),%al
     528:	4c                   	dec    %esp
     529:	35 01 00 00 0a       	xor    $0xa000001,%eax
     52e:	9e                   	sahf   
     52f:	05 00 00 03 4e       	add    $0x4e030000,%eax
     534:	25 00 00 00 00       	and    $0x0,%eax
     539:	0a 92 06 00 00 03    	or     0x3000006(%edx),%dl
     53f:	4f                   	dec    %edi
     540:	25 00 00 00 01       	and    $0x1000000,%eax
     545:	00 0b                	add    %cl,(%ebx)
     547:	d8 05 00 00 02 03    	fadds  0x3020000
     54d:	45                   	inc    %ebp
     54e:	68 01 00 00 0c       	push   $0xc000001
     553:	72 61                	jb     5b6 <mbh-0x2ffa4a>
     555:	77 00                	ja     557 <mbh-0x2ffaa9>
     557:	03 47 37             	add    0x37(%edi),%eax
     55a:	00 00                	add    %al,(%eax)
     55c:	00 0d f4 06 00 00    	add    %cl,0x6f4
     562:	03 48 7f             	add    0x7f(%eax),%ecx
     565:	00 00                	add    %al,(%eax)
     567:	00 0d 64 06 00 00    	add    %cl,0x664
     56d:	03 49 68             	add    0x68(%ecx),%ecx
     570:	01 00                	add    %eax,(%eax)
     572:	00 0e                	add    %cl,(%esi)
     574:	14 01                	adc    $0x1,%al
     576:	00 00                	add    %al,(%eax)
     578:	00 0f                	add    %cl,(%edi)
     57a:	25 00 00 00 78       	and    $0x78000000,%eax
     57f:	01 00                	add    %eax,(%eax)
     581:	00 10                	add    %dl,(%eax)
     583:	54                   	push   %esp
     584:	00 00                	add    %al,(%eax)
     586:	00 01                	add    %al,(%ecx)
     588:	00 02                	add    %al,(%edx)
     58a:	06                   	push   %es
     58b:	06                   	push   %es
     58c:	00 00                	add    %al,(%eax)
     58e:	03 53 35             	add    0x35(%ebx),%edx
     591:	01 00                	add    %eax,(%eax)
     593:	00 09                	add    %cl,(%ecx)
     595:	04 03                	add    $0x3,%al
     597:	5f                   	pop    %edi
     598:	a4                   	movsb  %ds:(%esi),%es:(%edi)
     599:	01 00                	add    %eax,(%eax)
     59b:	00 0a                	add    %cl,(%edx)
     59d:	98                   	cwtl   
     59e:	06                   	push   %es
     59f:	00 00                	add    %al,(%eax)
     5a1:	03 61 78             	add    0x78(%ecx),%esp
     5a4:	01 00                	add    %eax,(%eax)
     5a6:	00 00                	add    %al,(%eax)
     5a8:	0a b6 07 00 00 03    	or     0x3000007(%esi),%dh
     5ae:	62 78 01             	bound  %edi,0x1(%eax)
     5b1:	00 00                	add    %al,(%eax)
     5b3:	02 00                	add    (%eax),%al
     5b5:	09 02                	or     %eax,(%edx)
     5b7:	03 6b c5             	add    -0x3b(%ebx),%ebp
     5ba:	01 00                	add    %eax,(%eax)
     5bc:	00 0a                	add    %cl,(%edx)
     5be:	9e                   	sahf   
     5bf:	05 00 00 03 6d       	add    $0x6d030000,%eax
     5c4:	25 00 00 00 00       	and    $0x0,%eax
     5c9:	0a 92 06 00 00 03    	or     0x3000006(%edx),%dl
     5cf:	6e                   	outsb  %ds:(%esi),(%dx)
     5d0:	25 00 00 00 01       	and    $0x1000000,%eax
     5d5:	00 11                	add    %dl,(%ecx)
     5d7:	02 03                	add    (%ebx),%al
     5d9:	69 de 01 00 00 0e    	imul   $0xe000001,%esi,%ebx
     5df:	a4                   	movsb  %ds:(%esi),%es:(%edi)
     5e0:	01 00                	add    %eax,(%eax)
     5e2:	00 0d 99 06 00 00    	add    %cl,0x699
     5e8:	03 72 37             	add    0x37(%edx),%esi
     5eb:	00 00                	add    %al,(%eax)
     5ed:	00 00                	add    %al,(%eax)
     5ef:	09 04 03             	or     %eax,(%ebx,%eax,1)
     5f2:	67 f9                	addr16 stc 
     5f4:	01 00                	add    %eax,(%eax)
     5f6:	00 12                	add    %dl,(%edx)
     5f8:	c5 01                	lds    (%ecx),%eax
     5fa:	00 00                	add    %al,(%eax)
     5fc:	00 0a                	add    %cl,(%edx)
     5fe:	b7 07                	mov    $0x7,%bh
     600:	00 00                	add    %al,(%eax)
     602:	03 76 37             	add    0x37(%esi),%esi
     605:	00 00                	add    %al,(%eax)
     607:	00 02                	add    %al,(%edx)
     609:	00 0b                	add    %cl,(%ebx)
     60b:	ce                   	into   
     60c:	06                   	push   %es
     60d:	00 00                	add    %al,(%eax)
     60f:	04 03                	add    $0x3,%al
     611:	58                   	pop    %eax
     612:	31 02                	xor    %eax,(%edx)
     614:	00 00                	add    %al,(%eax)
     616:	0c 72                	or     $0x72,%al
     618:	61                   	popa   
     619:	77 00                	ja     61b <mbh-0x2ff9e5>
     61b:	03 5a 49             	add    0x49(%edx),%ebx
     61e:	00 00                	add    %al,(%eax)
     620:	00 0d f4 06 00 00    	add    %cl,0x6f4
     626:	03 5b 91             	add    -0x6f(%ebx),%ebx
     629:	00 00                	add    %al,(%eax)
     62b:	00 0d 64 06 00 00    	add    %cl,0x664
     631:	03 5c 31 02          	add    0x2(%ecx,%esi,1),%ebx
     635:	00 00                	add    %al,(%eax)
     637:	0e                   	push   %cs
     638:	83 01 00             	addl   $0x0,(%ecx)
     63b:	00 0e                	add    %cl,(%esi)
     63d:	de 01                	fiadds (%ecx)
     63f:	00 00                	add    %al,(%eax)
     641:	00 0f                	add    %cl,(%edi)
     643:	25 00 00 00 41       	and    $0x41000000,%eax
     648:	02 00                	add    (%eax),%al
     64a:	00 10                	add    %dl,(%eax)
     64c:	54                   	push   %esp
     64d:	00 00                	add    %al,(%eax)
     64f:	00 03                	add    %al,(%ebx)
     651:	00 02                	add    %al,(%edx)
     653:	38 07                	cmp    %al,(%edi)
     655:	00 00                	add    %al,(%eax)
     657:	03 7a f9             	add    -0x7(%edx),%edi
     65a:	01 00                	add    %eax,(%eax)
     65c:	00 09                	add    %cl,(%ecx)
     65e:	08 03                	or     %al,(%ebx)
     660:	86 6d 02             	xchg   %ch,0x2(%ebp)
     663:	00 00                	add    %al,(%eax)
     665:	0a 84 06 00 00 03 88 	or     -0x77fd0000(%esi,%eax,1),%al
     66c:	41                   	inc    %ecx
     66d:	02 00                	add    (%eax),%al
     66f:	00 00                	add    %al,(%eax)
     671:	0a ee                	or     %dh,%ch
     673:	06                   	push   %es
     674:	00 00                	add    %al,(%eax)
     676:	03 89 41 02 00 00    	add    0x241(%ecx),%ecx
     67c:	04 00                	add    $0x0,%al
     67e:	09 02                	or     %eax,(%edx)
     680:	03 96 8e 02 00 00    	add    0x28e(%esi),%edx
     686:	0a 9e 05 00 00 03    	or     0x3000005(%esi),%bl
     68c:	98                   	cwtl   
     68d:	25 00 00 00 00       	and    $0x0,%eax
     692:	0a 92 06 00 00 03    	or     0x3000006(%edx),%dl
     698:	99                   	cltd   
     699:	25 00 00 00 01       	and    $0x1000000,%eax
     69e:	00 11                	add    %dl,(%ecx)
     6a0:	02 03                	add    (%ebx),%al
     6a2:	94                   	xchg   %eax,%esp
     6a3:	a7                   	cmpsl  %es:(%edi),%ds:(%esi)
     6a4:	02 00                	add    (%eax),%al
     6a6:	00 0e                	add    %cl,(%esi)
     6a8:	6d                   	insl   (%dx),%es:(%edi)
     6a9:	02 00                	add    (%eax),%al
     6ab:	00 0d 99 06 00 00    	add    %cl,0x699
     6b1:	03 9d 37 00 00 00    	add    0x37(%ebp),%ebx
     6b7:	00 09                	add    %cl,(%ecx)
     6b9:	04 03                	add    $0x3,%al
     6bb:	92                   	xchg   %eax,%edx
     6bc:	c2 02 00             	ret    $0x2
     6bf:	00 12                	add    %dl,(%edx)
     6c1:	8e 02                	mov    (%edx),%es
     6c3:	00 00                	add    %al,(%eax)
     6c5:	00 0a                	add    %cl,(%edx)
     6c7:	b7 07                	mov    $0x7,%bh
     6c9:	00 00                	add    %al,(%eax)
     6cb:	03 a1 37 00 00 00    	add    0x37(%ecx),%esp
     6d1:	02 00                	add    (%eax),%al
     6d3:	11 04 03             	adc    %eax,(%ebx,%eax,1)
     6d6:	90                   	nop
     6d7:	db 02                	fildl  (%edx)
     6d9:	00 00                	add    %al,(%eax)
     6db:	0e                   	push   %cs
     6dc:	a7                   	cmpsl  %es:(%edi),%ds:(%esi)
     6dd:	02 00                	add    (%eax),%al
     6df:	00 0c 6c             	add    %cl,(%esp,%ebp,2)
     6e2:	6f                   	outsl  %ds:(%esi),(%dx)
     6e3:	77 00                	ja     6e5 <mbh-0x2ff91b>
     6e5:	03 a5 49 00 00 00    	add    0x49(%ebp),%esp
     6eb:	00 09                	add    %cl,(%ecx)
     6ed:	08 03                	or     %al,(%ebx)
     6ef:	8e f6                	mov    %esi,%?
     6f1:	02 00                	add    (%eax),%al
     6f3:	00 12                	add    %dl,(%edx)
     6f5:	c2 02 00             	ret    $0x2
     6f8:	00 00                	add    %al,(%eax)
     6fa:	0a ef                	or     %bh,%ch
     6fc:	06                   	push   %es
     6fd:	00 00                	add    %al,(%eax)
     6ff:	03 a9 49 00 00 00    	add    0x49(%ecx),%ebp
     705:	04 00                	add    $0x0,%al
     707:	0b 2d 06 00 00 08    	or     0x8000006,%ebp
     70d:	03 7f 2e             	add    0x2e(%edi),%edi
     710:	03 00                	add    (%eax),%eax
     712:	00 0c 72             	add    %cl,(%edx,%esi,2)
     715:	61                   	popa   
     716:	77 00                	ja     718 <mbh-0x2ff8e8>
     718:	03 81 5b 00 00 00    	add    0x5b(%ecx),%eax
     71e:	0d f4 06 00 00       	or     $0x6f4,%eax
     723:	03 82 a3 00 00 00    	add    0xa3(%edx),%eax
     729:	0d 64 06 00 00       	or     $0x664,%eax
     72e:	03 83 2e 03 00 00    	add    0x32e(%ebx),%eax
     734:	0e                   	push   %cs
     735:	4c                   	dec    %esp
     736:	02 00                	add    (%eax),%al
     738:	00 0e                	add    %cl,(%esi)
     73a:	db 02                	fildl  (%edx)
     73c:	00 00                	add    %al,(%eax)
     73e:	00 0f                	add    %cl,(%edi)
     740:	25 00 00 00 3e       	and    $0x3e000000,%eax
     745:	03 00                	add    (%eax),%eax
     747:	00 10                	add    %dl,(%eax)
     749:	54                   	push   %esp
     74a:	00 00                	add    %al,(%eax)
     74c:	00 07                	add    %al,(%edi)
     74e:	00 02                	add    %al,(%edx)
     750:	cb                   	lret   
     751:	07                   	pop    %es
     752:	00 00                	add    %al,(%eax)
     754:	03 ad f6 02 00 00    	add    0x2f6(%ebp),%ebp
     75a:	13 ba 06 00 00 04    	adc    0x4000006(%edx),%edi
     760:	03 b9 6e 03 00 00    	add    0x36e(%ecx),%edi
     766:	0a 84 07 00 00 03 bb 	or     -0x44fd0000(%edi,%eax,1),%al
     76d:	37                   	aaa    
     76e:	00 00                	add    %al,(%eax)
     770:	00 00                	add    %al,(%eax)
     772:	0a 88 0a 00 00 03    	or     0x300000a(%eax),%cl
     778:	bc 37 00 00 00       	mov    $0x37,%esp
     77d:	02 00                	add    (%eax),%al
     77f:	02 ad 07 00 00 03    	add    0x3000007(%ebp),%ch
     785:	be 49 03 00 00       	mov    $0x349,%esi
     78a:	13 40 07             	adc    0x7(%eax),%eax
     78d:	00 00                	add    %al,(%eax)
     78f:	06                   	push   %es
     790:	03 c0                	add    %eax,%eax
     792:	9e                   	sahf   
     793:	03 00                	add    (%eax),%eax
     795:	00 0a                	add    %cl,(%edx)
     797:	84 07                	test   %al,(%edi)
     799:	00 00                	add    %al,(%eax)
     79b:	03 c2                	add    %edx,%eax
     79d:	49                   	dec    %ecx
     79e:	00 00                	add    %al,(%eax)
     7a0:	00 00                	add    %al,(%eax)
     7a2:	0a 88 0a 00 00 03    	or     0x300000a(%eax),%cl
     7a8:	c3                   	ret    
     7a9:	37                   	aaa    
     7aa:	00 00                	add    %al,(%eax)
     7ac:	00 04 00             	add    %al,(%eax,%eax,1)
     7af:	02 ea                	add    %dl,%ch
     7b1:	05 00 00 03 c5       	add    $0xc5030000,%eax
     7b6:	79 03                	jns    7bb <mbh-0x2ff845>
     7b8:	00 00                	add    %al,(%eax)
     7ba:	13 ce                	adc    %esi,%ecx
     7bc:	05 00 00 0a 03       	add    $0x30a0000,%eax
     7c1:	c7                   	(bad)  
     7c2:	ce                   	into   
     7c3:	03 00                	add    (%eax),%eax
     7c5:	00 0a                	add    %cl,(%edx)
     7c7:	84 07                	test   %al,(%edi)
     7c9:	00 00                	add    %al,(%eax)
     7cb:	03 c9                	add    %ecx,%ecx
     7cd:	5b                   	pop    %ebx
     7ce:	00 00                	add    %al,(%eax)
     7d0:	00 00                	add    %al,(%eax)
     7d2:	0a 88 0a 00 00 03    	or     0x300000a(%eax),%cl
     7d8:	ca 37 00             	lret   $0x37
     7db:	00 00                	add    %al,(%eax)
     7dd:	08 00                	or     %al,(%eax)
     7df:	02 2f                	add    (%edi),%ch
     7e1:	07                   	pop    %es
     7e2:	00 00                	add    %al,(%eax)
     7e4:	03 cc                	add    %esp,%ecx
     7e6:	a9 03 00 00 0b       	test   $0xb000003,%eax
     7eb:	61                   	popa   
     7ec:	07                   	pop    %es
     7ed:	00 00                	add    %al,(%eax)
     7ef:	08 03                	or     %al,(%ebx)
     7f1:	d1 58 04             	rcrl   0x4(%eax)
     7f4:	00 00                	add    %al,(%eax)
     7f6:	0d f3 05 00 00       	or     $0x5f3,%eax
     7fb:	03 d3                	add    %ebx,%edx
     7fd:	e4 00                	in     $0x0,%al
     7ff:	00 00                	add    %al,(%eax)
     801:	0d 99 05 00 00       	or     $0x599,%eax
     806:	03 d5                	add    %ebp,%edx
     808:	58                   	pop    %eax
     809:	04 00                	add    $0x0,%al
     80b:	00 0c 75 38 00 03 d6 	add    %cl,-0x29fcffc8(,%esi,2)
     812:	5a                   	pop    %edx
     813:	04 00                	add    $0x0,%al
     815:	00 0c 75 31 36 00 03 	add    %cl,0x3003631(,%esi,2)
     81c:	d7                   	xlat   %ds:(%ebx)
     81d:	60                   	pusha  
     81e:	04 00                	add    $0x0,%al
     820:	00 0c 75 33 32 00 03 	add    %cl,0x3003233(,%esi,2)
     827:	d8 66 04             	fsubs  0x4(%esi)
     82a:	00 00                	add    %al,(%eax)
     82c:	0c 75                	or     $0x75,%al
     82e:	36 34 00             	ss xor $0x0,%al
     831:	03 d9                	add    %ecx,%ebx
     833:	6c                   	insb   (%dx),%es:(%edi)
     834:	04 00                	add    $0x0,%al
     836:	00 0c 73             	add    %cl,(%ebx,%esi,2)
     839:	74 72                	je     8ad <mbh-0x2ff753>
     83b:	00 03                	add    %al,(%ebx)
     83d:	db b5 00 00 00 0c    	(bad)  0xc000000(%ebp)
     843:	66 31 36             	xor    %si,(%esi)
     846:	00 03                	add    %al,(%ebx)
     848:	dd 72 04             	fnsave 0x4(%edx)
     84b:	00 00                	add    %al,(%eax)
     84d:	0c 66                	or     $0x66,%al
     84f:	33 32                	xor    (%edx),%esi
     851:	00 03                	add    %al,(%ebx)
     853:	de 78 04             	fidivrs 0x4(%eax)
     856:	00 00                	add    %al,(%eax)
     858:	0c 66                	or     $0x66,%al
     85a:	36 34 00             	ss xor $0x0,%al
     85d:	03 df                	add    %edi,%ebx
     85f:	7e 04                	jle    865 <mbh-0x2ff79b>
     861:	00 00                	add    %al,(%eax)
     863:	0e                   	push   %cs
     864:	3e 03 00             	add    %ds:(%eax),%eax
     867:	00 00                	add    %al,(%eax)
     869:	14 04                	adc    $0x4,%al
     86b:	05 04 25 00 00       	add    $0x2504,%eax
     870:	00 05 04 37 00 00    	add    %al,0x3704
     876:	00 05 04 49 00 00    	add    %al,0x4904
     87c:	00 05 04 5b 00 00    	add    %al,0x5b04
     882:	00 05 04 6e 03 00    	add    %al,0x36e04
     888:	00 05 04 9e 03 00    	add    %al,0x39e04
     88e:	00 05 04 ce 03 00    	add    %al,0x3ce04
     894:	00 02                	add    %al,(%edx)
     896:	c5 07                	lds    (%edi),%eax
     898:	00 00                	add    %al,(%eax)
     89a:	03 e3                	add    %ebx,%esp
     89c:	d9 03                	flds   (%ebx)
     89e:	00 00                	add    %al,(%eax)
     8a0:	13 c7                	adc    %edi,%eax
     8a2:	05 00 00 0c 03       	add    $0x30c0000,%eax
     8a7:	e8 b3 04 00 00       	call   d5f <mbh-0x2ff2a1>
     8ac:	0a 9e 06 00 00 03    	or     0x3000006(%esi),%bl
     8b2:	ea 84 04 00 00 00 15 	ljmp   $0x1500,$0x484
     8b9:	73 7a                	jae    935 <mbh-0x2ff6cb>
     8bb:	00 03                	add    %al,(%ebx)
     8bd:	eb d2                	jmp    891 <mbh-0x2ff76f>
     8bf:	00 00                	add    %al,(%eax)
     8c1:	00 08                	add    %cl,(%eax)
     8c3:	00 02                	add    %al,(%edx)
     8c5:	69 06 00 00 03 ed    	imul   $0xed030000,(%esi),%eax
     8cb:	8f 04 00             	popl   (%eax,%eax,1)
     8ce:	00 02                	add    %al,(%edx)
     8d0:	25 06 00 00 04       	and    $0x4000006,%eax
     8d5:	0a c9                	or     %cl,%cl
     8d7:	04 00                	add    $0x0,%al
     8d9:	00 16                	add    %dl,(%esi)
     8db:	04 1b                	add    $0x1b,%al
     8dd:	06                   	push   %es
     8de:	00 00                	add    %al,(%eax)
     8e0:	c6 00 00             	movb   $0x0,(%eax)
     8e3:	00 0f                	add    %cl,(%edi)
     8e5:	c6 00 00             	movb   $0x0,(%eax)
     8e8:	00 e4                	add    %ah,%ah
     8ea:	04 00                	add    $0x0,%al
     8ec:	00 17                	add    %dl,(%edi)
     8ee:	54                   	push   %esp
     8ef:	00 00                	add    %al,(%eax)
     8f1:	00 ff                	add    %bh,%bh
     8f3:	03 00                	add    (%eax),%eax
     8f5:	18 c0                	sbb    %al,%al
     8f7:	05 00 00 02 07       	add    $0x7020000,%eax
     8fc:	d3 04 00             	roll   %cl,(%eax,%eax,1)
     8ff:	00 05 03 20 53 30    	add    %al,0x30532003
     905:	00 0f                	add    %cl,(%edi)
     907:	c6 00 00             	movb   $0x0,(%eax)
     90a:	00 05 05 00 00 10    	add    %al,0x10000005
     910:	54                   	push   %esp
     911:	00 00                	add    %al,(%eax)
     913:	00 0f                	add    %cl,(%edi)
     915:	00 18                	add    %bl,(%eax)
     917:	24 07                	and    $0x7,%al
     919:	00 00                	add    %al,(%eax)
     91b:	02 81 f5 04 00 00    	add    0x4f5(%ecx),%al
     921:	05 03 84 52 30       	add    $0x30528403,%eax
     926:	00 19                	add    %bl,(%ecx)
     928:	58                   	pop    %eax
     929:	06                   	push   %es
     92a:	00 00                	add    %al,(%eax)
     92c:	02 a2 d2 00 00 00    	add    0xd2(%edx),%ah
     932:	0e                   	push   %cs
     933:	35 30 00 02 04       	xor    $0x4020030,%eax
     938:	00 00                	add    %al,(%eax)
     93a:	01 9c a7 06 00 00 1a 	add    %ebx,0x1a000006(%edi,%eiz,4)
     941:	c7 05 00 00 02 a2 c0 	movl   $0xc0,0xa2020000
     948:	00 00 00 
     94b:	02 91 00 1b 6c 65    	add    0x656c1b00(%ecx),%dl
     951:	6e                   	outsb  %ds:(%esi),(%dx)
     952:	00 02                	add    %al,(%edx)
     954:	a2 d2 00 00 00       	mov    %al,0xd2
     959:	02 91 04 1a 50 07    	add    0x7501a04(%ecx),%dl
     95f:	00 00                	add    %al,(%eax)
     961:	02 a3 a7 06 00 00    	add    0x6a7(%ebx),%ah
     967:	02 91 08 1a 73 07    	add    0x7731a08(%ecx),%dl
     96d:	00 00                	add    %al,(%eax)
     96f:	02 a3 be 04 00 00    	add    0x4be(%ebx),%ah
     975:	02 91 0c 1c 62 75    	add    0x75621c0c(%ecx),%dl
     97b:	66 00 02             	data16 add %al,(%edx)
     97e:	a5                   	movsl  %ds:(%esi),%es:(%edi)
     97f:	b3 04                	mov    $0x4,%bl
     981:	00 00                	add    %al,(%eax)
     983:	03 91 8c 7f 18 c7    	add    -0x38e78074(%ecx),%edx
     989:	04 00                	add    $0x0,%al
     98b:	00 02                	add    %al,(%edx)
     98d:	a6                   	cmpsb  %es:(%edi),%ds:(%esi)
     98e:	d2 00                	rolb   %cl,(%eax)
     990:	00 00                	add    %al,(%eax)
     992:	02 91 6c 1c 63 00    	add    0x631c6c(%ecx),%dl
     998:	02 a7 c6 00 00 00    	add    0xc6(%edi),%ah
     99e:	02 91 4f 18 14 06    	add    0x614184f(%ecx),%dl
     9a4:	00 00                	add    %al,(%eax)
     9a6:	02 a8 09 01 00 00    	add    0x109(%eax),%ch
     9ac:	02 91 68 1c 6c 6e    	add    0x6e6c1c68(%ecx),%dl
     9b2:	67 00 02             	add    %al,(%bp,%si)
     9b5:	a8 09                	test   $0x9,%al
     9b7:	01 00                	add    %eax,(%eax)
     9b9:	00 02                	add    %al,(%edx)
     9bb:	91                   	xchg   %eax,%ecx
     9bc:	64 1d 9f 35 30 00    	fs sbb $0x30359f,%eax
     9c2:	20 00                	and    %al,(%eax)
     9c4:	00 00                	add    %al,(%eax)
     9c6:	c9                   	leave  
     9c7:	05 00 00 18 a3       	add    $0xa3180000,%eax
     9cc:	05 00 00 02 c6       	add    $0xc6020000,%eax
     9d1:	c0 00 00             	rolb   $0x0,(%eax)
     9d4:	00 03                	add    %al,(%ebx)
     9d6:	91                   	xchg   %eax,%ecx
     9d7:	98                   	cwtl   
     9d8:	7f 00                	jg     9da <mbh-0x2ff626>
     9da:	1d ca 35 30 00       	sbb    $0x3035ca,%eax
     9df:	20 00                	and    %al,(%eax)
     9e1:	00 00                	add    %al,(%eax)
     9e3:	e6 05                	out    %al,$0x5
     9e5:	00 00                	add    %al,(%eax)
     9e7:	18 a3 05 00 00 02    	sbb    %ah,0x2000005(%ebx)
     9ed:	c9                   	leave  
     9ee:	9c                   	pushf  
     9ef:	00 00                	add    %al,(%eax)
     9f1:	00 03                	add    %al,(%ebx)
     9f3:	91                   	xchg   %eax,%ecx
     9f4:	9c                   	pushf  
     9f5:	7f 00                	jg     9f7 <mbh-0x2ff609>
     9f7:	1d f5 35 30 00       	sbb    $0x3035f5,%eax
     9fc:	2f                   	das    
     9fd:	00 00                	add    %al,(%eax)
     9ff:	00 03                	add    %al,(%ebx)
     a01:	06                   	push   %es
     a02:	00 00                	add    %al,(%eax)
     a04:	18 a3 05 00 00 02    	sbb    %ah,0x2000005(%ebx)
     a0a:	cc                   	int3   
     a0b:	5b                   	pop    %ebx
     a0c:	00 00                	add    %al,(%eax)
     a0e:	00 03                	add    %al,(%ebx)
     a10:	91                   	xchg   %eax,%ecx
     a11:	a0 7f 00 1d 2f       	mov    0x2f1d007f,%al
     a16:	36 30 00             	xor    %al,%ss:(%eax)
     a19:	2e 00 00             	add    %al,%cs:(%eax)
     a1c:	00 20                	add    %ah,(%eax)
     a1e:	06                   	push   %es
     a1f:	00 00                	add    %al,(%eax)
     a21:	18 a3 05 00 00 02    	sbb    %ah,0x2000005(%ebx)
     a27:	cf                   	iret   
     a28:	5b                   	pop    %ebx
     a29:	00 00                	add    %al,(%eax)
     a2b:	00 03                	add    %al,(%ebx)
     a2d:	91                   	xchg   %eax,%ecx
     a2e:	a8 7f                	test   $0x7f,%al
     a30:	00 1d 72 36 30 00    	add    %bl,0x303672
     a36:	7b 00                	jnp    a38 <mbh-0x2ff5c8>
     a38:	00 00                	add    %al,(%eax)
     a3a:	3c 06                	cmp    $0x6,%al
     a3c:	00 00                	add    %al,(%eax)
     a3e:	18 a3 05 00 00 02    	sbb    %ah,0x2000005(%ebx)
     a44:	d4 a3                	aam    $0xa3
     a46:	00 00                	add    %al,(%eax)
     a48:	00 02                	add    %al,(%edx)
     a4a:	91                   	xchg   %eax,%ecx
     a4b:	58                   	pop    %eax
     a4c:	00 1e                	add    %bl,(%esi)
     a4e:	00 00                	add    %al,(%eax)
     a50:	00 00                	add    %al,(%eax)
     a52:	54                   	push   %esp
     a53:	06                   	push   %es
     a54:	00 00                	add    %al,(%eax)
     a56:	18 a3 05 00 00 02    	sbb    %ah,0x2000005(%ebx)
     a5c:	e2 5b                	loop   ab9 <mbh-0x2ff547>
     a5e:	00 00                	add    %al,(%eax)
     a60:	00 02                	add    %al,(%edx)
     a62:	91                   	xchg   %eax,%ecx
     a63:	50                   	push   %eax
     a64:	00 1d b8 37 30 00    	add    %bl,0x3037b8
     a6a:	29 00                	sub    %eax,(%eax)
     a6c:	00 00                	add    %al,(%eax)
     a6e:	71 06                	jno    a76 <mbh-0x2ff58a>
     a70:	00 00                	add    %al,(%eax)
     a72:	18 a3 05 00 00 02    	sbb    %ah,0x2000005(%ebx)
     a78:	f4                   	hlt    
     a79:	a3 00 00 00 03       	mov    %eax,0x3000000
     a7e:	91                   	xchg   %eax,%ecx
     a7f:	b0 7f                	mov    $0x7f,%al
     a81:	00 1d ec 37 30 00    	add    %bl,0x3037ec
     a87:	2e 00 00             	add    %al,%cs:(%eax)
     a8a:	00 8e 06 00 00 18    	add    %cl,0x18000006(%esi)
     a90:	a3 05 00 00 02       	mov    %eax,0x2000005
     a95:	f7 5b 00             	negl   0x0(%ebx)
     a98:	00 00                	add    %al,(%eax)
     a9a:	03 91 b8 7f 00 1f    	add    0x1f007fb8(%ecx),%edx
     aa0:	25 38 30 00 46       	and    $0x46003038,%eax
     aa5:	00 00                	add    %al,(%eax)
     aa7:	00 18                	add    %bl,(%eax)
     aa9:	a3 05 00 00 02       	mov    %eax,0x2000005
     aae:	fc                   	cld    
     aaf:	5b                   	pop    %ebx
     ab0:	00 00                	add    %al,(%eax)
     ab2:	00 02                	add    %al,(%edx)
     ab4:	91                   	xchg   %eax,%ecx
     ab5:	40                   	inc    %eax
     ab6:	00 00                	add    %al,(%eax)
     ab8:	05 04 cd 00 00       	add    $0xcd04,%eax
     abd:	00 20                	add    %ah,(%eax)
     abf:	13 07                	adc    (%edi),%eax
     ac1:	00 00                	add    %al,(%eax)
     ac3:	02 9c df 34 30 00 2f 	add    0x2f003034(%edi,%ebx,8),%bl
     aca:	00 00                	add    %al,(%eax)
     acc:	00 01                	add    %al,(%ecx)
     ace:	9c                   	pushf  
     acf:	fb                   	sti    
     ad0:	06                   	push   %es
     ad1:	00 00                	add    %al,(%eax)
     ad3:	1b 62 75             	sbb    0x75(%edx),%esp
     ad6:	66 00 02             	data16 add %al,(%edx)
     ad9:	9c                   	pushf  
     ada:	fb                   	sti    
     adb:	06                   	push   %es
     adc:	00 00                	add    %al,(%eax)
     ade:	02 91 00 1b 6c 65    	add    0x656c1b00(%ecx),%dl
     ae4:	6e                   	outsb  %ds:(%esi),(%dx)
     ae5:	00 02                	add    %al,(%edx)
     ae7:	9c                   	pushf  
     ae8:	d2 00                	rolb   %cl,(%eax)
     aea:	00 00                	add    %al,(%eax)
     aec:	02 91 04 1a a3 05    	add    0x5a31a04(%ecx),%dl
     af2:	00 00                	add    %al,(%eax)
     af4:	02 9d 5b 00 00 00    	add    0x5b(%ebp),%bl
     afa:	02 91 70 1a 7a 07    	add    0x77a1a70(%ecx),%dl
     b00:	00 00                	add    %al,(%eax)
     b02:	02 9d d2 00 00 00    	add    0xd2(%ebp),%bl
     b08:	02 91 10 00 05 04    	add    0x4050010(%ecx),%dl
     b0e:	b3 04                	mov    $0x4,%bl
     b10:	00 00                	add    %al,(%eax)
     b12:	19 e0                	sbb    %esp,%eax
     b14:	06                   	push   %es
     b15:	00 00                	add    %al,(%eax)
     b17:	02 84 d2 00 00 00 05 	add    0x5000000(%edx,%edx,8),%al
     b1e:	34 30                	xor    $0x30,%al
     b20:	00 da                	add    %bl,%dl
     b22:	00 00                	add    %al,(%eax)
     b24:	00 01                	add    %al,(%ecx)
     b26:	9c                   	pushf  
     b27:	7c 07                	jl     b30 <mbh-0x2ff4d0>
     b29:	00 00                	add    %al,(%eax)
     b2b:	1b 62 75             	sbb    0x75(%edx),%esp
     b2e:	66 00 02             	data16 add %al,(%edx)
     b31:	84 fb                	test   %bh,%bl
     b33:	06                   	push   %es
     b34:	00 00                	add    %al,(%eax)
     b36:	02 91 00 1b 6c 65    	add    0x656c1b00(%ecx),%dl
     b3c:	6e                   	outsb  %ds:(%esi),(%dx)
     b3d:	00 02                	add    %al,(%edx)
     b3f:	84 d2                	test   %dl,%dl
     b41:	00 00                	add    %al,(%eax)
     b43:	00 02                	add    %al,(%edx)
     b45:	91                   	xchg   %eax,%ecx
     b46:	04 1a                	add    $0x1a,%al
     b48:	a3 05 00 00 02       	mov    %eax,0x2000005
     b4d:	85 5b 00             	test   %ebx,0x0(%ebx)
     b50:	00 00                	add    %al,(%eax)
     b52:	02 91 40 1a 7a 07    	add    0x77a1a40(%ecx),%dl
     b58:	00 00                	add    %al,(%eax)
     b5a:	02 85 d2 00 00 00    	add    0xd2(%ebp),%al
     b60:	02 91 10 1c 72 65    	add    0x65721c10(%ecx),%dl
     b66:	70 00                	jo     b68 <mbh-0x2ff498>
     b68:	02 87 f5 04 00 00    	add    0x4f5(%edi),%al
     b6e:	02 91 50 1c 73 7a    	add    0x7a731c50(%ecx),%dl
     b74:	00 02                	add    %al,(%edx)
     b76:	88 d2                	mov    %dl,%dl
     b78:	00 00                	add    %al,(%eax)
     b7a:	00 02                	add    %al,(%edx)
     b7c:	91                   	xchg   %eax,%ecx
     b7d:	60                   	pusha  
     b7e:	1c 72                	sbb    $0x72,%al
     b80:	73 7a                	jae    bfc <mbh-0x2ff404>
     b82:	00 02                	add    %al,(%edx)
     b84:	88 d2                	mov    %dl,%dl
     b86:	00 00                	add    %al,(%eax)
     b88:	00 02                	add    %al,(%edx)
     b8a:	91                   	xchg   %eax,%ecx
     b8b:	64 00 20             	add    %ah,%fs:(%eax)
     b8e:	46                   	inc    %esi
     b8f:	06                   	push   %es
     b90:	00 00                	add    %al,(%eax)
     b92:	02 6b 24             	add    0x24(%ebx),%ch
     b95:	33 30                	xor    (%eax),%esi
     b97:	00 e1                	add    %ah,%cl
     b99:	00 00                	add    %al,(%eax)
     b9b:	00 01                	add    %al,(%ecx)
     b9d:	9c                   	pushf  
     b9e:	da 07                	fiaddl (%edi)
     ba0:	00 00                	add    %al,(%eax)
     ba2:	1b 62 75             	sbb    0x75(%edx),%esp
     ba5:	66 00 02             	data16 add %al,(%edx)
     ba8:	6b fb 06             	imul   $0x6,%ebx,%edi
     bab:	00 00                	add    %al,(%eax)
     bad:	02 91 00 1b 6c 65    	add    0x656c1b00(%ecx),%dl
     bb3:	6e                   	outsb  %ds:(%esi),(%dx)
     bb4:	00 02                	add    %al,(%edx)
     bb6:	6b d2 00             	imul   $0x0,%edx,%edx
     bb9:	00 00                	add    %al,(%eax)
     bbb:	02 91 04 1a a3 05    	add    0x5a31a04(%ecx),%dl
     bc1:	00 00                	add    %al,(%eax)
     bc3:	02 6b 5b             	add    0x5b(%ebx),%ch
     bc6:	00 00                	add    %al,(%eax)
     bc8:	00 03                	add    %al,(%ebx)
     bca:	91                   	xchg   %eax,%ecx
     bcb:	a8 7f                	test   $0x7f,%al
     bcd:	1c 72                	sbb    $0x72,%al
     bcf:	65 70 00             	gs jo  bd2 <mbh-0x2ff42e>
     bd2:	02 6d da             	add    -0x26(%ebp),%ch
     bd5:	07                   	pop    %es
     bd6:	00 00                	add    %al,(%eax)
     bd8:	02 91 48 1c 64 65    	add    0x65641c48(%ecx),%dl
     bde:	63 00                	arpl   %ax,(%eax)
     be0:	02 6e b3             	add    -0x4d(%esi),%ch
     be3:	04 00                	add    $0x0,%al
     be5:	00 03                	add    %al,(%ebx)
     be7:	91                   	xchg   %eax,%ecx
     be8:	bc 7f 00 0f c6       	mov    $0xc60f007f,%esp
     bed:	00 00                	add    %al,(%eax)
     bef:	00 ea                	add    %ch,%dl
     bf1:	07                   	pop    %es
     bf2:	00 00                	add    %al,(%eax)
     bf4:	10 54 00 00          	adc    %dl,0x0(%eax,%eax,1)
     bf8:	00 17                	add    %dl,(%edi)
     bfa:	00 20                	add    %ah,(%eax)
     bfc:	72 06                	jb     c04 <mbh-0x2ff3fc>
     bfe:	00 00                	add    %al,(%eax)
     c00:	02 50 23             	add    0x23(%eax),%dl
     c03:	32 30                	xor    (%eax),%dh
     c05:	00 01                	add    %al,(%ecx)
     c07:	01 00                	add    %eax,(%eax)
     c09:	00 01                	add    %al,(%ecx)
     c0b:	9c                   	pushf  
     c0c:	48                   	dec    %eax
     c0d:	08 00                	or     %al,(%eax)
     c0f:	00 1b                	add    %bl,(%ebx)
     c11:	62 75 66             	bound  %esi,0x66(%ebp)
     c14:	00 02                	add    %al,(%edx)
     c16:	50                   	push   %eax
     c17:	fb                   	sti    
     c18:	06                   	push   %es
     c19:	00 00                	add    %al,(%eax)
     c1b:	02 91 00 1b 6c 65    	add    0x656c1b00(%ecx),%dl
     c21:	6e                   	outsb  %ds:(%esi),(%dx)
     c22:	00 02                	add    %al,(%edx)
     c24:	50                   	push   %eax
     c25:	d2 00                	rolb   %cl,(%eax)
     c27:	00 00                	add    %al,(%eax)
     c29:	02 91 04 1a a3 05    	add    0x5a31a04(%ecx),%dl
     c2f:	00 00                	add    %al,(%eax)
     c31:	02 50 a3             	add    -0x5d(%eax),%dl
     c34:	00 00                	add    %al,(%eax)
     c36:	00 03                	add    %al,(%ebx)
     c38:	91                   	xchg   %eax,%ecx
     c39:	a8 7f                	test   $0x7f,%al
     c3b:	1c 72                	sbb    $0x72,%al
     c3d:	65 70 00             	gs jo  c40 <mbh-0x2ff3c0>
     c40:	02 52 da             	add    -0x26(%edx),%dl
     c43:	07                   	pop    %es
     c44:	00 00                	add    %al,(%eax)
     c46:	02 91 48 1c 64 65    	add    0x65641c48(%ecx),%dl
     c4c:	63 00                	arpl   %ax,(%eax)
     c4e:	02 53 b3             	add    -0x4d(%ebx),%dl
     c51:	04 00                	add    $0x0,%al
     c53:	00 03                	add    %al,(%ebx)
     c55:	91                   	xchg   %eax,%ecx
     c56:	bc 7f 00 20 8b       	mov    $0x8b20007f,%esp
     c5b:	07                   	pop    %es
     c5c:	00 00                	add    %al,(%eax)
     c5e:	02 44 a8 31          	add    0x31(%eax,%ebp,4),%al
     c62:	30 00                	xor    %al,(%eax)
     c64:	7b 00                	jnp    c66 <mbh-0x2ff39a>
     c66:	00 00                	add    %al,(%eax)
     c68:	01 9c ae 08 00 00 1b 	add    %ebx,0x1b000008(%esi,%ebp,4)
     c6f:	62 75 66             	bound  %esi,0x66(%ebp)
     c72:	00 02                	add    %al,(%edx)
     c74:	44                   	inc    %esp
     c75:	fb                   	sti    
     c76:	06                   	push   %es
     c77:	00 00                	add    %al,(%eax)
     c79:	02 91 00 1b 6c 65    	add    0x656c1b00(%ecx),%dl
     c7f:	6e                   	outsb  %ds:(%esi),(%dx)
     c80:	00 02                	add    %al,(%edx)
     c82:	44                   	inc    %esp
     c83:	d2 00                	rolb   %cl,(%eax)
     c85:	00 00                	add    %al,(%eax)
     c87:	02 91 04 1a a3 05    	add    0x5a31a04(%ecx),%dl
     c8d:	00 00                	add    %al,(%eax)
     c8f:	02 45 5b             	add    0x5b(%ebp),%al
     c92:	00 00                	add    %al,(%eax)
     c94:	00 02                	add    %al,(%edx)
     c96:	91                   	xchg   %eax,%ecx
     c97:	58                   	pop    %eax
     c98:	1b 6e 00             	sbb    0x0(%esi),%ebp
     c9b:	02 45 49             	add    0x49(%ebp),%al
     c9e:	00 00                	add    %al,(%eax)
     ca0:	00 02                	add    %al,(%edx)
     ca2:	91                   	xchg   %eax,%ecx
     ca3:	10 1c 69             	adc    %bl,(%ecx,%ebp,2)
     ca6:	00 02                	add    %al,(%edx)
     ca8:	47                   	inc    %edi
     ca9:	49                   	dec    %ecx
     caa:	00 00                	add    %al,(%eax)
     cac:	00 02                	add    %al,(%edx)
     cae:	91                   	xchg   %eax,%ecx
     caf:	6c                   	insb   (%dx),%es:(%edi)
     cb0:	1c 62                	sbb    $0x62,%al
     cb2:	69 74 00 02 47 49 00 	imul   $0x4947,0x2(%eax,%eax,1),%esi
     cb9:	00 
     cba:	00 02                	add    %al,(%edx)
     cbc:	91                   	xchg   %eax,%ecx
     cbd:	68 00 20 9c 07       	push   $0x79c2000
     cc2:	00 00                	add    %al,(%eax)
     cc4:	02 3f                	add    (%edi),%bh
     cc6:	8d 31                	lea    (%ecx),%esi
     cc8:	30 00                	xor    %al,(%eax)
     cca:	1b 00                	sbb    (%eax),%eax
     ccc:	00 00                	add    %al,(%eax)
     cce:	01 9c ec 08 00 00 1b 	add    %ebx,0x1b000008(%esp,%ebp,8)
     cd5:	62 75 66             	bound  %esi,0x66(%ebp)
     cd8:	00 02                	add    %al,(%edx)
     cda:	3f                   	aas    
     cdb:	fb                   	sti    
     cdc:	06                   	push   %es
     cdd:	00 00                	add    %al,(%eax)
     cdf:	02 91 00 1b 6c 65    	add    0x656c1b00(%ecx),%dl
     ce5:	6e                   	outsb  %ds:(%esi),(%dx)
     ce6:	00 02                	add    %al,(%edx)
     ce8:	3f                   	aas    
     ce9:	d2 00                	rolb   %cl,(%eax)
     ceb:	00 00                	add    %al,(%eax)
     ced:	02 91 04 1b 63 00    	add    0x631b04(%ecx),%dl
     cf3:	02 3f                	add    (%edi),%bh
     cf5:	9c                   	pushf  
     cf6:	00 00                	add    %al,(%eax)
     cf8:	00 02                	add    %al,(%edx)
     cfa:	91                   	xchg   %eax,%ecx
     cfb:	08 00                	or     %al,(%eax)
     cfd:	20 f9                	and    %bh,%cl
     cff:	06                   	push   %es
     d00:	00 00                	add    %al,(%eax)
     d02:	02 39                	add    (%ecx),%bh
     d04:	5d                   	pop    %ebp
     d05:	31 30                	xor    %esi,(%eax)
     d07:	00 30                	add    %dh,(%eax)
     d09:	00 00                	add    %al,(%eax)
     d0b:	00 01                	add    %al,(%ecx)
     d0d:	9c                   	pushf  
     d0e:	2a 09                	sub    (%ecx),%cl
     d10:	00 00                	add    %al,(%eax)
     d12:	1b 62 75             	sbb    0x75(%edx),%esp
     d15:	66 00 02             	data16 add %al,(%edx)
     d18:	39 fb                	cmp    %edi,%ebx
     d1a:	06                   	push   %es
     d1b:	00 00                	add    %al,(%eax)
     d1d:	02 91 00 1b 6c 65    	add    0x656c1b00(%ecx),%dl
     d23:	6e                   	outsb  %ds:(%esi),(%dx)
     d24:	00 02                	add    %al,(%edx)
     d26:	39 d2                	cmp    %edx,%edx
     d28:	00 00                	add    %al,(%eax)
     d2a:	00 02                	add    %al,(%edx)
     d2c:	91                   	xchg   %eax,%ecx
     d2d:	04 1b                	add    $0x1b,%al
     d2f:	73 00                	jae    d31 <mbh-0x2ff2cf>
     d31:	02 39                	add    (%ecx),%bh
     d33:	c0 00 00             	rolb   $0x0,(%eax)
     d36:	00 02                	add    %al,(%edx)
     d38:	91                   	xchg   %eax,%ecx
     d39:	08 00                	or     %al,(%eax)
     d3b:	19 57 07             	sbb    %edx,0x7(%edi)
     d3e:	00 00                	add    %al,(%eax)
     d40:	02 30                	add    (%eax),%dh
     d42:	d2 00                	rolb   %cl,(%eax)
     d44:	00 00                	add    %al,(%eax)
     d46:	20 31                	and    %dh,(%ecx)
     d48:	30 00                	xor    %al,(%eax)
     d4a:	3d 00 00 00 01       	cmp    $0x1000000,%eax
     d4f:	9c                   	pushf  
     d50:	6e                   	outsb  %ds:(%esi),(%dx)
     d51:	09 00                	or     %eax,(%eax)
     d53:	00 1a                	add    %bl,(%edx)
     d55:	50                   	push   %eax
     d56:	07                   	pop    %es
     d57:	00 00                	add    %al,(%eax)
     d59:	02 30                	add    (%eax),%dh
     d5b:	a7                   	cmpsl  %es:(%edi),%ds:(%esi)
     d5c:	06                   	push   %es
     d5d:	00 00                	add    %al,(%eax)
     d5f:	02 91 00 1a 73 07    	add    0x7731a00(%ecx),%dl
     d65:	00 00                	add    %al,(%eax)
     d67:	02 30                	add    (%eax),%dh
     d69:	be 04 00 00 02       	mov    $0x2000004,%esi
     d6e:	91                   	xchg   %eax,%ecx
     d6f:	04 18                	add    $0x18,%al
     d71:	3f                   	aas    
     d72:	06                   	push   %es
     d73:	00 00                	add    %al,(%eax)
     d75:	02 32                	add    (%edx),%dh
     d77:	d2 00                	rolb   %cl,(%eax)
     d79:	00 00                	add    %al,(%eax)
     d7b:	02 91 6c 00 19 5b    	add    0x5b19006c(%ecx),%dl
     d81:	06                   	push   %es
     d82:	00 00                	add    %al,(%eax)
     d84:	02 24 d2             	add    (%edx,%edx,8),%ah
     d87:	00 00                	add    %al,(%eax)
     d89:	00 f7                	add    %dh,%bh
     d8b:	30 30                	xor    %dh,(%eax)
     d8d:	00 29                	add    %ch,(%ecx)
     d8f:	00 00                	add    %al,(%eax)
     d91:	00 01                	add    %al,(%ecx)
     d93:	9c                   	pushf  
     d94:	cf                   	iret   
     d95:	09 00                	or     %eax,(%eax)
     d97:	00 1a                	add    %bl,(%edx)
     d99:	fa                   	cli    
     d9a:	05 00 00 02 24       	add    $0x24020000,%eax
     d9f:	c0 00 00             	rolb   $0x0,(%eax)
     da2:	00 02                	add    %al,(%edx)
     da4:	91                   	xchg   %eax,%ecx
     da5:	00 1b                	add    %bl,(%ebx)
     da7:	6c                   	insb   (%dx),%es:(%edi)
     da8:	65 6e                	outsb  %gs:(%esi),(%dx)
     daa:	00 02                	add    %al,(%edx)
     dac:	24 d2                	and    $0xd2,%al
     dae:	00 00                	add    %al,(%eax)
     db0:	00 02                	add    %al,(%edx)
     db2:	91                   	xchg   %eax,%ecx
     db3:	04 1a                	add    $0x1a,%al
     db5:	50                   	push   %eax
     db6:	07                   	pop    %es
     db7:	00 00                	add    %al,(%eax)
     db9:	02 24 a7             	add    (%edi,%eiz,4),%ah
     dbc:	06                   	push   %es
     dbd:	00 00                	add    %al,(%eax)
     dbf:	02 91 08 21 18 73    	add    0x73182108(%ecx),%dl
     dc5:	07                   	pop    %es
     dc6:	00 00                	add    %al,(%eax)
     dc8:	02 26                	add    (%esi),%ah
     dca:	be 04 00 00 02       	mov    $0x2000004,%esi
     dcf:	91                   	xchg   %eax,%ecx
     dd0:	68 18 3f 06 00       	push   $0x63f18
     dd5:	00 02                	add    %al,(%edx)
     dd7:	27                   	daa    
     dd8:	d2 00                	rolb   %cl,(%eax)
     dda:	00 00                	add    %al,(%eax)
     ddc:	02 91 6c 00 19 5d    	add    0x5d19006c(%ecx),%dl
     de2:	06                   	push   %es
     de3:	00 00                	add    %al,(%eax)
     de5:	02 18                	add    (%eax),%bl
     de7:	d2 00                	rolb   %cl,(%eax)
     de9:	00 00                	add    %al,(%eax)
     deb:	d1 30                	shll   (%eax)
     ded:	30 00                	xor    %al,(%eax)
     def:	26 00 00             	add    %al,%es:(%eax)
     df2:	00 01                	add    %al,(%ecx)
     df4:	9c                   	pushf  
     df5:	14 0a                	adc    $0xa,%al
     df7:	00 00                	add    %al,(%eax)
     df9:	1a 50 07             	sbb    0x7(%eax),%dl
     dfc:	00 00                	add    %al,(%eax)
     dfe:	02 18                	add    (%eax),%bl
     e00:	a7                   	cmpsl  %es:(%edi),%ds:(%esi)
     e01:	06                   	push   %es
     e02:	00 00                	add    %al,(%eax)
     e04:	02 91 00 21 18 73    	add    0x73182100(%ecx),%dl
     e0a:	07                   	pop    %es
     e0b:	00 00                	add    %al,(%eax)
     e0d:	02 1a                	add    (%edx),%bl
     e0f:	be 04 00 00 02       	mov    $0x2000004,%esi
     e14:	91                   	xchg   %eax,%ecx
     e15:	68 18 3f 06 00       	push   $0x63f18
     e1a:	00 02                	add    %al,(%edx)
     e1c:	1b d2                	sbb    %edx,%edx
     e1e:	00 00                	add    %al,(%eax)
     e20:	00 02                	add    %al,(%edx)
     e22:	91                   	xchg   %eax,%ecx
     e23:	6c                   	insb   (%dx),%es:(%edi)
     e24:	00 22                	add    %ah,(%edx)
     e26:	0e                   	push   %cs
     e27:	06                   	push   %es
     e28:	00 00                	add    %al,(%eax)
     e2a:	02 09                	add    (%ecx),%cl
     e2c:	a9 30 30 00 28       	test   $0x28003030,%eax
     e31:	00 00                	add    %al,(%eax)
     e33:	00 01                	add    %al,(%ecx)
     e35:	9c                   	pushf  
     e36:	47                   	inc    %edi
     e37:	0a 00                	or     (%eax),%al
     e39:	00 1a                	add    %bl,(%edx)
     e3b:	50                   	push   %eax
     e3c:	07                   	pop    %es
     e3d:	00 00                	add    %al,(%eax)
     e3f:	02 09                	add    (%ecx),%cl
     e41:	a7                   	cmpsl  %es:(%edi),%ds:(%esi)
     e42:	06                   	push   %es
     e43:	00 00                	add    %al,(%eax)
     e45:	02 91 00 21 18 73    	add    0x73182100(%ecx),%dl
     e4b:	07                   	pop    %es
     e4c:	00 00                	add    %al,(%eax)
     e4e:	02 0b                	add    (%ebx),%cl
     e50:	be 04 00 00 02       	mov    $0x2000004,%esi
     e55:	91                   	xchg   %eax,%ecx
     e56:	6c                   	insb   (%dx),%es:(%edi)
     e57:	00 23                	add    %ah,(%ebx)
     e59:	c4 06                	les    (%esi),%eax
     e5b:	00 00                	add    %al,(%eax)
     e5d:	01 7a 6d             	add    %edi,0x6d(%edx)
     e60:	30 30                	xor    %dh,(%eax)
     e62:	00 3c 00             	add    %bh,(%eax,%eax,1)
     e65:	00 00                	add    %al,(%eax)
     e67:	01 9c 1b 62 75 66 00 	add    %ebx,0x667562(%ebx,%ebx,1)
     e6e:	01 7a fb             	add    %edi,-0x5(%edx)
     e71:	06                   	push   %es
     e72:	00 00                	add    %al,(%eax)
     e74:	02 91 00 1b 6c 65    	add    0x656c1b00(%ecx),%dl
     e7a:	6e                   	outsb  %ds:(%esi),(%dx)
     e7b:	00 01                	add    %al,(%ecx)
     e7d:	7a d2                	jp     e51 <mbh-0x2ff1af>
     e7f:	00 00                	add    %al,(%eax)
     e81:	00 02                	add    %al,(%edx)
     e83:	91                   	xchg   %eax,%ecx
     e84:	04 1b                	add    $0x1b,%al
     e86:	63 00                	arpl   %ax,(%eax)
     e88:	01 7a c6             	add    %edi,-0x3a(%edx)
     e8b:	00 00                	add    %al,(%eax)
     e8d:	00 02                	add    %al,(%edx)
     e8f:	91                   	xchg   %eax,%ecx
     e90:	70 00                	jo     e92 <mbh-0x2ff16e>
     e92:	00 25 09 00 00 04    	add    %ah,0x4000009
     e98:	00 06                	add    %al,(%esi)
     e9a:	03 00                	add    (%eax),%eax
     e9c:	00 04 01             	add    %al,(%ecx,%eax,1)
     e9f:	2d 01 00 00 0c       	sub    $0xc000001,%eax
     ea4:	81 08 00 00 17 00    	orl    $0x170000,(%eax)
     eaa:	00 00                	add    %al,(%eax)
     eac:	10 39                	adc    %bh,(%ecx)
     eae:	30 00                	xor    %al,(%eax)
     eb0:	a2 02 00 00 a6       	mov    %al,0xa6000002
     eb5:	02 00                	add    (%eax),%al
     eb7:	00 02                	add    %al,(%edx)
     eb9:	62 05 00 00 02 1a    	bound  %eax,0x1a020000
     ebf:	30 00                	xor    %al,(%eax)
     ec1:	00 00                	add    %al,(%eax)
     ec3:	03 01                	add    (%ecx),%eax
     ec5:	08 51 03             	or     %dl,0x3(%ecx)
     ec8:	00 00                	add    %al,(%eax)
     eca:	02 b7 00 00 00 02    	add    0x2000000(%edi),%dh
     ed0:	1b 42 00             	sbb    0x0(%edx),%eax
     ed3:	00 00                	add    %al,(%eax)
     ed5:	03 02                	add    (%edx),%eax
     ed7:	07                   	pop    %es
     ed8:	f3 03 00             	repz add (%eax),%eax
     edb:	00 02                	add    %al,(%edx)
     edd:	9a 00 00 00 02 1c 54 	lcall  $0x541c,$0x2000000
     ee4:	00 00                	add    %al,(%eax)
     ee6:	00 03                	add    %al,(%ebx)
     ee8:	04 07                	add    $0x7,%al
     eea:	95                   	xchg   %eax,%ebp
     eeb:	03 00                	add    (%eax),%eax
     eed:	00 02                	add    %al,(%edx)
     eef:	10 04 00             	adc    %al,(%eax,%eax,1)
     ef2:	00 02                	add    %al,(%edx)
     ef4:	1d 66 00 00 00       	sbb    $0x66,%eax
     ef9:	03 08                	add    (%eax),%ecx
     efb:	07                   	pop    %es
     efc:	8b 03                	mov    (%ebx),%eax
     efe:	00 00                	add    %al,(%eax)
     f00:	03 01                	add    (%ecx),%eax
     f02:	06                   	push   %es
     f03:	53                   	push   %ebx
     f04:	03 00                	add    (%eax),%eax
     f06:	00 02                	add    %al,(%edx)
     f08:	0a 07                	or     (%edi),%al
     f0a:	00 00                	add    %al,(%eax)
     f0c:	02 20                	add    (%eax),%ah
     f0e:	7f 00                	jg     f10 <mbh-0x2ff0f0>
     f10:	00 00                	add    %al,(%eax)
     f12:	03 02                	add    (%edx),%eax
     f14:	05 a3 00 00 00       	add    $0xa3,%eax
     f19:	02 b0 05 00 00 02    	add    0x2000005(%eax),%dh
     f1f:	21 91 00 00 00 04    	and    %edx,0x4000000(%ecx)
     f25:	04 05                	add    $0x5,%al
     f27:	69 6e 74 00 02 89 06 	imul   $0x6890200,0x74(%esi),%ebp
     f2e:	00 00                	add    %al,(%eax)
     f30:	02 22                	add    (%edx),%ah
     f32:	a3 00 00 00 03       	mov    %eax,0x3000000
     f37:	08 05 d8 02 00 00    	or     %al,0x2d8
     f3d:	02 b9 05 00 00 02    	add    0x2000005(%ecx),%bh
     f43:	24 b5                	and    $0xb5,%al
     f45:	00 00                	add    %al,(%eax)
     f47:	00 05 04 bb 00 00    	add    %al,0xbb04
     f4d:	00 03                	add    %al,(%ebx)
     f4f:	01 06                	add    %eax,(%esi)
     f51:	5a                   	pop    %edx
     f52:	03 00                	add    (%eax),%eax
     f54:	00 02                	add    %al,(%edx)
     f56:	a9 05 00 00 02       	test   $0x2000005,%eax
     f5b:	25 cd 00 00 00       	and    $0xcd,%eax
     f60:	03 04 07             	add    (%edi,%eax,1),%eax
     f63:	90                   	nop
     f64:	03 00                	add    (%eax),%eax
     f66:	00 02                	add    %al,(%edx)
     f68:	6a 07                	push   $0x7
     f6a:	00 00                	add    %al,(%eax)
     f6c:	02 26                	add    (%esi),%ah
     f6e:	cd 00                	int    $0x0
     f70:	00 00                	add    %al,(%eax)
     f72:	06                   	push   %es
     f73:	02 02                	add    (%edx),%al
     f75:	4c                   	dec    %esp
     f76:	00 01                	add    %al,(%ecx)
     f78:	00 00                	add    %al,(%eax)
     f7a:	07                   	pop    %es
     f7b:	9e                   	sahf   
     f7c:	05 00 00 02 4e       	add    $0x4e020000,%eax
     f81:	25 00 00 00 00       	and    $0x0,%eax
     f86:	07                   	pop    %es
     f87:	92                   	xchg   %eax,%edx
     f88:	06                   	push   %es
     f89:	00 00                	add    %al,(%eax)
     f8b:	02 4f 25             	add    0x25(%edi),%cl
     f8e:	00 00                	add    %al,(%eax)
     f90:	00 01                	add    %al,(%ecx)
     f92:	00 08                	add    %cl,(%eax)
     f94:	d8 05 00 00 02 02    	fadds  0x2020000
     f9a:	45                   	inc    %ebp
     f9b:	33 01                	xor    (%ecx),%eax
     f9d:	00 00                	add    %al,(%eax)
     f9f:	09 72 61             	or     %esi,0x61(%edx)
     fa2:	77 00                	ja     fa4 <mbh-0x2ff05c>
     fa4:	02 47 37             	add    0x37(%edi),%al
     fa7:	00 00                	add    %al,(%eax)
     fa9:	00 0a                	add    %cl,(%edx)
     fab:	f4                   	hlt    
     fac:	06                   	push   %es
     fad:	00 00                	add    %al,(%eax)
     faf:	02 48 74             	add    0x74(%eax),%cl
     fb2:	00 00                	add    %al,(%eax)
     fb4:	00 0a                	add    %cl,(%edx)
     fb6:	64 06                	fs push %es
     fb8:	00 00                	add    %al,(%eax)
     fba:	02 49 33             	add    0x33(%ecx),%cl
     fbd:	01 00                	add    %eax,(%eax)
     fbf:	00 0b                	add    %cl,(%ebx)
     fc1:	df 00                	filds  (%eax)
     fc3:	00 00                	add    %al,(%eax)
     fc5:	00 0c 25 00 00 00 43 	add    %cl,0x43000000(,%eiz,1)
     fcc:	01 00                	add    %eax,(%eax)
     fce:	00 0d 54 00 00 00    	add    %cl,0x54
     fd4:	01 00                	add    %eax,(%eax)
     fd6:	02 06                	add    (%esi),%al
     fd8:	06                   	push   %es
     fd9:	00 00                	add    %al,(%eax)
     fdb:	02 53 00             	add    0x0(%ebx),%dl
     fde:	01 00                	add    %eax,(%eax)
     fe0:	00 06                	add    %al,(%esi)
     fe2:	04 02                	add    $0x2,%al
     fe4:	5f                   	pop    %edi
     fe5:	6f                   	outsl  %ds:(%esi),(%dx)
     fe6:	01 00                	add    %eax,(%eax)
     fe8:	00 07                	add    %al,(%edi)
     fea:	98                   	cwtl   
     feb:	06                   	push   %es
     fec:	00 00                	add    %al,(%eax)
     fee:	02 61 43             	add    0x43(%ecx),%ah
     ff1:	01 00                	add    %eax,(%eax)
     ff3:	00 00                	add    %al,(%eax)
     ff5:	07                   	pop    %es
     ff6:	b6 07                	mov    $0x7,%dh
     ff8:	00 00                	add    %al,(%eax)
     ffa:	02 62 43             	add    0x43(%edx),%ah
     ffd:	01 00                	add    %eax,(%eax)
     fff:	00 02                	add    %al,(%edx)
    1001:	00 06                	add    %al,(%esi)
    1003:	02 02                	add    (%edx),%al
    1005:	6b 90 01 00 00 07 9e 	imul   $0xffffff9e,0x7000001(%eax),%edx
    100c:	05 00 00 02 6d       	add    $0x6d020000,%eax
    1011:	25 00 00 00 00       	and    $0x0,%eax
    1016:	07                   	pop    %es
    1017:	92                   	xchg   %eax,%edx
    1018:	06                   	push   %es
    1019:	00 00                	add    %al,(%eax)
    101b:	02 6e 25             	add    0x25(%esi),%ch
    101e:	00 00                	add    %al,(%eax)
    1020:	00 01                	add    %al,(%ecx)
    1022:	00 0e                	add    %cl,(%esi)
    1024:	02 02                	add    (%edx),%al
    1026:	69 a9 01 00 00 0b 6f 	imul   $0x16f,0xb000001(%ecx),%ebp
    102d:	01 00 00 
    1030:	0a 99 06 00 00 02    	or     0x2000006(%ecx),%bl
    1036:	72 37                	jb     106f <mbh-0x2fef91>
    1038:	00 00                	add    %al,(%eax)
    103a:	00 00                	add    %al,(%eax)
    103c:	06                   	push   %es
    103d:	04 02                	add    $0x2,%al
    103f:	67 c4 01             	les    (%bx,%di),%eax
    1042:	00 00                	add    %al,(%eax)
    1044:	0f 90 01             	seto   (%ecx)
    1047:	00 00                	add    %al,(%eax)
    1049:	00 07                	add    %al,(%edi)
    104b:	b7 07                	mov    $0x7,%bh
    104d:	00 00                	add    %al,(%eax)
    104f:	02 76 37             	add    0x37(%esi),%dh
    1052:	00 00                	add    %al,(%eax)
    1054:	00 02                	add    %al,(%edx)
    1056:	00 08                	add    %cl,(%eax)
    1058:	ce                   	into   
    1059:	06                   	push   %es
    105a:	00 00                	add    %al,(%eax)
    105c:	04 02                	add    $0x2,%al
    105e:	58                   	pop    %eax
    105f:	fc                   	cld    
    1060:	01 00                	add    %eax,(%eax)
    1062:	00 09                	add    %cl,(%ecx)
    1064:	72 61                	jb     10c7 <mbh-0x2fef39>
    1066:	77 00                	ja     1068 <mbh-0x2fef98>
    1068:	02 5a 49             	add    0x49(%edx),%bl
    106b:	00 00                	add    %al,(%eax)
    106d:	00 0a                	add    %cl,(%edx)
    106f:	f4                   	hlt    
    1070:	06                   	push   %es
    1071:	00 00                	add    %al,(%eax)
    1073:	02 5b 86             	add    -0x7a(%ebx),%bl
    1076:	00 00                	add    %al,(%eax)
    1078:	00 0a                	add    %cl,(%edx)
    107a:	64 06                	fs push %es
    107c:	00 00                	add    %al,(%eax)
    107e:	02 5c fc 01          	add    0x1(%esp,%edi,8),%bl
    1082:	00 00                	add    %al,(%eax)
    1084:	0b 4e 01             	or     0x1(%esi),%ecx
    1087:	00 00                	add    %al,(%eax)
    1089:	0b a9 01 00 00 00    	or     0x1(%ecx),%ebp
    108f:	0c 25                	or     $0x25,%al
    1091:	00 00                	add    %al,(%eax)
    1093:	00 0c 02             	add    %cl,(%edx,%eax,1)
    1096:	00 00                	add    %al,(%eax)
    1098:	0d 54 00 00 00       	or     $0x54,%eax
    109d:	03 00                	add    (%eax),%eax
    109f:	02 38                	add    (%eax),%bh
    10a1:	07                   	pop    %es
    10a2:	00 00                	add    %al,(%eax)
    10a4:	02 7a c4             	add    -0x3c(%edx),%bh
    10a7:	01 00                	add    %eax,(%eax)
    10a9:	00 06                	add    %al,(%esi)
    10ab:	08 02                	or     %al,(%edx)
    10ad:	86 38                	xchg   %bh,(%eax)
    10af:	02 00                	add    (%eax),%al
    10b1:	00 07                	add    %al,(%edi)
    10b3:	84 06                	test   %al,(%esi)
    10b5:	00 00                	add    %al,(%eax)
    10b7:	02 88 0c 02 00 00    	add    0x20c(%eax),%cl
    10bd:	00 07                	add    %al,(%edi)
    10bf:	ee                   	out    %al,(%dx)
    10c0:	06                   	push   %es
    10c1:	00 00                	add    %al,(%eax)
    10c3:	02 89 0c 02 00 00    	add    0x20c(%ecx),%cl
    10c9:	04 00                	add    $0x0,%al
    10cb:	06                   	push   %es
    10cc:	02 02                	add    (%edx),%al
    10ce:	96                   	xchg   %eax,%esi
    10cf:	59                   	pop    %ecx
    10d0:	02 00                	add    (%eax),%al
    10d2:	00 07                	add    %al,(%edi)
    10d4:	9e                   	sahf   
    10d5:	05 00 00 02 98       	add    $0x98020000,%eax
    10da:	25 00 00 00 00       	and    $0x0,%eax
    10df:	07                   	pop    %es
    10e0:	92                   	xchg   %eax,%edx
    10e1:	06                   	push   %es
    10e2:	00 00                	add    %al,(%eax)
    10e4:	02 99 25 00 00 00    	add    0x25(%ecx),%bl
    10ea:	01 00                	add    %eax,(%eax)
    10ec:	0e                   	push   %cs
    10ed:	02 02                	add    (%edx),%al
    10ef:	94                   	xchg   %eax,%esp
    10f0:	72 02                	jb     10f4 <mbh-0x2fef0c>
    10f2:	00 00                	add    %al,(%eax)
    10f4:	0b 38                	or     (%eax),%edi
    10f6:	02 00                	add    (%eax),%al
    10f8:	00 0a                	add    %cl,(%edx)
    10fa:	99                   	cltd   
    10fb:	06                   	push   %es
    10fc:	00 00                	add    %al,(%eax)
    10fe:	02 9d 37 00 00 00    	add    0x37(%ebp),%bl
    1104:	00 06                	add    %al,(%esi)
    1106:	04 02                	add    $0x2,%al
    1108:	92                   	xchg   %eax,%edx
    1109:	8d 02                	lea    (%edx),%eax
    110b:	00 00                	add    %al,(%eax)
    110d:	0f 59 02             	mulps  (%edx),%xmm0
    1110:	00 00                	add    %al,(%eax)
    1112:	00 07                	add    %al,(%edi)
    1114:	b7 07                	mov    $0x7,%bh
    1116:	00 00                	add    %al,(%eax)
    1118:	02 a1 37 00 00 00    	add    0x37(%ecx),%ah
    111e:	02 00                	add    (%eax),%al
    1120:	0e                   	push   %cs
    1121:	04 02                	add    $0x2,%al
    1123:	90                   	nop
    1124:	a6                   	cmpsb  %es:(%edi),%ds:(%esi)
    1125:	02 00                	add    (%eax),%al
    1127:	00 0b                	add    %cl,(%ebx)
    1129:	72 02                	jb     112d <mbh-0x2feed3>
    112b:	00 00                	add    %al,(%eax)
    112d:	09 6c 6f 77          	or     %ebp,0x77(%edi,%ebp,2)
    1131:	00 02                	add    %al,(%edx)
    1133:	a5                   	movsl  %ds:(%esi),%es:(%edi)
    1134:	49                   	dec    %ecx
    1135:	00 00                	add    %al,(%eax)
    1137:	00 00                	add    %al,(%eax)
    1139:	06                   	push   %es
    113a:	08 02                	or     %al,(%edx)
    113c:	8e c1                	mov    %ecx,%es
    113e:	02 00                	add    (%eax),%al
    1140:	00 0f                	add    %cl,(%edi)
    1142:	8d 02                	lea    (%edx),%eax
    1144:	00 00                	add    %al,(%eax)
    1146:	00 07                	add    %al,(%edi)
    1148:	ef                   	out    %eax,(%dx)
    1149:	06                   	push   %es
    114a:	00 00                	add    %al,(%eax)
    114c:	02 a9 49 00 00 00    	add    0x49(%ecx),%ch
    1152:	04 00                	add    $0x0,%al
    1154:	08 2d 06 00 00 08    	or     %ch,0x8000006
    115a:	02 7f f9             	add    -0x7(%edi),%bh
    115d:	02 00                	add    (%eax),%al
    115f:	00 09                	add    %cl,(%ecx)
    1161:	72 61                	jb     11c4 <mbh-0x2fee3c>
    1163:	77 00                	ja     1165 <mbh-0x2fee9b>
    1165:	02 81 5b 00 00 00    	add    0x5b(%ecx),%al
    116b:	0a f4                	or     %ah,%dh
    116d:	06                   	push   %es
    116e:	00 00                	add    %al,(%eax)
    1170:	02 82 98 00 00 00    	add    0x98(%edx),%al
    1176:	0a 64 06 00          	or     0x0(%esi,%eax,1),%ah
    117a:	00 02                	add    %al,(%edx)
    117c:	83 f9 02             	cmp    $0x2,%ecx
    117f:	00 00                	add    %al,(%eax)
    1181:	0b 17                	or     (%edi),%edx
    1183:	02 00                	add    (%eax),%al
    1185:	00 0b                	add    %cl,(%ebx)
    1187:	a6                   	cmpsb  %es:(%edi),%ds:(%esi)
    1188:	02 00                	add    (%eax),%al
    118a:	00 00                	add    %al,(%eax)
    118c:	0c 25                	or     $0x25,%al
    118e:	00 00                	add    %al,(%eax)
    1190:	00 09                	add    %cl,(%ecx)
    1192:	03 00                	add    (%eax),%eax
    1194:	00 0d 54 00 00 00    	add    %cl,0x54
    119a:	07                   	pop    %es
    119b:	00 02                	add    %al,(%edx)
    119d:	cb                   	lret   
    119e:	07                   	pop    %es
    119f:	00 00                	add    %al,(%eax)
    11a1:	02 ad c1 02 00 00    	add    0x2c1(%ebp),%ch
    11a7:	10 ba 06 00 00 04    	adc    %bh,0x4000006(%edx)
    11ad:	02 b9 39 03 00 00    	add    0x339(%ecx),%bh
    11b3:	07                   	pop    %es
    11b4:	84 07                	test   %al,(%edi)
    11b6:	00 00                	add    %al,(%eax)
    11b8:	02 bb 37 00 00 00    	add    0x37(%ebx),%bh
    11be:	00 07                	add    %al,(%edi)
    11c0:	88 0a                	mov    %cl,(%edx)
    11c2:	00 00                	add    %al,(%eax)
    11c4:	02 bc 37 00 00 00 02 	add    0x2000000(%edi,%esi,1),%bh
    11cb:	00 02                	add    %al,(%edx)
    11cd:	ad                   	lods   %ds:(%esi),%eax
    11ce:	07                   	pop    %es
    11cf:	00 00                	add    %al,(%eax)
    11d1:	02 be 14 03 00 00    	add    0x314(%esi),%bh
    11d7:	10 40 07             	adc    %al,0x7(%eax)
    11da:	00 00                	add    %al,(%eax)
    11dc:	06                   	push   %es
    11dd:	02 c0                	add    %al,%al
    11df:	69 03 00 00 07 84    	imul   $0x84070000,(%ebx),%eax
    11e5:	07                   	pop    %es
    11e6:	00 00                	add    %al,(%eax)
    11e8:	02 c2                	add    %dl,%al
    11ea:	49                   	dec    %ecx
    11eb:	00 00                	add    %al,(%eax)
    11ed:	00 00                	add    %al,(%eax)
    11ef:	07                   	pop    %es
    11f0:	88 0a                	mov    %cl,(%edx)
    11f2:	00 00                	add    %al,(%eax)
    11f4:	02 c3                	add    %bl,%al
    11f6:	37                   	aaa    
    11f7:	00 00                	add    %al,(%eax)
    11f9:	00 04 00             	add    %al,(%eax,%eax,1)
    11fc:	02 ea                	add    %dl,%ch
    11fe:	05 00 00 02 c5       	add    $0xc5020000,%eax
    1203:	44                   	inc    %esp
    1204:	03 00                	add    (%eax),%eax
    1206:	00 10                	add    %dl,(%eax)
    1208:	ce                   	into   
    1209:	05 00 00 0a 02       	add    $0x20a0000,%eax
    120e:	c7                   	(bad)  
    120f:	99                   	cltd   
    1210:	03 00                	add    (%eax),%eax
    1212:	00 07                	add    %al,(%edi)
    1214:	84 07                	test   %al,(%edi)
    1216:	00 00                	add    %al,(%eax)
    1218:	02 c9                	add    %cl,%cl
    121a:	5b                   	pop    %ebx
    121b:	00 00                	add    %al,(%eax)
    121d:	00 00                	add    %al,(%eax)
    121f:	07                   	pop    %es
    1220:	88 0a                	mov    %cl,(%edx)
    1222:	00 00                	add    %al,(%eax)
    1224:	02 ca                	add    %dl,%cl
    1226:	37                   	aaa    
    1227:	00 00                	add    %al,(%eax)
    1229:	00 08                	add    %cl,(%eax)
    122b:	00 02                	add    %al,(%edx)
    122d:	2f                   	das    
    122e:	07                   	pop    %es
    122f:	00 00                	add    %al,(%eax)
    1231:	02 cc                	add    %ah,%cl
    1233:	74 03                	je     1238 <mbh-0x2fedc8>
    1235:	00 00                	add    %al,(%eax)
    1237:	08 61 07             	or     %ah,0x7(%ecx)
    123a:	00 00                	add    %al,(%eax)
    123c:	08 02                	or     %al,(%edx)
    123e:	d1 23                	shll   (%ebx)
    1240:	04 00                	add    $0x0,%al
    1242:	00 0a                	add    %cl,(%edx)
    1244:	f3 05 00 00 02 d3    	repz add $0xd3020000,%eax
    124a:	d4 00                	aam    $0x0
    124c:	00 00                	add    %al,(%eax)
    124e:	0a 99 05 00 00 02    	or     0x2000005(%ecx),%bl
    1254:	d5 23                	aad    $0x23
    1256:	04 00                	add    $0x0,%al
    1258:	00 09                	add    %cl,(%ecx)
    125a:	75 38                	jne    1294 <mbh-0x2fed6c>
    125c:	00 02                	add    %al,(%edx)
    125e:	d6                   	(bad)  
    125f:	25 04 00 00 09       	and    $0x9000004,%eax
    1264:	75 31                	jne    1297 <mbh-0x2fed69>
    1266:	36 00 02             	add    %al,%ss:(%edx)
    1269:	d7                   	xlat   %ds:(%ebx)
    126a:	2b 04 00             	sub    (%eax,%eax,1),%eax
    126d:	00 09                	add    %cl,(%ecx)
    126f:	75 33                	jne    12a4 <mbh-0x2fed5c>
    1271:	32 00                	xor    (%eax),%al
    1273:	02 d8                	add    %al,%bl
    1275:	31 04 00             	xor    %eax,(%eax,%eax,1)
    1278:	00 09                	add    %cl,(%ecx)
    127a:	75 36                	jne    12b2 <mbh-0x2fed4e>
    127c:	34 00                	xor    $0x0,%al
    127e:	02 d9                	add    %cl,%bl
    1280:	37                   	aaa    
    1281:	04 00                	add    $0x0,%al
    1283:	00 09                	add    %cl,(%ecx)
    1285:	73 74                	jae    12fb <mbh-0x2fed05>
    1287:	72 00                	jb     1289 <mbh-0x2fed77>
    1289:	02 db                	add    %bl,%bl
    128b:	aa                   	stos   %al,%es:(%edi)
    128c:	00 00                	add    %al,(%eax)
    128e:	00 09                	add    %cl,(%ecx)
    1290:	66 31 36             	xor    %si,(%esi)
    1293:	00 02                	add    %al,(%edx)
    1295:	dd 3d 04 00 00 09    	fnstsw 0x9000004
    129b:	66 33 32             	xor    (%edx),%si
    129e:	00 02                	add    %al,(%edx)
    12a0:	de 43 04             	fiadds 0x4(%ebx)
    12a3:	00 00                	add    %al,(%eax)
    12a5:	09 66 36             	or     %esp,0x36(%esi)
    12a8:	34 00                	xor    $0x0,%al
    12aa:	02 df                	add    %bh,%bl
    12ac:	49                   	dec    %ecx
    12ad:	04 00                	add    $0x0,%al
    12af:	00 0b                	add    %cl,(%ebx)
    12b1:	09 03                	or     %eax,(%ebx)
    12b3:	00 00                	add    %al,(%eax)
    12b5:	00 11                	add    %dl,(%ecx)
    12b7:	04 05                	add    $0x5,%al
    12b9:	04 25                	add    $0x25,%al
    12bb:	00 00                	add    %al,(%eax)
    12bd:	00 05 04 37 00 00    	add    %al,0x3704
    12c3:	00 05 04 49 00 00    	add    %al,0x4904
    12c9:	00 05 04 5b 00 00    	add    %al,0x5b04
    12cf:	00 05 04 39 03 00    	add    %al,0x33904
    12d5:	00 05 04 69 03 00    	add    %al,0x36904
    12db:	00 05 04 99 03 00    	add    %al,0x39904
    12e1:	00 02                	add    %al,(%edx)
    12e3:	c5 07                	lds    (%edi),%eax
    12e5:	00 00                	add    %al,(%eax)
    12e7:	02 e3                	add    %bl,%ah
    12e9:	a4                   	movsb  %ds:(%esi),%es:(%edi)
    12ea:	03 00                	add    (%eax),%eax
    12ec:	00 10                	add    %dl,(%eax)
    12ee:	c7 05 00 00 0c 02 e8 	movl   $0x47ee8,0x20c0000
    12f5:	7e 04 00 
    12f8:	00 07                	add    %al,(%edi)
    12fa:	9e                   	sahf   
    12fb:	06                   	push   %es
    12fc:	00 00                	add    %al,(%eax)
    12fe:	02 ea                	add    %dl,%ch
    1300:	4f                   	dec    %edi
    1301:	04 00                	add    $0x0,%al
    1303:	00 00                	add    %al,(%eax)
    1305:	12 73 7a             	adc    0x7a(%ebx),%dh
    1308:	00 02                	add    %al,(%edx)
    130a:	eb c2                	jmp    12ce <mbh-0x2fed32>
    130c:	00 00                	add    %al,(%eax)
    130e:	00 08                	add    %cl,(%eax)
    1310:	00 02                	add    %al,(%edx)
    1312:	69 06 00 00 02 ed    	imul   $0xed020000,(%esi),%eax
    1318:	5a                   	pop    %edx
    1319:	04 00                	add    $0x0,%al
    131b:	00 06                	add    %al,(%esi)
    131d:	01 03                	add    %eax,(%ebx)
    131f:	2f                   	das    
    1320:	dd 04 00             	fldl   (%eax,%eax,1)
    1323:	00 13                	add    %dl,(%ebx)
    1325:	02 09                	add    (%ecx),%cl
    1327:	00 00                	add    %al,(%eax)
    1329:	03 31                	add    (%ecx),%esi
    132b:	25 00 00 00 01       	and    $0x1000000,%eax
    1330:	04 04                	add    $0x4,%al
    1332:	00 14 63             	add    %dl,(%ebx,%eiz,2)
    1335:	74 6c                	je     13a3 <mbh-0x2fec5d>
    1337:	00 03                	add    %al,(%ebx)
    1339:	3c 25                	cmp    $0x25,%al
    133b:	00 00                	add    %al,(%eax)
    133d:	00 01                	add    %al,(%ecx)
    133f:	01 03                	add    %eax,(%ebx)
    1341:	00 14 73             	add    %dl,(%ebx,%esi,2)
    1344:	70 63                	jo     13a9 <mbh-0x2fec57>
    1346:	00 03                	add    %al,(%ebx)
    1348:	3d 25 00 00 00       	cmp    $0x25,%eax
    134d:	01 01                	add    %eax,(%ecx)
    134f:	02 00                	add    (%eax),%al
    1351:	13 1c 09             	adc    (%ecx,%ecx,1),%ebx
    1354:	00 00                	add    %al,(%eax)
    1356:	03 3e                	add    (%esi),%edi
    1358:	25 00 00 00 01       	and    $0x1000000,%eax
    135d:	01 01                	add    %eax,(%ecx)
    135f:	00 13                	add    %dl,(%ebx)
    1361:	bd 08 00 00 03       	mov    $0x3000008,%ebp
    1366:	3f                   	aas    
    1367:	25 00 00 00 01       	and    $0x1000000,%eax
    136c:	01 00                	add    %eax,(%eax)
    136e:	00 00                	add    %al,(%eax)
    1370:	08 9e 08 00 00 01    	or     %bl,0x1000008(%esi)
    1376:	03 2d fa 04 00 00    	add    0x4fa,%ebp
    137c:	0b 89 04 00 00 09    	or     0x9000004(%ecx),%ecx
    1382:	72 61                	jb     13e5 <mbh-0x2fec1b>
    1384:	77 00                	ja     1386 <mbh-0x2fec7a>
    1386:	03 43 25             	add    0x25(%ebx),%eax
    1389:	00 00                	add    %al,(%eax)
    138b:	00 00                	add    %al,(%eax)
    138d:	02 c3                	add    %bl,%al
    138f:	08 00                	or     %al,(%eax)
    1391:	00 03                	add    %al,(%ebx)
    1393:	45                   	inc    %ebp
    1394:	dd 04 00             	fldl   (%eax,%eax,1)
    1397:	00 06                	add    %al,(%esi)
    1399:	01 03                	add    %eax,(%ebx)
    139b:	56                   	push   %esi
    139c:	86 05 00 00 13 0e    	xchg   %al,0xe130000
    13a2:	08 00                	or     %al,(%eax)
    13a4:	00 03                	add    %al,(%ebx)
    13a6:	58                   	pop    %eax
    13a7:	25 00 00 00 01       	and    $0x1000000,%eax
    13ac:	01 07                	add    %eax,(%edi)
    13ae:	00 13                	add    %dl,(%ebx)
    13b0:	f7 07 00 00 03 59    	testl  $0x59030000,(%edi)
    13b6:	25 00 00 00 01       	and    $0x1000000,%eax
    13bb:	01 06                	add    %eax,(%esi)
    13bd:	00 14 6c             	add    %dl,(%esp,%ebp,2)
    13c0:	73 72                	jae    1434 <mbh-0x2febcc>
    13c2:	00 03                	add    %al,(%ebx)
    13c4:	5a                   	pop    %edx
    13c5:	25 00 00 00 01       	and    $0x1000000,%eax
    13ca:	01 05 00 14 6d 73    	add    %eax,0x736d1400
    13d0:	72 00                	jb     13d2 <mbh-0x2fec2e>
    13d2:	03 5b 25             	add    0x25(%ebx),%ebx
    13d5:	00 00                	add    %al,(%eax)
    13d7:	00 01                	add    %al,(%ecx)
    13d9:	01 04 00             	add    %eax,(%eax,%eax,1)
    13dc:	13 b2 08 00 00 03    	adc    0x3000008(%edx),%esi
    13e2:	5c                   	pop    %esp
    13e3:	25 00 00 00 01       	and    $0x1000000,%eax
    13e8:	01 03                	add    %eax,(%ebx)
    13ea:	00 13                	add    %dl,(%ebx)
    13ec:	fc                   	cld    
    13ed:	07                   	pop    %es
    13ee:	00 00                	add    %al,(%eax)
    13f0:	03 5d 25             	add    0x25(%ebp),%ebx
    13f3:	00 00                	add    %al,(%eax)
    13f5:	00 01                	add    %al,(%ecx)
    13f7:	01 02                	add    %eax,(%edx)
    13f9:	00 14 72             	add    %dl,(%edx,%esi,2)
    13fc:	74 73                	je     1471 <mbh-0x2feb8f>
    13fe:	00 03                	add    %al,(%ebx)
    1400:	5e                   	pop    %esi
    1401:	25 00 00 00 01       	and    $0x1000000,%eax
    1406:	01 01                	add    %eax,(%ecx)
    1408:	00 14 63             	add    %dl,(%ebx,%eiz,2)
    140b:	74 73                	je     1480 <mbh-0x2feb80>
    140d:	00 03                	add    %al,(%ebx)
    140f:	5f                   	pop    %edi
    1410:	25 00 00 00 01       	and    $0x1000000,%eax
    1415:	01 00                	add    %eax,(%eax)
    1417:	00 00                	add    %al,(%eax)
    1419:	08 3b                	or     %bh,(%ebx)
    141b:	08 00                	or     %al,(%eax)
    141d:	00 01                	add    %al,(%ecx)
    141f:	03 54 a3 05          	add    0x5(%ebx,%eiz,4),%edx
    1423:	00 00                	add    %al,(%eax)
    1425:	0b 05 05 00 00 09    	or     0x9000005,%eax
    142b:	72 61                	jb     148e <mbh-0x2feb72>
    142d:	77 00                	ja     142f <mbh-0x2febd1>
    142f:	03 63 25             	add    0x25(%ebx),%esp
    1432:	00 00                	add    %al,(%eax)
    1434:	00 00                	add    %al,(%eax)
    1436:	02 0b                	add    (%ebx),%cl
    1438:	09 00                	or     %eax,(%eax)
    143a:	00 03                	add    %al,(%ebx)
    143c:	65 86 05 00 00 06 01 	xchg   %al,%gs:0x1060000
    1443:	03 a8 0f 06 00 00    	add    0x60f(%eax),%ebp
    1449:	13 d4                	adc    %esp,%edx
    144b:	08 00                	or     %al,(%eax)
    144d:	00 03                	add    %al,(%ebx)
    144f:	aa                   	stos   %al,%es:(%edi)
    1450:	25 00 00 00 01       	and    $0x1000000,%eax
    1455:	01 07                	add    %eax,(%edi)
    1457:	00 14 72             	add    %dl,(%edx,%esi,2)
    145a:	78 00                	js     145c <mbh-0x2feba4>
    145c:	03 ab 25 00 00 00    	add    0x25(%ebx),%ebp
    1462:	01 01                	add    %eax,(%ecx)
    1464:	06                   	push   %es
    1465:	00 14 74             	add    %dl,(%esp,%esi,2)
    1468:	78 00                	js     146a <mbh-0x2feb96>
    146a:	03 ac 25 00 00 00 01 	add    0x1000000(%ebp,%eiz,1),%ebp
    1471:	01 05 00 14 64 6d    	add    %eax,0x6d641400
    1477:	61                   	popa   
    1478:	00 03                	add    %al,(%ebx)
    147a:	ad                   	lods   %ds:(%esi),%eax
    147b:	25 00 00 00 01       	and    $0x1000000,%eax
    1480:	01 04 00             	add    %eax,(%eax,%eax,1)
    1483:	13 37                	adc    (%edi),%esi
    1485:	09 00                	or     %eax,(%eax)
    1487:	00 03                	add    %al,(%ebx)
    1489:	ae                   	scas   %es:(%edi),%al
    148a:	25 00 00 00 01       	and    $0x1000000,%eax
    148f:	02 02                	add    (%edx),%al
    1491:	00 13                	add    %dl,(%ebx)
    1493:	1d 08 00 00 03       	sbb    $0x3000008,%eax
    1498:	af                   	scas   %es:(%edi),%eax
    1499:	25 00 00 00 01       	and    $0x1000000,%eax
    149e:	02 00                	add    (%eax),%al
    14a0:	00 00                	add    %al,(%eax)
    14a2:	08 5c 08 00          	or     %bl,0x0(%eax,%ecx,1)
    14a6:	00 01                	add    %al,(%ecx)
    14a8:	03 a6 2c 06 00 00    	add    0x62c(%esi),%esp
    14ae:	0b ae 05 00 00 09    	or     0x9000005(%esi),%ebp
    14b4:	72 61                	jb     1517 <mbh-0x2feae9>
    14b6:	77 00                	ja     14b8 <mbh-0x2feb48>
    14b8:	03 b3 25 00 00 00    	add    0x25(%ebx),%esi
    14be:	00 02                	add    %al,(%edx)
    14c0:	70 08                	jo     14ca <mbh-0x2feb36>
    14c2:	00 00                	add    %al,(%eax)
    14c4:	03 b5 0f 06 00 00    	add    0x60f(%ebp),%esi
    14ca:	06                   	push   %es
    14cb:	01 03                	add    %eax,(%ebx)
    14cd:	bd 8b 06 00 00       	mov    $0x68b,%ebp
    14d2:	13 2e                	adc    (%esi),%ebp
    14d4:	09 00                	or     %eax,(%eax)
    14d6:	00 03                	add    %al,(%ebx)
    14d8:	bf 25 00 00 00       	mov    $0x25,%edi
    14dd:	01 02                	add    %eax,(%edx)
    14df:	06                   	push   %es
    14e0:	00 13                	add    %dl,(%ebx)
    14e2:	b8 08 00 00 03       	mov    $0x3000008,%eax
    14e7:	c0 25 00 00 00 01 01 	shlb   $0x1,0x1000000
    14ee:	05 00 13 97 08       	add    $0x8971300,%eax
    14f3:	00 00                	add    %al,(%eax)
    14f5:	03 c1                	add    %ecx,%eax
    14f7:	25 00 00 00 01       	and    $0x1000000,%eax
    14fc:	03 02                	add    (%edx),%eax
    14fe:	00 14 62             	add    %dl,(%edx,%eiz,2)
    1501:	72 6b                	jb     156e <mbh-0x2fea92>
    1503:	00 03                	add    %al,(%ebx)
    1505:	c6                   	(bad)  
    1506:	25 00 00 00 01       	and    $0x1000000,%eax
    150b:	01 01                	add    %eax,(%ecx)
    150d:	00 14 64             	add    %dl,(%esp,%eiz,2)
    1510:	6c                   	insb   (%dx),%es:(%edi)
    1511:	61                   	popa   
    1512:	00 03                	add    %al,(%ebx)
    1514:	c7                   	(bad)  
    1515:	25 00 00 00 01       	and    $0x1000000,%eax
    151a:	01 00                	add    %eax,(%eax)
    151c:	00 00                	add    %al,(%eax)
    151e:	08 d8                	or     %bl,%al
    1520:	07                   	pop    %es
    1521:	00 00                	add    %al,(%eax)
    1523:	01 03                	add    %eax,(%ebx)
    1525:	bb a8 06 00 00       	mov    $0x6a8,%ebx
    152a:	0b 37                	or     (%edi),%esi
    152c:	06                   	push   %es
    152d:	00 00                	add    %al,(%eax)
    152f:	09 72 61             	or     %esi,0x61(%edx)
    1532:	77 00                	ja     1534 <mbh-0x2feacc>
    1534:	03 cb                	add    %ebx,%ecx
    1536:	25 00 00 00 00       	and    $0x0,%eax
    153b:	02 f1                	add    %cl,%dh
    153d:	08 00                	or     %al,(%eax)
    153f:	00 03                	add    %al,(%ebx)
    1541:	cd 8b                	int    $0x8b
    1543:	06                   	push   %es
    1544:	00 00                	add    %al,(%eax)
    1546:	15 ec 07 00 00       	adc    $0x7ec,%eax
    154b:	01 72 72             	add    %esi,0x72(%edx)
    154e:	3b 30                	cmp    (%eax),%esi
    1550:	00 40 00             	add    %al,0x0(%eax)
    1553:	00 00                	add    %al,(%eax)
    1555:	01 9c ed 06 00 00 16 	add    %ebx,0x16000006(%ebp,%ebp,8)
    155c:	73 00                	jae    155e <mbh-0x2feaa2>
    155e:	01 74 c2 00          	add    %esi,0x0(%edx,%eax,8)
    1562:	00 00                	add    %al,(%eax)
    1564:	02 91 74 17 81 3b    	add    0x3b811774(%ecx),%dl
    156a:	30 00                	xor    %al,(%eax)
    156c:	0f 00 00             	sldt   (%eax)
    156f:	00 16                	add    %dl,(%esi)
    1571:	5f                   	pop    %edi
    1572:	64 5f                	fs pop %edi
    1574:	00 01                	add    %al,(%ecx)
    1576:	77 25                	ja     159d <mbh-0x2fea63>
    1578:	00 00                	add    %al,(%eax)
    157a:	00 02                	add    %al,(%edx)
    157c:	91                   	xchg   %eax,%ecx
    157d:	73 00                	jae    157f <mbh-0x2fea81>
    157f:	00 18                	add    %bl,(%eax)
    1581:	51                   	push   %ecx
    1582:	08 00                	or     %al,(%eax)
    1584:	00 01                	add    %al,(%ecx)
    1586:	67 c2 00 00          	addr16 ret $0x0
    158a:	00 46 3b             	add    %al,0x3b(%esi)
    158d:	30 00                	xor    %al,(%eax)
    158f:	2c 00                	sub    $0x0,%al
    1591:	00 00                	add    %al,(%eax)
    1593:	01 9c 2f 07 00 00 19 	add    %ebx,0x19000007(%edi,%ebp,1)
    159a:	9e                   	sahf   
    159b:	06                   	push   %es
    159c:	00 00                	add    %al,(%eax)
    159e:	01 67 25             	add    %esp,0x25(%edi)
    15a1:	04 00                	add    $0x0,%al
    15a3:	00 02                	add    %al,(%edx)
    15a5:	91                   	xchg   %eax,%ecx
    15a6:	00 1a                	add    %bl,(%edx)
    15a8:	6e                   	outsb  %ds:(%esi),(%dx)
    15a9:	00 01                	add    %al,(%ecx)
    15ab:	67 c2 00 00          	addr16 ret $0x0
    15af:	00 02                	add    %al,(%edx)
    15b1:	91                   	xchg   %eax,%ecx
    15b2:	04 16                	add    $0x16,%al
    15b4:	62 75 66             	bound  %esi,0x66(%ebp)
    15b7:	00 01                	add    %al,(%ecx)
    15b9:	69 7e 04 00 00 02 91 	imul   $0x91020000,0x4(%esi),%edi
    15c0:	6c                   	insb   (%dx),%es:(%edi)
    15c1:	00 18                	add    %bl,(%eax)
    15c3:	24 09                	and    $0x9,%al
    15c5:	00 00                	add    %al,(%eax)
    15c7:	01 5c c2 00          	add    %ebx,0x0(%edx,%eax,8)
    15cb:	00 00                	add    %al,(%eax)
    15cd:	1a 3b                	sbb    (%ebx),%bh
    15cf:	30 00                	xor    %al,(%eax)
    15d1:	2c 00                	sub    $0x0,%al
    15d3:	00 00                	add    %al,(%eax)
    15d5:	01 9c 71 07 00 00 19 	add    %ebx,0x19000007(%ecx,%esi,2)
    15dc:	9e                   	sahf   
    15dd:	06                   	push   %es
    15de:	00 00                	add    %al,(%eax)
    15e0:	01 5c 25 04          	add    %ebx,0x4(%ebp,%eiz,1)
    15e4:	00 00                	add    %al,(%eax)
    15e6:	02 91 00 1a 6e 00    	add    0x6e1a00(%ecx),%dl
    15ec:	01 5c c2 00          	add    %ebx,0x0(%edx,%eax,8)
    15f0:	00 00                	add    %al,(%eax)
    15f2:	02 91 04 16 62 75    	add    0x75621604(%ecx),%dl
    15f8:	66 00 01             	data16 add %al,(%ecx)
    15fb:	5e                   	pop    %esi
    15fc:	7e 04                	jle    1602 <mbh-0x2fe9fe>
    15fe:	00 00                	add    %al,(%eax)
    1600:	02 91 6c 00 1b 4f    	add    0x4f1b006c(%ecx),%dl
    1606:	08 00                	or     %al,(%eax)
    1608:	00 01                	add    %al,(%ecx)
    160a:	50                   	push   %eax
    160b:	be 3a 30 00 5c       	mov    $0x5c00303a,%esi
    1610:	00 00                	add    %al,(%eax)
    1612:	00 01                	add    %al,(%ecx)
    1614:	9c                   	pushf  
    1615:	c9                   	leave  
    1616:	07                   	pop    %es
    1617:	00 00                	add    %al,(%eax)
    1619:	19 ec                	sbb    %ebp,%esp
    161b:	08 00                	or     %al,(%eax)
    161d:	00 01                	add    %al,(%ecx)
    161f:	50                   	push   %eax
    1620:	37                   	aaa    
    1621:	00 00                	add    %al,(%eax)
    1623:	00 02                	add    %al,(%edx)
    1625:	91                   	xchg   %eax,%ecx
    1626:	64 1a 62 75          	sbb    %fs:0x75(%edx),%ah
    162a:	66 00 01             	data16 add %al,(%ecx)
    162d:	50                   	push   %eax
    162e:	c9                   	leave  
    162f:	07                   	pop    %es
    1630:	00 00                	add    %al,(%eax)
    1632:	02 91 04 1a 6d 61    	add    0x616d1a04(%ecx),%dl
    1638:	78 00                	js     163a <mbh-0x2fe9c6>
    163a:	01 50 c2             	add    %edx,-0x3e(%eax)
    163d:	00 00                	add    %al,(%eax)
    163f:	00 02                	add    %al,(%edx)
    1641:	91                   	xchg   %eax,%ecx
    1642:	08 17                	or     %dl,(%edi)
    1644:	cd 3a                	int    $0x3a
    1646:	30 00                	xor    %al,(%eax)
    1648:	11 00                	adc    %eax,(%eax)
    164a:	00 00                	add    %al,(%eax)
    164c:	16                   	push   %ss
    164d:	5f                   	pop    %edi
    164e:	64 5f                	fs pop %edi
    1650:	00 01                	add    %al,(%ecx)
    1652:	54                   	push   %esp
    1653:	25 00 00 00 02       	and    $0x2000000,%eax
    1658:	91                   	xchg   %eax,%ecx
    1659:	77 00                	ja     165b <mbh-0x2fe9a5>
    165b:	00 05 04 7e 04 00    	add    %al,0x47e04
    1661:	00 1b                	add    %bl,(%ebx)
    1663:	22 09                	and    (%ecx),%cl
    1665:	00 00                	add    %al,(%eax)
    1667:	01 47 5a             	add    %eax,0x5a(%edi)
    166a:	3a 30                	cmp    (%eax),%dh
    166c:	00 64 00 00          	add    %ah,0x0(%eax,%eax,1)
    1670:	00 01                	add    %al,(%ecx)
    1672:	9c                   	pushf  
    1673:	43                   	inc    %ebx
    1674:	08 00                	or     %al,(%eax)
    1676:	00 19                	add    %bl,(%ecx)
    1678:	ec                   	in     (%dx),%al
    1679:	08 00                	or     %al,(%eax)
    167b:	00 01                	add    %al,(%ecx)
    167d:	47                   	inc    %edi
    167e:	37                   	aaa    
    167f:	00 00                	add    %al,(%eax)
    1681:	00 02                	add    %al,(%edx)
    1683:	91                   	xchg   %eax,%ecx
    1684:	64 1a 62 75          	sbb    %fs:0x75(%edx),%ah
    1688:	66 00 01             	data16 add %al,(%ecx)
    168b:	47                   	inc    %edi
    168c:	c9                   	leave  
    168d:	07                   	pop    %es
    168e:	00 00                	add    %al,(%eax)
    1690:	02 91 04 1a 6d 61    	add    0x616d1a04(%ecx),%dl
    1696:	78 00                	js     1698 <mbh-0x2fe968>
    1698:	01 47 c2             	add    %eax,-0x3e(%edi)
    169b:	00 00                	add    %al,(%eax)
    169d:	00 02                	add    %al,(%edx)
    169f:	91                   	xchg   %eax,%ecx
    16a0:	08 1c 69             	or     %bl,(%ecx,%ebp,2)
    16a3:	3a 30                	cmp    (%eax),%dh
    16a5:	00 0e                	add    %cl,(%esi)
    16a7:	00 00                	add    %al,(%eax)
    16a9:	00 2a                	add    %ch,(%edx)
    16ab:	08 00                	or     %al,(%eax)
    16ad:	00 16                	add    %dl,(%esi)
    16af:	5f                   	pop    %edi
    16b0:	64 5f                	fs pop %edi
    16b2:	00 01                	add    %al,(%ecx)
    16b4:	4b                   	dec    %ebx
    16b5:	25 00 00 00 02       	and    $0x2000000,%eax
    16ba:	91                   	xchg   %eax,%ecx
    16bb:	76 00                	jbe    16bd <mbh-0x2fe943>
    16bd:	17                   	pop    %ss
    16be:	95                   	xchg   %eax,%ebp
    16bf:	3a 30                	cmp    (%eax),%dh
    16c1:	00 11                	add    %dl,(%ecx)
    16c3:	00 00                	add    %al,(%eax)
    16c5:	00 16                	add    %dl,(%esi)
    16c7:	5f                   	pop    %edi
    16c8:	64 5f                	fs pop %edi
    16ca:	00 01                	add    %al,(%ecx)
    16cc:	49                   	dec    %ecx
    16cd:	25 00 00 00 02       	and    $0x2000000,%eax
    16d2:	91                   	xchg   %eax,%ecx
    16d3:	77 00                	ja     16d5 <mbh-0x2fe92b>
    16d5:	00 1d 13 08 00 00    	add    %bl,0x813
    16db:	01 41 3a             	add    %eax,0x3a(%ecx)
    16de:	3a 30                	cmp    (%eax),%dh
    16e0:	00 20                	add    %ah,(%eax)
    16e2:	00 00                	add    %al,(%eax)
    16e4:	00 01                	add    %al,(%ecx)
    16e6:	9c                   	pushf  
    16e7:	1e                   	push   %ds
    16e8:	28 08                	sub    %cl,(%eax)
    16ea:	00 00                	add    %al,(%eax)
    16ec:	01 20                	add    %esp,(%eax)
    16ee:	cf                   	iret   
    16ef:	39 30                	cmp    %esi,(%eax)
    16f1:	00 6b 00             	add    %ch,0x0(%ebx)
    16f4:	00 00                	add    %al,(%eax)
    16f6:	01 9c 94 08 00 00 19 	add    %ebx,0x19000008(%esp,%edx,4)
    16fd:	ec                   	in     (%dx),%al
    16fe:	08 00                	or     %al,(%eax)
    1700:	00 01                	add    %al,(%ecx)
    1702:	20 37                	and    %dh,(%edi)
    1704:	00 00                	add    %al,(%eax)
    1706:	00 02                	add    %al,(%edx)
    1708:	91                   	xchg   %eax,%ecx
    1709:	64 16                	fs push %ss
    170b:	69 65 72 00 01 22 a3 	imul   $0xa3220100,0x72(%ebp),%esp
    1712:	05 00 00 02 91       	add    $0x91020000,%eax
    1717:	77 16                	ja     172f <mbh-0x2fe8d1>
    1719:	6c                   	insb   (%dx),%es:(%edi)
    171a:	63 72 00             	arpl   %si,0x0(%edx)
    171d:	01 23                	add    %esp,(%ebx)
    171f:	a8 06                	test   $0x6,%al
    1721:	00 00                	add    %al,(%eax)
    1723:	02 91 76 00 1b db    	add    -0x24e4ff8a(%ecx),%dl
    1729:	08 00                	or     %al,(%eax)
    172b:	00 01                	add    %al,(%ecx)
    172d:	0a 47 39             	or     0x39(%edi),%al
    1730:	30 00                	xor    %al,(%eax)
    1732:	88 00                	mov    %al,(%eax)
    1734:	00 00                	add    %al,(%eax)
    1736:	01 9c d4 08 00 00 19 	add    %ebx,0x19000008(%esp,%edx,8)
    173d:	ec                   	in     (%dx),%al
    173e:	08 00                	or     %al,(%eax)
    1740:	00 01                	add    %al,(%ecx)
    1742:	0a 37                	or     (%edi),%dh
    1744:	00 00                	add    %al,(%eax)
    1746:	00 02                	add    %al,(%edx)
    1748:	91                   	xchg   %eax,%ecx
    1749:	64 16                	fs push %ss
    174b:	66 63 72 00          	data16 arpl %si,0x0(%edx)
    174f:	01 0c 2c             	add    %ecx,(%esp,%ebp,1)
    1752:	06                   	push   %es
    1753:	00 00                	add    %al,(%eax)
    1755:	02 91 77 16 65 66    	add    0x66651677(%ecx),%dl
    175b:	72 00                	jb     175d <mbh-0x2fe8a3>
    175d:	01 0d fa 04 00 00    	add    %ecx,0x4fa
    1763:	02 91 76 00 1f 01    	add    0x11f0076(%ecx),%dl
    1769:	08 00                	or     %al,(%eax)
    176b:	00 01                	add    %al,(%ecx)
    176d:	04 10                	add    $0x10,%al
    176f:	39 30                	cmp    %esi,(%eax)
    1771:	00 37                	add    %dh,(%edi)
    1773:	00 00                	add    %al,(%eax)
    1775:	00 01                	add    %al,(%ecx)
    1777:	9c                   	pushf  
    1778:	19 ec                	sbb    %ebp,%esp
    177a:	08 00                	or     %al,(%eax)
    177c:	00 01                	add    %al,(%ecx)
    177e:	04 37                	add    $0x37,%al
    1780:	00 00                	add    %al,(%eax)
    1782:	00 02                	add    %al,(%edx)
    1784:	91                   	xchg   %eax,%ecx
    1785:	64 1c 1f             	fs sbb $0x1f,%al
    1788:	39 30                	cmp    %esi,(%eax)
    178a:	00 0a                	add    %cl,(%edx)
    178c:	00 00                	add    %al,(%eax)
    178e:	00 0f                	add    %cl,(%edi)
    1790:	09 00                	or     %eax,(%eax)
    1792:	00 16                	add    %dl,(%esi)
    1794:	5f                   	pop    %edi
    1795:	64 5f                	fs pop %edi
    1797:	00 01                	add    %al,(%ecx)
    1799:	07                   	pop    %es
    179a:	25 00 00 00 02       	and    $0x2000000,%eax
    179f:	91                   	xchg   %eax,%ecx
    17a0:	76 00                	jbe    17a2 <mbh-0x2fe85e>
    17a2:	17                   	pop    %ss
    17a3:	29 39                	sub    %edi,(%ecx)
    17a5:	30 00                	xor    %al,(%eax)
    17a7:	11 00                	adc    %eax,(%eax)
    17a9:	00 00                	add    %al,(%eax)
    17ab:	16                   	push   %ss
    17ac:	5f                   	pop    %edi
    17ad:	64 5f                	fs pop %edi
    17af:	00 01                	add    %al,(%ecx)
    17b1:	06                   	push   %es
    17b2:	25 00 00 00 02       	and    $0x2000000,%eax
    17b7:	91                   	xchg   %eax,%ecx
    17b8:	77 00                	ja     17ba <mbh-0x2fe846>
    17ba:	00 00                	add    %al,(%eax)
    17bc:	01 03                	add    %eax,(%ebx)
    17be:	00 00                	add    %al,(%eax)
    17c0:	04 00                	add    $0x0,%al
    17c2:	da 04 00             	fiaddl (%eax,%eax,1)
    17c5:	00 04 01             	add    %al,(%ecx,%eax,1)
    17c8:	2d 01 00 00 0c       	sub    $0xc000001,%eax
    17cd:	df 09                	fisttps (%ecx)
    17cf:	00 00                	add    %al,(%eax)
    17d1:	17                   	pop    %ss
    17d2:	00 00                	add    %al,(%eax)
    17d4:	00 b2 3b 30 00 88    	add    %dh,-0x77ffcfc5(%edx)
    17da:	00 00                	add    %al,(%eax)
    17dc:	00 63 03             	add    %ah,0x3(%ebx)
    17df:	00 00                	add    %al,(%eax)
    17e1:	02 62 05             	add    0x5(%edx),%ah
    17e4:	00 00                	add    %al,(%eax)
    17e6:	03 1a                	add    (%edx),%ebx
    17e8:	30 00                	xor    %al,(%eax)
    17ea:	00 00                	add    %al,(%eax)
    17ec:	03 01                	add    (%ecx),%eax
    17ee:	08 51 03             	or     %dl,0x3(%ecx)
    17f1:	00 00                	add    %al,(%eax)
    17f3:	03 02                	add    (%edx),%eax
    17f5:	07                   	pop    %es
    17f6:	f3 03 00             	repz add (%eax),%eax
    17f9:	00 03                	add    %al,(%ebx)
    17fb:	04 07                	add    $0x7,%al
    17fd:	95                   	xchg   %eax,%ebp
    17fe:	03 00                	add    (%eax),%eax
    1800:	00 03                	add    %al,(%ebx)
    1802:	08 07                	or     %al,(%edi)
    1804:	8b 03                	mov    (%ebx),%eax
    1806:	00 00                	add    %al,(%eax)
    1808:	03 01                	add    (%ecx),%eax
    180a:	06                   	push   %es
    180b:	53                   	push   %ebx
    180c:	03 00                	add    (%eax),%eax
    180e:	00 03                	add    %al,(%ebx)
    1810:	02 05 a3 00 00 00    	add    0xa3,%al
    1816:	04 04                	add    $0x4,%al
    1818:	05 69 6e 74 00       	add    $0x746e69,%eax
    181d:	03 08                	add    (%eax),%ecx
    181f:	05 d8 02 00 00       	add    $0x2d8,%eax
    1824:	03 01                	add    (%ecx),%eax
    1826:	06                   	push   %es
    1827:	5a                   	pop    %edx
    1828:	03 00                	add    (%eax),%eax
    182a:	00 03                	add    %al,(%ebx)
    182c:	04 07                	add    $0x7,%al
    182e:	90                   	nop
    182f:	03 00                	add    (%eax),%eax
    1831:	00 05 01 02 46 d9    	add    %al,0xd9460201
    1837:	00 00                	add    %al,(%eax)
    1839:	00 06                	add    %al,(%esi)
    183b:	c4 09                	les    (%ecx),%ecx
    183d:	00 00                	add    %al,(%eax)
    183f:	02 48 25             	add    0x25(%eax),%cl
    1842:	00 00                	add    %al,(%eax)
    1844:	00 01                	add    %al,(%ecx)
    1846:	01 07                	add    %eax,(%edi)
    1848:	00 06                	add    %al,(%esi)
    184a:	aa                   	stos   %al,%es:(%edi)
    184b:	09 00                	or     %eax,(%eax)
    184d:	00 02                	add    %al,(%edx)
    184f:	49                   	dec    %ecx
    1850:	25 00 00 00 01       	and    $0x1000000,%eax
    1855:	01 06                	add    %eax,(%esi)
    1857:	00 06                	add    %al,(%esi)
    1859:	54                   	push   %esp
    185a:	0a 00                	or     (%eax),%al
    185c:	00 02                	add    %al,(%edx)
    185e:	4a                   	dec    %edx
    185f:	25 00 00 00 01       	and    $0x1000000,%eax
    1864:	01 05 00 06 24 0a    	add    %eax,0xa240600
    186a:	00 00                	add    %al,(%eax)
    186c:	02 4b 25             	add    0x25(%ebx),%cl
    186f:	00 00                	add    %al,(%eax)
    1871:	00 01                	add    %al,(%ecx)
    1873:	01 04 00             	add    %eax,(%eax,%eax,1)
    1876:	07                   	pop    %es
    1877:	6f                   	outsl  %ds:(%esi),(%dx)
    1878:	6e                   	outsb  %ds:(%esi),(%dx)
    1879:	65 00 02             	add    %al,%gs:(%edx)
    187c:	4c                   	dec    %esp
    187d:	25 00 00 00 01       	and    $0x1000000,%eax
    1882:	01 03                	add    %eax,(%ebx)
    1884:	00 06                	add    %al,(%esi)
    1886:	4f                   	dec    %edi
    1887:	0a 00                	or     (%eax),%al
    1889:	00 02                	add    %al,(%edx)
    188b:	4d                   	dec    %ebp
    188c:	25 00 00 00 01       	and    $0x1000000,%eax
    1891:	03 00                	add    (%eax),%eax
    1893:	00 00                	add    %al,(%eax)
    1895:	08 4d 09             	or     %cl,0x9(%ebp)
    1898:	00 00                	add    %al,(%eax)
    189a:	01 02                	add    %eax,(%edx)
    189c:	44                   	inc    %esp
    189d:	f6 00 00             	testb  $0x0,(%eax)
    18a0:	00 09                	add    %cl,(%ecx)
    18a2:	76 00                	jbe    18a4 <mbh-0x2fe75c>
    18a4:	00 00                	add    %al,(%eax)
    18a6:	0a 72 61             	or     0x61(%edx),%dh
    18a9:	77 00                	ja     18ab <mbh-0x2fe755>
    18ab:	02 51 25             	add    0x25(%ecx),%dl
    18ae:	00 00                	add    %al,(%eax)
    18b0:	00 00                	add    %al,(%eax)
    18b2:	02 42 09             	add    0x9(%edx),%al
    18b5:	00 00                	add    %al,(%eax)
    18b7:	02 53 d9             	add    -0x27(%ebx),%dl
    18ba:	00 00                	add    %al,(%eax)
    18bc:	00 05 01 02 6c 28    	add    %al,0x286c0201
    18c2:	01 00                	add    %eax,(%eax)
    18c4:	00 06                	add    %al,(%esi)
    18c6:	60                   	pusha  
    18c7:	0a 00                	or     (%eax),%al
    18c9:	00 02                	add    %al,(%edx)
    18cb:	6e                   	outsb  %ds:(%esi),(%dx)
    18cc:	25 00 00 00 01       	and    $0x1000000,%eax
    18d1:	03 05 00 06 d0 09    	add    0x9d00600,%eax
    18d7:	00 00                	add    %al,(%eax)
    18d9:	02 6f 25             	add    0x25(%edi),%ch
    18dc:	00 00                	add    %al,(%eax)
    18de:	00 01                	add    %al,(%ecx)
    18e0:	05 00 00 00 08       	add    $0x8000000,%eax
    18e5:	65 09 00             	or     %eax,%gs:(%eax)
    18e8:	00 01                	add    %al,(%ecx)
    18ea:	02 6a 45             	add    0x45(%edx),%ch
    18ed:	01 00                	add    %eax,(%eax)
    18ef:	00 09                	add    %cl,(%ecx)
    18f1:	01 01                	add    %eax,(%ecx)
    18f3:	00 00                	add    %al,(%eax)
    18f5:	0a 72 61             	or     0x61(%edx),%dh
    18f8:	77 00                	ja     18fa <mbh-0x2fe706>
    18fa:	02 73 25             	add    0x25(%ebx),%dh
    18fd:	00 00                	add    %al,(%eax)
    18ff:	00 00                	add    %al,(%eax)
    1901:	02 3f                	add    (%edi),%bh
    1903:	0a 00                	or     (%eax),%al
    1905:	00 02                	add    %al,(%edx)
    1907:	75 28                	jne    1931 <mbh-0x2fe6cf>
    1909:	01 00                	add    %eax,(%eax)
    190b:	00 05 01 02 7e d1    	add    %al,0xd17e0201
    1911:	01 00                	add    %eax,(%eax)
    1913:	00 06                	add    %al,(%esi)
    1915:	7d 09                	jge    1920 <mbh-0x2fe6e0>
    1917:	00 00                	add    %al,(%eax)
    1919:	02 80 25 00 00 00    	add    0x25(%eax),%al
    191f:	01 01                	add    %eax,(%ecx)
    1921:	07                   	pop    %es
    1922:	00 06                	add    %al,(%esi)
    1924:	82 09 00             	orb    $0x0,(%ecx)
    1927:	00 02                	add    %al,(%edx)
    1929:	81 25 00 00 00 01 01 	andl   $0x6000601,0x1000000
    1930:	06 00 06 
    1933:	87 09                	xchg   %ecx,(%ecx)
    1935:	00 00                	add    %al,(%eax)
    1937:	02 82 25 00 00 00    	add    0x25(%edx),%al
    193d:	01 01                	add    %eax,(%ecx)
    193f:	05 00 06 8c 09       	add    $0x98c0600,%eax
    1944:	00 00                	add    %al,(%eax)
    1946:	02 83 25 00 00 00    	add    0x25(%ebx),%al
    194c:	01 01                	add    %eax,(%ecx)
    194e:	04 00                	add    $0x0,%al
    1950:	06                   	push   %es
    1951:	91                   	xchg   %eax,%ecx
    1952:	09 00                	or     %eax,(%eax)
    1954:	00 02                	add    %al,(%edx)
    1956:	84 25 00 00 00 01    	test   %ah,0x1000000
    195c:	01 03                	add    %eax,(%ebx)
    195e:	00 06                	add    %al,(%esi)
    1960:	96                   	xchg   %eax,%esi
    1961:	09 00                	or     %eax,(%eax)
    1963:	00 02                	add    %al,(%edx)
    1965:	85 25 00 00 00 01    	test   %esp,0x1000000
    196b:	01 02                	add    %eax,(%edx)
    196d:	00 06                	add    %al,(%esi)
    196f:	9b                   	fwait
    1970:	09 00                	or     %eax,(%eax)
    1972:	00 02                	add    %al,(%edx)
    1974:	86 25 00 00 00 01    	xchg   %ah,0x1000000
    197a:	01 01                	add    %eax,(%ecx)
    197c:	00 06                	add    %al,(%esi)
    197e:	a0 09 00 00 02       	mov    0x2000009,%al
    1983:	87 25 00 00 00 01    	xchg   %esp,0x1000000
    1989:	01 00                	add    %eax,(%eax)
    198b:	00 00                	add    %al,(%eax)
    198d:	05 01 02 8a f7       	add    $0xf78a0201,%eax
    1992:	01 00                	add    %eax,(%eax)
    1994:	00 07                	add    %al,(%edi)
    1996:	69 64 00 02 8c 25 00 	imul   $0x258c,0x2(%eax,%eax,1),%esp
    199d:	00 
    199e:	00 01                	add    %al,(%ecx)
    19a0:	03 05 00 06 60 0a    	add    0xa600600,%eax
    19a6:	00 00                	add    %al,(%eax)
    19a8:	02 8d 25 00 00 00    	add    0x25(%ebp),%cl
    19ae:	01 05 00 00 00 08    	add    %eax,0x8000000
    19b4:	f4                   	hlt    
    19b5:	09 00                	or     %eax,(%eax)
    19b7:	00 01                	add    %al,(%ecx)
    19b9:	02 7c 25 02          	add    0x2(%ebp,%eiz,1),%bh
    19bd:	00 00                	add    %al,(%eax)
    19bf:	0b c9                	or     %ecx,%ecx
    19c1:	09 00                	or     %eax,(%eax)
    19c3:	00 02                	add    %al,(%edx)
    19c5:	88 50 01             	mov    %dl,0x1(%eax)
    19c8:	00 00                	add    %al,(%eax)
    19ca:	0b d9                	or     %ecx,%ebx
    19cc:	09 00                	or     %eax,(%eax)
    19ce:	00 02                	add    %al,(%edx)
    19d0:	8e d1                	mov    %ecx,%ss
    19d2:	01 00                	add    %eax,(%eax)
    19d4:	00 0a                	add    %cl,(%edx)
    19d6:	72 61                	jb     1a39 <mbh-0x2fe5c7>
    19d8:	77 00                	ja     19da <mbh-0x2fe626>
    19da:	02 90 25 00 00 00    	add    0x25(%eax),%dl
    19e0:	00 02                	add    %al,(%edx)
    19e2:	34 0a                	xor    $0xa,%al
    19e4:	00 00                	add    %al,(%eax)
    19e6:	02 92 f7 01 00 00    	add    0x1f7(%edx),%dl
    19ec:	05 01 02 99 92       	add    $0x92990201,%eax
    19f1:	02 00                	add    (%eax),%al
    19f3:	00 07                	add    %al,(%edi)
    19f5:	78 38                	js     1a2f <mbh-0x2fe5d1>
    19f7:	36 00 02             	add    %al,%ss:(%edx)
    19fa:	9b                   	fwait
    19fb:	25 00 00 00 01       	and    $0x1000000,%eax
    1a00:	01 07                	add    %eax,(%edi)
    1a02:	00 06                	add    %al,(%esi)
    1a04:	a5                   	movsl  %ds:(%esi),%es:(%edi)
    1a05:	09 00                	or     %eax,(%eax)
    1a07:	00 02                	add    %al,(%edx)
    1a09:	9c                   	pushf  
    1a0a:	25 00 00 00 01       	and    $0x1000000,%eax
    1a0f:	01 06                	add    %eax,(%esi)
    1a11:	00 07                	add    %al,(%edi)
    1a13:	6d                   	insl   (%dx),%es:(%edi)
    1a14:	73 00                	jae    1a16 <mbh-0x2fe5ea>
    1a16:	02 9d 25 00 00 00    	add    0x25(%ebp),%bl
    1a1c:	01 01                	add    %eax,(%ecx)
    1a1e:	05 00 06 fa 05       	add    $0x5fa0600,%eax
    1a23:	00 00                	add    %al,(%eax)
    1a25:	02 9e 25 00 00 00    	add    0x25(%esi),%bl
    1a2b:	01 01                	add    %eax,(%ecx)
    1a2d:	04 00                	add    $0x0,%al
    1a2f:	06                   	push   %es
    1a30:	5b                   	pop    %ebx
    1a31:	0a 00                	or     (%eax),%al
    1a33:	00 02                	add    %al,(%edx)
    1a35:	9f                   	lahf   
    1a36:	25 00 00 00 01       	and    $0x1000000,%eax
    1a3b:	01 03                	add    %eax,(%ebx)
    1a3d:	00 06                	add    %al,(%esi)
    1a3f:	60                   	pusha  
    1a40:	0a 00                	or     (%eax),%al
    1a42:	00 02                	add    %al,(%edx)
    1a44:	a0 25 00 00 00       	mov    0x25,%al
    1a49:	01 03                	add    %eax,(%ebx)
    1a4b:	00 00                	add    %al,(%eax)
    1a4d:	00 08                	add    %cl,(%eax)
    1a4f:	0c 0a                	or     $0xa,%al
    1a51:	00 00                	add    %al,(%eax)
    1a53:	01 02                	add    %eax,(%edx)
    1a55:	97                   	xchg   %eax,%edi
    1a56:	af                   	scas   %es:(%edi),%eax
    1a57:	02 00                	add    (%eax),%al
    1a59:	00 09                	add    %cl,(%ecx)
    1a5b:	30 02                	xor    %al,(%edx)
    1a5d:	00 00                	add    %al,(%eax)
    1a5f:	0a 72 61             	or     0x61(%edx),%dh
    1a62:	77 00                	ja     1a64 <mbh-0x2fe59c>
    1a64:	02 a4 25 00 00 00 00 	add    0x0(%ebp,%eiz,1),%ah
    1a6b:	02 29                	add    (%ecx),%ch
    1a6d:	0a 00                	or     (%eax),%al
    1a6f:	00 02                	add    %al,(%edx)
    1a71:	a6                   	cmpsb  %es:(%edi),%ds:(%esi)
    1a72:	92                   	xchg   %eax,%edx
    1a73:	02 00                	add    (%eax),%al
    1a75:	00 0c b1             	add    %cl,(%ecx,%esi,4)
    1a78:	09 00                	or     %eax,(%eax)
    1a7a:	00 01                	add    %al,(%ecx)
    1a7c:	04 b2                	add    $0xb2,%al
    1a7e:	3b 30                	cmp    (%eax),%esi
    1a80:	00 88 00 00 00 01    	add    %cl,0x1000000(%eax)
    1a86:	9c                   	pushf  
    1a87:	0d 4a 0a 00 00       	or     $0xa4a,%eax
    1a8c:	01 06                	add    %eax,(%esi)
    1a8e:	f6 00 00             	testb  $0x0,(%eax)
    1a91:	00 02                	add    %al,(%edx)
    1a93:	91                   	xchg   %eax,%ecx
    1a94:	77 0d                	ja     1aa3 <mbh-0x2fe55d>
    1a96:	ba 09 00 00 01       	mov    $0x1000009,%edx
    1a9b:	07                   	pop    %es
    1a9c:	45                   	inc    %ebp
    1a9d:	01 00                	add    %eax,(%eax)
    1a9f:	00 02                	add    %al,(%edx)
    1aa1:	91                   	xchg   %eax,%ecx
    1aa2:	76 0d                	jbe    1ab1 <mbh-0x2fe54f>
    1aa4:	bf 09 00 00 01       	mov    $0x1000009,%edi
    1aa9:	08 25 02 00 00 02    	or     %ah,0x2000002
    1aaf:	91                   	xchg   %eax,%ecx
    1ab0:	75 0d                	jne    1abf <mbh-0x2fe541>
    1ab2:	c4 09                	les    (%ecx),%ecx
    1ab4:	00 00                	add    %al,(%eax)
    1ab6:	01 09                	add    %ecx,(%ecx)
    1ab8:	af                   	scas   %es:(%edi),%eax
    1ab9:	02 00                	add    (%eax),%al
    1abb:	00 02                	add    %al,(%edx)
    1abd:	91                   	xchg   %eax,%ecx
    1abe:	74 00                	je     1ac0 <mbh-0x2fe540>
    1ac0:	00 b3 10 00 00 04    	add    %dh,0x4000010(%ebx)
    1ac6:	00 9d 05 00 00 04    	add    %bl,0x4000005(%ebp)
    1acc:	01 2d 01 00 00 0c    	add    %ebp,0xc000001
    1ad2:	b6 0a                	mov    $0xa,%dh
    1ad4:	00 00                	add    %al,(%eax)
    1ad6:	17                   	pop    %ss
    1ad7:	00 00                	add    %al,(%eax)
    1ad9:	00 3a                	add    %bh,(%edx)
    1adb:	3c 30                	cmp    $0x30,%al
    1add:	00 d0                	add    %dl,%al
    1adf:	02 00                	add    (%eax),%al
    1ae1:	00 e0                	add    %ah,%al
    1ae3:	03 00                	add    (%eax),%eax
    1ae5:	00 02                	add    %al,(%edx)
    1ae7:	62 05 00 00 02 1a    	bound  %eax,0x1a020000
    1aed:	30 00                	xor    %al,(%eax)
    1aef:	00 00                	add    %al,(%eax)
    1af1:	03 01                	add    (%ecx),%eax
    1af3:	08 51 03             	or     %dl,0x3(%ecx)
    1af6:	00 00                	add    %al,(%eax)
    1af8:	02 b7 00 00 00 02    	add    0x2000000(%edi),%dh
    1afe:	1b 42 00             	sbb    0x0(%edx),%eax
    1b01:	00 00                	add    %al,(%eax)
    1b03:	03 02                	add    (%edx),%eax
    1b05:	07                   	pop    %es
    1b06:	f3 03 00             	repz add (%eax),%eax
    1b09:	00 02                	add    %al,(%edx)
    1b0b:	9a 00 00 00 02 1c 54 	lcall  $0x541c,$0x2000000
    1b12:	00 00                	add    %al,(%eax)
    1b14:	00 03                	add    %al,(%ebx)
    1b16:	04 07                	add    $0x7,%al
    1b18:	95                   	xchg   %eax,%ebp
    1b19:	03 00                	add    (%eax),%eax
    1b1b:	00 02                	add    %al,(%edx)
    1b1d:	10 04 00             	adc    %al,(%eax,%eax,1)
    1b20:	00 02                	add    %al,(%edx)
    1b22:	1d 66 00 00 00       	sbb    $0x66,%eax
    1b27:	03 08                	add    (%eax),%ecx
    1b29:	07                   	pop    %es
    1b2a:	8b 03                	mov    (%ebx),%eax
    1b2c:	00 00                	add    %al,(%eax)
    1b2e:	03 01                	add    (%ecx),%eax
    1b30:	06                   	push   %es
    1b31:	53                   	push   %ebx
    1b32:	03 00                	add    (%eax),%eax
    1b34:	00 02                	add    %al,(%edx)
    1b36:	0a 07                	or     (%edi),%al
    1b38:	00 00                	add    %al,(%eax)
    1b3a:	02 20                	add    (%eax),%ah
    1b3c:	7f 00                	jg     1b3e <mbh-0x2fe4c2>
    1b3e:	00 00                	add    %al,(%eax)
    1b40:	03 02                	add    (%edx),%eax
    1b42:	05 a3 00 00 00       	add    $0xa3,%eax
    1b47:	02 b0 05 00 00 02    	add    0x2000005(%eax),%dh
    1b4d:	21 91 00 00 00 04    	and    %edx,0x4000000(%ecx)
    1b53:	04 05                	add    $0x5,%al
    1b55:	69 6e 74 00 02 89 06 	imul   $0x6890200,0x74(%esi),%ebp
    1b5c:	00 00                	add    %al,(%eax)
    1b5e:	02 22                	add    (%edx),%ah
    1b60:	a3 00 00 00 03       	mov    %eax,0x3000000
    1b65:	08 05 d8 02 00 00    	or     %al,0x2d8
    1b6b:	03 01                	add    (%ecx),%eax
    1b6d:	06                   	push   %es
    1b6e:	5a                   	pop    %edx
    1b6f:	03 00                	add    (%eax),%eax
    1b71:	00 02                	add    %al,(%edx)
    1b73:	a9 05 00 00 02       	test   $0x2000005,%eax
    1b78:	25 bc 00 00 00       	and    $0xbc,%eax
    1b7d:	03 04 07             	add    (%edi,%eax,1),%eax
    1b80:	90                   	nop
    1b81:	03 00                	add    (%eax),%eax
    1b83:	00 02                	add    %al,(%edx)
    1b85:	6a 07                	push   $0x7
    1b87:	00 00                	add    %al,(%eax)
    1b89:	02 26                	add    (%esi),%ah
    1b8b:	bc 00 00 00 05       	mov    $0x5000000,%esp
    1b90:	02 02                	add    (%edx),%al
    1b92:	4c                   	dec    %esp
    1b93:	ef                   	out    %eax,(%dx)
    1b94:	00 00                	add    %al,(%eax)
    1b96:	00 06                	add    %al,(%esi)
    1b98:	9e                   	sahf   
    1b99:	05 00 00 02 4e       	add    $0x4e020000,%eax
    1b9e:	25 00 00 00 00       	and    $0x0,%eax
    1ba3:	06                   	push   %es
    1ba4:	92                   	xchg   %eax,%edx
    1ba5:	06                   	push   %es
    1ba6:	00 00                	add    %al,(%eax)
    1ba8:	02 4f 25             	add    0x25(%edi),%cl
    1bab:	00 00                	add    %al,(%eax)
    1bad:	00 01                	add    %al,(%ecx)
    1baf:	00 07                	add    %al,(%edi)
    1bb1:	d8 05 00 00 02 02    	fadds  0x2020000
    1bb7:	45                   	inc    %ebp
    1bb8:	22 01                	and    (%ecx),%al
    1bba:	00 00                	add    %al,(%eax)
    1bbc:	08 72 61             	or     %dh,0x61(%edx)
    1bbf:	77 00                	ja     1bc1 <mbh-0x2fe43f>
    1bc1:	02 47 37             	add    0x37(%edi),%al
    1bc4:	00 00                	add    %al,(%eax)
    1bc6:	00 09                	add    %cl,(%ecx)
    1bc8:	f4                   	hlt    
    1bc9:	06                   	push   %es
    1bca:	00 00                	add    %al,(%eax)
    1bcc:	02 48 74             	add    0x74(%eax),%cl
    1bcf:	00 00                	add    %al,(%eax)
    1bd1:	00 09                	add    %cl,(%ecx)
    1bd3:	64 06                	fs push %es
    1bd5:	00 00                	add    %al,(%eax)
    1bd7:	02 49 22             	add    0x22(%ecx),%cl
    1bda:	01 00                	add    %eax,(%eax)
    1bdc:	00 0a                	add    %cl,(%edx)
    1bde:	ce                   	into   
    1bdf:	00 00                	add    %al,(%eax)
    1be1:	00 00                	add    %al,(%eax)
    1be3:	0b 25 00 00 00 32    	or     0x32000000,%esp
    1be9:	01 00                	add    %eax,(%eax)
    1beb:	00 0c 54             	add    %cl,(%esp,%edx,2)
    1bee:	00 00                	add    %al,(%eax)
    1bf0:	00 01                	add    %al,(%ecx)
    1bf2:	00 02                	add    %al,(%edx)
    1bf4:	06                   	push   %es
    1bf5:	06                   	push   %es
    1bf6:	00 00                	add    %al,(%eax)
    1bf8:	02 53 ef             	add    -0x11(%ebx),%dl
    1bfb:	00 00                	add    %al,(%eax)
    1bfd:	00 05 04 02 5f 5e    	add    %al,0x5e5f0204
    1c03:	01 00                	add    %eax,(%eax)
    1c05:	00 06                	add    %al,(%esi)
    1c07:	98                   	cwtl   
    1c08:	06                   	push   %es
    1c09:	00 00                	add    %al,(%eax)
    1c0b:	02 61 32             	add    0x32(%ecx),%ah
    1c0e:	01 00                	add    %eax,(%eax)
    1c10:	00 00                	add    %al,(%eax)
    1c12:	06                   	push   %es
    1c13:	b6 07                	mov    $0x7,%dh
    1c15:	00 00                	add    %al,(%eax)
    1c17:	02 62 32             	add    0x32(%edx),%ah
    1c1a:	01 00                	add    %eax,(%eax)
    1c1c:	00 02                	add    %al,(%edx)
    1c1e:	00 05 02 02 6b 7f    	add    %al,0x7f6b0202
    1c24:	01 00                	add    %eax,(%eax)
    1c26:	00 06                	add    %al,(%esi)
    1c28:	9e                   	sahf   
    1c29:	05 00 00 02 6d       	add    $0x6d020000,%eax
    1c2e:	25 00 00 00 00       	and    $0x0,%eax
    1c33:	06                   	push   %es
    1c34:	92                   	xchg   %eax,%edx
    1c35:	06                   	push   %es
    1c36:	00 00                	add    %al,(%eax)
    1c38:	02 6e 25             	add    0x25(%esi),%ch
    1c3b:	00 00                	add    %al,(%eax)
    1c3d:	00 01                	add    %al,(%ecx)
    1c3f:	00 0d 02 02 69 98    	add    %cl,0x98690202
    1c45:	01 00                	add    %eax,(%eax)
    1c47:	00 0a                	add    %cl,(%edx)
    1c49:	5e                   	pop    %esi
    1c4a:	01 00                	add    %eax,(%eax)
    1c4c:	00 09                	add    %cl,(%ecx)
    1c4e:	99                   	cltd   
    1c4f:	06                   	push   %es
    1c50:	00 00                	add    %al,(%eax)
    1c52:	02 72 37             	add    0x37(%edx),%dh
    1c55:	00 00                	add    %al,(%eax)
    1c57:	00 00                	add    %al,(%eax)
    1c59:	05 04 02 67 b3       	add    $0xb3670204,%eax
    1c5e:	01 00                	add    %eax,(%eax)
    1c60:	00 0e                	add    %cl,(%esi)
    1c62:	7f 01                	jg     1c65 <mbh-0x2fe39b>
    1c64:	00 00                	add    %al,(%eax)
    1c66:	00 06                	add    %al,(%esi)
    1c68:	b7 07                	mov    $0x7,%bh
    1c6a:	00 00                	add    %al,(%eax)
    1c6c:	02 76 37             	add    0x37(%esi),%dh
    1c6f:	00 00                	add    %al,(%eax)
    1c71:	00 02                	add    %al,(%edx)
    1c73:	00 07                	add    %al,(%edi)
    1c75:	ce                   	into   
    1c76:	06                   	push   %es
    1c77:	00 00                	add    %al,(%eax)
    1c79:	04 02                	add    $0x2,%al
    1c7b:	58                   	pop    %eax
    1c7c:	eb 01                	jmp    1c7f <mbh-0x2fe381>
    1c7e:	00 00                	add    %al,(%eax)
    1c80:	08 72 61             	or     %dh,0x61(%edx)
    1c83:	77 00                	ja     1c85 <mbh-0x2fe37b>
    1c85:	02 5a 49             	add    0x49(%edx),%bl
    1c88:	00 00                	add    %al,(%eax)
    1c8a:	00 09                	add    %cl,(%ecx)
    1c8c:	f4                   	hlt    
    1c8d:	06                   	push   %es
    1c8e:	00 00                	add    %al,(%eax)
    1c90:	02 5b 86             	add    -0x7a(%ebx),%bl
    1c93:	00 00                	add    %al,(%eax)
    1c95:	00 09                	add    %cl,(%ecx)
    1c97:	64 06                	fs push %es
    1c99:	00 00                	add    %al,(%eax)
    1c9b:	02 5c eb 01          	add    0x1(%ebx,%ebp,8),%bl
    1c9f:	00 00                	add    %al,(%eax)
    1ca1:	0a 3d 01 00 00 0a    	or     0xa000001,%bh
    1ca7:	98                   	cwtl   
    1ca8:	01 00                	add    %eax,(%eax)
    1caa:	00 00                	add    %al,(%eax)
    1cac:	0b 25 00 00 00 fb    	or     0xfb000000,%esp
    1cb2:	01 00                	add    %eax,(%eax)
    1cb4:	00 0c 54             	add    %cl,(%esp,%edx,2)
    1cb7:	00 00                	add    %al,(%eax)
    1cb9:	00 03                	add    %al,(%ebx)
    1cbb:	00 02                	add    %al,(%edx)
    1cbd:	38 07                	cmp    %al,(%edi)
    1cbf:	00 00                	add    %al,(%eax)
    1cc1:	02 7a b3             	add    -0x4d(%edx),%bh
    1cc4:	01 00                	add    %eax,(%eax)
    1cc6:	00 05 08 02 86 27    	add    %al,0x27860208
    1ccc:	02 00                	add    (%eax),%al
    1cce:	00 06                	add    %al,(%esi)
    1cd0:	84 06                	test   %al,(%esi)
    1cd2:	00 00                	add    %al,(%eax)
    1cd4:	02 88 fb 01 00 00    	add    0x1fb(%eax),%cl
    1cda:	00 06                	add    %al,(%esi)
    1cdc:	ee                   	out    %al,(%dx)
    1cdd:	06                   	push   %es
    1cde:	00 00                	add    %al,(%eax)
    1ce0:	02 89 fb 01 00 00    	add    0x1fb(%ecx),%cl
    1ce6:	04 00                	add    $0x0,%al
    1ce8:	05 02 02 96 48       	add    $0x48960202,%eax
    1ced:	02 00                	add    (%eax),%al
    1cef:	00 06                	add    %al,(%esi)
    1cf1:	9e                   	sahf   
    1cf2:	05 00 00 02 98       	add    $0x98020000,%eax
    1cf7:	25 00 00 00 00       	and    $0x0,%eax
    1cfc:	06                   	push   %es
    1cfd:	92                   	xchg   %eax,%edx
    1cfe:	06                   	push   %es
    1cff:	00 00                	add    %al,(%eax)
    1d01:	02 99 25 00 00 00    	add    0x25(%ecx),%bl
    1d07:	01 00                	add    %eax,(%eax)
    1d09:	0d 02 02 94 61       	or     $0x61940202,%eax
    1d0e:	02 00                	add    (%eax),%al
    1d10:	00 0a                	add    %cl,(%edx)
    1d12:	27                   	daa    
    1d13:	02 00                	add    (%eax),%al
    1d15:	00 09                	add    %cl,(%ecx)
    1d17:	99                   	cltd   
    1d18:	06                   	push   %es
    1d19:	00 00                	add    %al,(%eax)
    1d1b:	02 9d 37 00 00 00    	add    0x37(%ebp),%bl
    1d21:	00 05 04 02 92 7c    	add    %al,0x7c920204
    1d27:	02 00                	add    (%eax),%al
    1d29:	00 0e                	add    %cl,(%esi)
    1d2b:	48                   	dec    %eax
    1d2c:	02 00                	add    (%eax),%al
    1d2e:	00 00                	add    %al,(%eax)
    1d30:	06                   	push   %es
    1d31:	b7 07                	mov    $0x7,%bh
    1d33:	00 00                	add    %al,(%eax)
    1d35:	02 a1 37 00 00 00    	add    0x37(%ecx),%ah
    1d3b:	02 00                	add    (%eax),%al
    1d3d:	0d 04 02 90 95       	or     $0x95900204,%eax
    1d42:	02 00                	add    (%eax),%al
    1d44:	00 0a                	add    %cl,(%edx)
    1d46:	61                   	popa   
    1d47:	02 00                	add    (%eax),%al
    1d49:	00 08                	add    %cl,(%eax)
    1d4b:	6c                   	insb   (%dx),%es:(%edi)
    1d4c:	6f                   	outsl  %ds:(%esi),(%dx)
    1d4d:	77 00                	ja     1d4f <mbh-0x2fe2b1>
    1d4f:	02 a5 49 00 00 00    	add    0x49(%ebp),%ah
    1d55:	00 05 08 02 8e b0    	add    %al,0xb08e0208
    1d5b:	02 00                	add    (%eax),%al
    1d5d:	00 0e                	add    %cl,(%esi)
    1d5f:	7c 02                	jl     1d63 <mbh-0x2fe29d>
    1d61:	00 00                	add    %al,(%eax)
    1d63:	00 06                	add    %al,(%esi)
    1d65:	ef                   	out    %eax,(%dx)
    1d66:	06                   	push   %es
    1d67:	00 00                	add    %al,(%eax)
    1d69:	02 a9 49 00 00 00    	add    0x49(%ecx),%ch
    1d6f:	04 00                	add    $0x0,%al
    1d71:	07                   	pop    %es
    1d72:	2d 06 00 00 08       	sub    $0x8000006,%eax
    1d77:	02 7f e8             	add    -0x18(%edi),%bh
    1d7a:	02 00                	add    (%eax),%al
    1d7c:	00 08                	add    %cl,(%eax)
    1d7e:	72 61                	jb     1de1 <mbh-0x2fe21f>
    1d80:	77 00                	ja     1d82 <mbh-0x2fe27e>
    1d82:	02 81 5b 00 00 00    	add    0x5b(%ecx),%al
    1d88:	09 f4                	or     %esi,%esp
    1d8a:	06                   	push   %es
    1d8b:	00 00                	add    %al,(%eax)
    1d8d:	02 82 98 00 00 00    	add    0x98(%edx),%al
    1d93:	09 64 06 00          	or     %esp,0x0(%esi,%eax,1)
    1d97:	00 02                	add    %al,(%edx)
    1d99:	83 e8 02             	sub    $0x2,%eax
    1d9c:	00 00                	add    %al,(%eax)
    1d9e:	0a 06                	or     (%esi),%al
    1da0:	02 00                	add    (%eax),%al
    1da2:	00 0a                	add    %cl,(%edx)
    1da4:	95                   	xchg   %eax,%ebp
    1da5:	02 00                	add    (%eax),%al
    1da7:	00 00                	add    %al,(%eax)
    1da9:	0b 25 00 00 00 f8    	or     0xf8000000,%esp
    1daf:	02 00                	add    (%eax),%al
    1db1:	00 0c 54             	add    %cl,(%esp,%edx,2)
    1db4:	00 00                	add    %al,(%eax)
    1db6:	00 07                	add    %al,(%edi)
    1db8:	00 02                	add    %al,(%edx)
    1dba:	cb                   	lret   
    1dbb:	07                   	pop    %es
    1dbc:	00 00                	add    %al,(%eax)
    1dbe:	02 ad b0 02 00 00    	add    0x2b0(%ebp),%ch
    1dc4:	0f 04                	(bad)  
    1dc6:	49                   	dec    %ecx
    1dc7:	00 00                	add    %al,(%eax)
    1dc9:	00 10                	add    %dl,(%eax)
    1dcb:	e1 0c                	loope  1dd9 <mbh-0x2fe227>
    1dcd:	00 00                	add    %al,(%eax)
    1dcf:	04 03                	add    $0x3,%al
    1dd1:	26 4d                	es dec %ebp
    1dd3:	04 00                	add    $0x0,%al
    1dd5:	00 11                	add    %dl,(%ecx)
    1dd7:	63 66 00             	arpl   %sp,0x0(%esi)
    1dda:	03 28                	add    (%eax),%ebp
    1ddc:	49                   	dec    %ecx
    1ddd:	00 00                	add    %al,(%eax)
    1ddf:	00 04 01             	add    %al,(%ecx,%eax,1)
    1de2:	1f                   	pop    %ds
    1de3:	00 11                	add    %dl,(%ecx)
    1de5:	72 31                	jb     1e18 <mbh-0x2fe1e8>
    1de7:	00 03                	add    %al,(%ebx)
    1de9:	29 49 00             	sub    %ecx,0x0(%ecx)
    1dec:	00 00                	add    %al,(%eax)
    1dee:	04 01                	add    $0x1,%al
    1df0:	1e                   	push   %ds
    1df1:	00 11                	add    %dl,(%ecx)
    1df3:	70 66                	jo     1e5b <mbh-0x2fe1a5>
    1df5:	00 03                	add    %al,(%ebx)
    1df7:	2a 49 00             	sub    0x0(%ecx),%cl
    1dfa:	00 00                	add    %al,(%eax)
    1dfc:	04 01                	add    $0x1,%al
    1dfe:	1d 00 11 72 32       	sbb    $0x32721100,%eax
    1e03:	00 03                	add    %al,(%ebx)
    1e05:	2b 49 00             	sub    0x0(%ecx),%ecx
    1e08:	00 00                	add    %al,(%eax)
    1e0a:	04 01                	add    $0x1,%al
    1e0c:	1c 00                	sbb    $0x0,%al
    1e0e:	11 61 66             	adc    %esp,0x66(%ecx)
    1e11:	00 03                	add    %al,(%ebx)
    1e13:	2c 49                	sub    $0x49,%al
    1e15:	00 00                	add    %al,(%eax)
    1e17:	00 04 01             	add    %al,(%ecx,%eax,1)
    1e1a:	1b 00                	sbb    (%eax),%eax
    1e1c:	11 72 33             	adc    %esi,0x33(%edx)
    1e1f:	00 03                	add    %al,(%ebx)
    1e21:	2d 49 00 00 00       	sub    $0x49,%eax
    1e26:	04 01                	add    $0x1,%al
    1e28:	1a 00                	sbb    (%eax),%al
    1e2a:	11 7a 66             	adc    %edi,0x66(%edx)
    1e2d:	00 03                	add    %al,(%ebx)
    1e2f:	2e 49                	cs dec %ecx
    1e31:	00 00                	add    %al,(%eax)
    1e33:	00 04 01             	add    %al,(%ecx,%eax,1)
    1e36:	19 00                	sbb    %eax,(%eax)
    1e38:	11 73 66             	adc    %esi,0x66(%ebx)
    1e3b:	00 03                	add    %al,(%ebx)
    1e3d:	2f                   	das    
    1e3e:	49                   	dec    %ecx
    1e3f:	00 00                	add    %al,(%eax)
    1e41:	00 04 01             	add    %al,(%ecx,%eax,1)
    1e44:	18 00                	sbb    %al,(%eax)
    1e46:	11 74 66 00          	adc    %esi,0x0(%esi,%eiz,2)
    1e4a:	03 31                	add    (%ecx),%esi
    1e4c:	49                   	dec    %ecx
    1e4d:	00 00                	add    %al,(%eax)
    1e4f:	00 04 01             	add    %al,(%ecx,%eax,1)
    1e52:	17                   	pop    %ss
    1e53:	00 11                	add    %dl,(%ecx)
    1e55:	69 74 00 03 32 49 00 	imul   $0x4932,0x3(%eax,%eax,1),%esi
    1e5c:	00 
    1e5d:	00 04 01             	add    %al,(%ecx,%eax,1)
    1e60:	16                   	push   %ss
    1e61:	00 11                	add    %dl,(%ecx)
    1e63:	64 66 00 03          	data16 add %al,%fs:(%ebx)
    1e67:	33 49 00             	xor    0x0(%ecx),%ecx
    1e6a:	00 00                	add    %al,(%eax)
    1e6c:	04 01                	add    $0x1,%al
    1e6e:	15 00 11 6f 66       	adc    $0x666f1100,%eax
    1e73:	00 03                	add    %al,(%ebx)
    1e75:	34 49                	xor    $0x49,%al
    1e77:	00 00                	add    %al,(%eax)
    1e79:	00 04 01             	add    %al,(%ecx,%eax,1)
    1e7c:	14 00                	adc    $0x0,%al
    1e7e:	12 2b                	adc    (%ebx),%ch
    1e80:	0d 00 00 03 35       	or     $0x35030000,%eax
    1e85:	49                   	dec    %ecx
    1e86:	00 00                	add    %al,(%eax)
    1e88:	00 04 02             	add    %al,(%edx,%eax,1)
    1e8b:	12 00                	adc    (%eax),%al
    1e8d:	11 6e 74             	adc    %ebp,0x74(%esi)
    1e90:	00 03                	add    %al,(%ebx)
    1e92:	36 49                	ss dec %ecx
    1e94:	00 00                	add    %al,(%eax)
    1e96:	00 04 01             	add    %al,(%ecx,%eax,1)
    1e99:	11 00                	adc    %eax,(%eax)
    1e9b:	11 72 34             	adc    %esi,0x34(%edx)
    1e9e:	00 03                	add    %al,(%ebx)
    1ea0:	37                   	aaa    
    1ea1:	49                   	dec    %ecx
    1ea2:	00 00                	add    %al,(%eax)
    1ea4:	00 04 01             	add    %al,(%ecx,%eax,1)
    1ea7:	10 00                	adc    %al,(%eax)
    1ea9:	11 72 66             	adc    %esi,0x66(%edx)
    1eac:	00 03                	add    %al,(%ebx)
    1eae:	39 49 00             	cmp    %ecx,0x0(%ecx)
    1eb1:	00 00                	add    %al,(%eax)
    1eb3:	04 01                	add    $0x1,%al
    1eb5:	0f 00 11             	lldt   (%ecx)
    1eb8:	76 6d                	jbe    1f27 <mbh-0x2fe0d9>
    1eba:	00 03                	add    %al,(%ebx)
    1ebc:	3a 49 00             	cmp    0x0(%ecx),%cl
    1ebf:	00 00                	add    %al,(%eax)
    1ec1:	04 01                	add    $0x1,%al
    1ec3:	0e                   	push   %cs
    1ec4:	00 11                	add    %dl,(%ecx)
    1ec6:	61                   	popa   
    1ec7:	63 00                	arpl   %ax,(%eax)
    1ec9:	03 3b                	add    (%ebx),%edi
    1ecb:	49                   	dec    %ecx
    1ecc:	00 00                	add    %al,(%eax)
    1ece:	00 04 01             	add    %al,(%ecx,%eax,1)
    1ed1:	0d 00 11 76 69       	or     $0x69761100,%eax
    1ed6:	74 00                	je     1ed8 <mbh-0x2fe128>
    1ed8:	03 3c 49             	add    (%ecx,%ecx,2),%edi
    1edb:	00 00                	add    %al,(%eax)
    1edd:	00 04 01             	add    %al,(%ecx,%eax,1)
    1ee0:	0c 00                	or     $0x0,%al
    1ee2:	11 76 69             	adc    %esi,0x69(%esi)
    1ee5:	70 00                	jo     1ee7 <mbh-0x2fe119>
    1ee7:	03 3e                	add    (%esi),%edi
    1ee9:	49                   	dec    %ecx
    1eea:	00 00                	add    %al,(%eax)
    1eec:	00 04 01             	add    %al,(%ecx,%eax,1)
    1eef:	0b 00                	or     (%eax),%eax
    1ef1:	11 69 64             	adc    %ebp,0x64(%ecx)
    1ef4:	00 03                	add    %al,(%ebx)
    1ef6:	3f                   	aas    
    1ef7:	49                   	dec    %ecx
    1ef8:	00 00                	add    %al,(%eax)
    1efa:	00 04 01             	add    %al,(%ecx,%eax,1)
    1efd:	0a 00                	or     (%eax),%al
    1eff:	11 72 35             	adc    %esi,0x35(%edx)
    1f02:	00 03                	add    %al,(%ebx)
    1f04:	40                   	inc    %eax
    1f05:	49                   	dec    %ecx
    1f06:	00 00                	add    %al,(%eax)
    1f08:	00 04 0a             	add    %al,(%edx,%ecx,1)
    1f0b:	00 00                	add    %al,(%eax)
    1f0d:	00 02                	add    %al,(%edx)
    1f0f:	7b 0c                	jnp    1f1d <mbh-0x2fe0e3>
    1f11:	00 00                	add    %al,(%eax)
    1f13:	03 42 09             	add    0x9(%edx),%eax
    1f16:	03 00                	add    (%eax),%eax
    1f18:	00 07                	add    %al,(%edi)
    1f1a:	ba 0c 00 00 04       	mov    $0x400000c,%edx
    1f1f:	03 44 6f 04          	add    0x4(%edi,%ebp,2),%eax
    1f23:	00 00                	add    %al,(%eax)
    1f25:	0a 4d 04             	or     0x4(%ebp),%cl
    1f28:	00 00                	add    %al,(%eax)
    1f2a:	0a fb                	or     %bl,%bh
    1f2c:	01 00                	add    %eax,(%eax)
    1f2e:	00 00                	add    %al,(%eax)
    1f30:	02 e2                	add    %dl,%ah
    1f32:	0a 00                	or     (%eax),%al
    1f34:	00 03                	add    %al,(%ebx)
    1f36:	49                   	dec    %ecx
    1f37:	58                   	pop    %eax
    1f38:	04 00                	add    $0x0,%al
    1f3a:	00 05 20 03 5a e3    	add    %al,0xe35a0320
    1f40:	04 00                	add    $0x0,%al
    1f42:	00 13                	add    %dl,(%ebx)
    1f44:	65 61                	gs popa 
    1f46:	78 00                	js     1f48 <mbh-0x2fe0b8>
    1f48:	03 5c fb 01          	add    0x1(%ebx,%edi,8),%ebx
    1f4c:	00 00                	add    %al,(%eax)
    1f4e:	00 13                	add    %dl,(%ebx)
    1f50:	65 63 78 00          	arpl   %di,%gs:0x0(%eax)
    1f54:	03 5d fb             	add    -0x5(%ebp),%ebx
    1f57:	01 00                	add    %eax,(%eax)
    1f59:	00 04 13             	add    %al,(%ebx,%edx,1)
    1f5c:	65 64 78 00          	gs fs js 1f60 <mbh-0x2fe0a0>
    1f60:	03 5e fb             	add    -0x5(%esi),%ebx
    1f63:	01 00                	add    %eax,(%eax)
    1f65:	00 08                	add    %cl,(%eax)
    1f67:	13 65 62             	adc    0x62(%ebp),%esp
    1f6a:	78 00                	js     1f6c <mbh-0x2fe094>
    1f6c:	03 5f fb             	add    -0x5(%edi),%ebx
    1f6f:	01 00                	add    %eax,(%eax)
    1f71:	00 0c 13             	add    %cl,(%ebx,%edx,1)
    1f74:	65 73 70             	gs jae 1fe7 <mbh-0x2fe019>
    1f77:	00 03                	add    %al,(%ebx)
    1f79:	60                   	pusha  
    1f7a:	fb                   	sti    
    1f7b:	01 00                	add    %eax,(%eax)
    1f7d:	00 10                	add    %dl,(%eax)
    1f7f:	13 65 62             	adc    0x62(%ebp),%esp
    1f82:	70 00                	jo     1f84 <mbh-0x2fe07c>
    1f84:	03 61 fb             	add    -0x5(%ecx),%esp
    1f87:	01 00                	add    %eax,(%eax)
    1f89:	00 14 13             	add    %dl,(%ebx,%edx,1)
    1f8c:	65 73 69             	gs jae 1ff8 <mbh-0x2fe008>
    1f8f:	00 03                	add    %al,(%ebx)
    1f91:	62                   	(bad)  
    1f92:	fb                   	sti    
    1f93:	01 00                	add    %eax,(%eax)
    1f95:	00 18                	add    %bl,(%eax)
    1f97:	13 65 64             	adc    0x64(%ebp),%esp
    1f9a:	69 00 03 63 fb 01    	imul   $0x1fb6303,(%eax),%eax
    1fa0:	00 00                	add    %al,(%eax)
    1fa2:	1c 00                	sbb    $0x0,%al
    1fa4:	07                   	pop    %es
    1fa5:	1a 0b                	sbb    (%ebx),%cl
    1fa7:	00 00                	add    %al,(%eax)
    1fa9:	20 03                	and    %al,(%ebx)
    1fab:	58                   	pop    %eax
    1fac:	00 05 00 00 0a 7a    	add    %al,0x7a0a0000
    1fb2:	04 00                	add    $0x0,%al
    1fb4:	00 08                	add    %cl,(%eax)
    1fb6:	72 61                	jb     2019 <mbh-0x2fdfe7>
    1fb8:	77 00                	ja     1fba <mbh-0x2fe046>
    1fba:	03 67 00             	add    0x0(%edi),%esp
    1fbd:	05 00 00 00 0b       	add    $0xb000000,%eax
    1fc2:	fb                   	sti    
    1fc3:	01 00                	add    %eax,(%eax)
    1fc5:	00 10                	add    %dl,(%eax)
    1fc7:	05 00 00 0c 54       	add    $0x540c0000,%eax
    1fcc:	00 00                	add    %al,(%eax)
    1fce:	00 07                	add    %al,(%edi)
    1fd0:	00 02                	add    %al,(%edx)
    1fd2:	73 0d                	jae    1fe1 <mbh-0x2fe01f>
    1fd4:	00 00                	add    %al,(%eax)
    1fd6:	03 69 e3             	add    -0x1d(%ecx),%ebp
    1fd9:	04 00                	add    $0x0,%al
    1fdb:	00 05 20 03 70 84    	add    %al,0x84700320
    1fe1:	05 00 00 13 65       	add    $0x65130000,%eax
    1fe6:	64 69 00 03 72 fb 01 	imul   $0x1fb7203,%fs:(%eax),%eax
    1fed:	00 00                	add    %al,(%eax)
    1fef:	00 13                	add    %dl,(%ebx)
    1ff1:	65 73 69             	gs jae 205d <mbh-0x2fdfa3>
    1ff4:	00 03                	add    %al,(%ebx)
    1ff6:	73 fb                	jae    1ff3 <mbh-0x2fe00d>
    1ff8:	01 00                	add    %eax,(%eax)
    1ffa:	00 04 13             	add    %al,(%ebx,%edx,1)
    1ffd:	65 62 70 00          	bound  %esi,%gs:0x0(%eax)
    2001:	03 74 fb 01          	add    0x1(%ebx,%edi,8),%esi
    2005:	00 00                	add    %al,(%eax)
    2007:	08 13                	or     %dl,(%ebx)
    2009:	65 73 70             	gs jae 207c <mbh-0x2fdf84>
    200c:	00 03                	add    %al,(%ebx)
    200e:	75 fb                	jne    200b <mbh-0x2fdff5>
    2010:	01 00                	add    %eax,(%eax)
    2012:	00 0c 13             	add    %cl,(%ebx,%edx,1)
    2015:	65 62 78 00          	bound  %edi,%gs:0x0(%eax)
    2019:	03 76 fb             	add    -0x5(%esi),%esi
    201c:	01 00                	add    %eax,(%eax)
    201e:	00 10                	add    %dl,(%eax)
    2020:	13 65 64             	adc    0x64(%ebp),%esp
    2023:	78 00                	js     2025 <mbh-0x2fdfdb>
    2025:	03 77 fb             	add    -0x5(%edi),%esi
    2028:	01 00                	add    %eax,(%eax)
    202a:	00 14 13             	add    %dl,(%ebx,%edx,1)
    202d:	65 63 78 00          	arpl   %di,%gs:0x0(%eax)
    2031:	03 78 fb             	add    -0x5(%eax),%edi
    2034:	01 00                	add    %eax,(%eax)
    2036:	00 18                	add    %bl,(%eax)
    2038:	13 65 61             	adc    0x61(%ebp),%esp
    203b:	78 00                	js     203d <mbh-0x2fdfc3>
    203d:	03 79 fb             	add    -0x5(%ecx),%edi
    2040:	01 00                	add    %eax,(%eax)
    2042:	00 1c 00             	add    %bl,(%eax,%eax,1)
    2045:	07                   	pop    %es
    2046:	5f                   	pop    %edi
    2047:	0b 00                	or     (%eax),%eax
    2049:	00 20                	add    %ah,(%eax)
    204b:	03 6e a1             	add    -0x5f(%esi),%ebp
    204e:	05 00 00 0a 1b       	add    $0x1b0a0000,%eax
    2053:	05 00 00 08 72       	add    $0x72080000,%eax
    2058:	61                   	popa   
    2059:	77 00                	ja     205b <mbh-0x2fdfa5>
    205b:	03 7d 00             	add    0x0(%ebp),%edi
    205e:	05 00 00 00 02       	add    $0x2000000,%eax
    2063:	52                   	push   %edx
    2064:	0c 00                	or     $0x0,%al
    2066:	00 03                	add    %al,(%ebx)
    2068:	7f 84                	jg     1fee <mbh-0x2fe012>
    206a:	05 00 00 05 08       	add    $0x8050000,%eax
    206f:	04 8f                	add    $0x8f,%al
    2071:	3a 06                	cmp    (%esi),%al
    2073:	00 00                	add    %al,(%eax)
    2075:	12 98 0c 00 00 04    	adc    0x400000c(%eax),%bl
    207b:	91                   	xchg   %eax,%ecx
    207c:	5b                   	pop    %ebx
    207d:	00 00                	add    %al,(%eax)
    207f:	00 08                	add    %cl,(%eax)
    2081:	10 30                	adc    %dh,(%eax)
    2083:	00 12                	add    %dl,(%edx)
    2085:	4d                   	dec    %ebp
    2086:	0d 00 00 04 92       	or     $0x92040000,%eax
    208b:	5b                   	pop    %ebx
    208c:	00 00                	add    %al,(%eax)
    208e:	00 08                	add    %cl,(%eax)
    2090:	10 20                	adc    %ah,(%eax)
    2092:	00 11                	add    %dl,(%ecx)
    2094:	69 73 74 00 04 93 5b 	imul   $0x5b930400,0x74(%ebx),%esi
    209b:	00 00                	add    %al,(%eax)
    209d:	00 08                	add    %cl,(%eax)
    209f:	03 1d 00 12 56 0d    	add    0xd561200,%ebx
    20a5:	00 00                	add    %al,(%eax)
    20a7:	04 94                	add    $0x94,%al
    20a9:	5b                   	pop    %ebx
    20aa:	00 00                	add    %al,(%eax)
    20ac:	00 08                	add    %cl,(%eax)
    20ae:	05 18 00 12 75       	add    $0x75120018,%eax
    20b3:	04 00                	add    $0x0,%al
    20b5:	00 04 95 5b 00 00 00 	add    %al,0x5b(,%edx,4)
    20bc:	08 04 14             	or     %al,(%esp,%edx,1)
    20bf:	00 12                	add    %dl,(%edx)
    20c1:	5d                   	pop    %ebp
    20c2:	0d 00 00 04 96       	or     $0x96040000,%eax
    20c7:	5b                   	pop    %ebx
    20c8:	00 00                	add    %al,(%eax)
    20ca:	00 08                	add    %cl,(%eax)
    20cc:	01 13                	add    %edx,(%ebx)
    20ce:	00 11                	add    %dl,(%ecx)
    20d0:	64 70 6c             	fs jo  213f <mbh-0x2fdec1>
    20d3:	00 04 97             	add    %al,(%edi,%edx,4)
    20d6:	5b                   	pop    %ebx
    20d7:	00 00                	add    %al,(%eax)
    20d9:	00 08                	add    %cl,(%eax)
    20db:	02 11                	add    (%ecx),%dl
    20dd:	00 11                	add    %dl,(%ecx)
    20df:	70 00                	jo     20e1 <mbh-0x2fdf1f>
    20e1:	04 98                	add    $0x98,%al
    20e3:	5b                   	pop    %ebx
    20e4:	00 00                	add    %al,(%eax)
    20e6:	00 08                	add    %cl,(%eax)
    20e8:	01 10                	add    %edx,(%eax)
    20ea:	00 12                	add    %dl,(%edx)
    20ec:	a1 0c 00 00 04       	mov    0x400000c,%eax
    20f1:	99                   	cltd   
    20f2:	5b                   	pop    %ebx
    20f3:	00 00                	add    %al,(%eax)
    20f5:	00 08                	add    %cl,(%eax)
    20f7:	10 00                	adc    %al,(%eax)
    20f9:	00 00                	add    %al,(%eax)
    20fb:	07                   	pop    %es
    20fc:	81 0b 00 00 08 04    	orl    $0x4080000,(%ebx)
    2102:	8d 51 06             	lea    0x6(%ecx),%edx
    2105:	00 00                	add    %al,(%eax)
    2107:	0a ac 05 00 00 0a f8 	or     -0x7f60000(%ebp,%eax,1),%ch
    210e:	02 00                	add    (%eax),%al
    2110:	00 00                	add    %al,(%eax)
    2112:	02 aa 0c 00 00 04    	add    0x400000c(%edx),%ch
    2118:	9f                   	lahf   
    2119:	3a 06                	cmp    (%esi),%al
    211b:	00 00                	add    %al,(%eax)
    211d:	0d 04 04 a7 7b       	or     $0x7ba70404,%eax
    2122:	06                   	push   %es
    2123:	00 00                	add    %al,(%eax)
    2125:	09 99 05 00 00 04    	or     %ebx,0x4000005(%ecx)
    212b:	a9 c3 00 00 00       	test   $0xc3,%eax
    2130:	09 46 0c             	or     %eax,0xc(%esi)
    2133:	00 00                	add    %al,(%eax)
    2135:	04 aa                	add    $0xaa,%al
    2137:	7b 06                	jnp    213f <mbh-0x2fdec1>
    2139:	00 00                	add    %al,(%eax)
    213b:	00 0f                	add    %cl,(%edi)
    213d:	04 51                	add    $0x51,%al
    213f:	06                   	push   %es
    2140:	00 00                	add    %al,(%eax)
    2142:	10 04 0c             	adc    %al,(%esp,%ecx,1)
    2145:	00 00                	add    %al,(%eax)
    2147:	06                   	push   %es
    2148:	04 a4                	add    $0xa4,%al
    214a:	a0 06 00 00 06       	mov    0x6000006,%al
    214f:	e6 0b                	out    %al,$0xb
    2151:	00 00                	add    %al,(%eax)
    2153:	04 a6                	add    $0xa6,%al
    2155:	37                   	aaa    
    2156:	00 00                	add    %al,(%eax)
    2158:	00 00                	add    %al,(%eax)
    215a:	0e                   	push   %cs
    215b:	5c                   	pop    %esp
    215c:	06                   	push   %es
    215d:	00 00                	add    %al,(%eax)
    215f:	02 00                	add    (%eax),%al
    2161:	02 90 0a 00 00 04    	add    0x400000a(%eax),%dl
    2167:	ad                   	lods   %ds:(%esi),%eax
    2168:	81 06 00 00 10 9f    	addl   $0x9f100000,(%esi)
    216e:	0b 00                	or     (%eax),%eax
    2170:	00 08                	add    %cl,(%eax)
    2172:	04 b2                	add    $0xb2,%al
    2174:	db 06                	fildl  (%esi)
    2176:	00 00                	add    %al,(%eax)
    2178:	13 65 73             	adc    0x73(%ebp),%esp
    217b:	70 00                	jo     217d <mbh-0x2fde83>
    217d:	04 b4                	add    $0xb4,%al
    217f:	49                   	dec    %ecx
    2180:	00 00                	add    %al,(%eax)
    2182:	00 00                	add    %al,(%eax)
    2184:	13 73 73             	adc    0x73(%ebx),%esi
    2187:	00 04 b5 37 00 00 00 	add    %al,0x37(,%esi,4)
    218e:	04 13                	add    $0x13,%al
    2190:	70 61                	jo     21f3 <mbh-0x2fde0d>
    2192:	64 00 04 b6          	add    %al,%fs:(%esi,%esi,4)
    2196:	37                   	aaa    
    2197:	00 00                	add    %al,(%eax)
    2199:	00 06                	add    %al,(%esi)
    219b:	00 02                	add    %al,(%edx)
    219d:	da 0b                	fimull (%ebx)
    219f:	00 00                	add    %al,(%eax)
    21a1:	04 b8                	add    $0xb8,%al
    21a3:	ab                   	stos   %eax,%es:(%edi)
    21a4:	06                   	push   %es
    21a5:	00 00                	add    %al,(%eax)
    21a7:	14 65                	adc    $0x65,%al
    21a9:	0a 00                	or     (%eax),%al
    21ab:	00 23                	add    %ah,(%ebx)
    21ad:	20 04 ba             	and    %al,(%edx,%edi,4)
    21b0:	24 07                	and    $0x7,%al
    21b2:	00 00                	add    %al,(%eax)
    21b4:	06                   	push   %es
    21b5:	99                   	cltd   
    21b6:	05 00 00 04 bc       	add    $0xbc040000,%eax
    21bb:	37                   	aaa    
    21bc:	00 00                	add    %al,(%eax)
    21be:	00 00                	add    %al,(%eax)
    21c0:	06                   	push   %es
    21c1:	76 0c                	jbe    21cf <mbh-0x2fde31>
    21c3:	00 00                	add    %al,(%eax)
    21c5:	04 bd                	add    $0xbd,%al
    21c7:	24 07                	and    $0x7,%al
    21c9:	00 00                	add    %al,(%eax)
    21cb:	02 13                	add    (%ebx),%dl
    21cd:	69 6f 00 04 be 34 07 	imul   $0x734be04,0x0(%edi),%ebp
    21d4:	00 00                	add    %al,(%eax)
    21d6:	22 15 96 0b 00 00    	and    0xb96,%dl
    21dc:	04 bf                	add    $0xbf,%al
    21de:	25 00 00 00 22       	and    $0x22000000,%eax
    21e3:	20 00                	and    %al,(%eax)
    21e5:	0b 25 00 00 00 34    	or     0x34000000,%esp
    21eb:	07                   	pop    %es
    21ec:	00 00                	add    %al,(%eax)
    21ee:	0c 54                	or     $0x54,%al
    21f0:	00 00                	add    %al,(%eax)
    21f2:	00 1f                	add    %bl,(%edi)
    21f4:	00 0b                	add    %cl,(%ebx)
    21f6:	25 00 00 00 45       	and    $0x45000000,%eax
    21fb:	07                   	pop    %es
    21fc:	00 00                	add    %al,(%eax)
    21fe:	16                   	push   %ss
    21ff:	54                   	push   %esp
    2200:	00 00                	add    %al,(%eax)
    2202:	00 ff                	add    %bh,%bh
    2204:	1f                   	pop    %ds
    2205:	00 02                	add    %al,(%edx)
    2207:	cf                   	iret   
    2208:	0b 00                	or     (%eax),%eax
    220a:	00 04 c1             	add    %al,(%ecx,%eax,8)
    220d:	e6 06                	out    %al,$0x6
    220f:	00 00                	add    %al,(%eax)
    2211:	05 02 04 c5 76       	add    $0x76c50402,%eax
    2216:	07                   	pop    %es
    2217:	00 00                	add    %al,(%eax)
    2219:	11 6f 6e             	adc    %ebp,0x6e(%edi)
    221c:	00 04 c7             	add    %al,(%edi,%eax,8)
    221f:	37                   	aaa    
    2220:	00 00                	add    %al,(%eax)
    2222:	00 02                	add    %al,(%edx)
    2224:	01 0f                	add    %ecx,(%edi)
    2226:	00 11                	add    %dl,(%ecx)
    2228:	70 61                	jo     228b <mbh-0x2fdd75>
    222a:	64 00 04 c8          	add    %al,%fs:(%eax,%ecx,8)
    222e:	37                   	aaa    
    222f:	00 00                	add    %al,(%eax)
    2231:	00 02                	add    %al,(%edx)
    2233:	0f 00 00             	sldt   (%eax)
    2236:	00 07                	add    %al,(%edi)
    2238:	02 0b                	add    (%ebx),%cl
    223a:	00 00                	add    %al,(%eax)
    223c:	02 04 c3             	add    (%ebx,%eax,8),%al
    223f:	93                   	xchg   %eax,%ebx
    2240:	07                   	pop    %es
    2241:	00 00                	add    %al,(%eax)
    2243:	0a 50 07             	or     0x7(%eax),%dl
    2246:	00 00                	add    %al,(%eax)
    2248:	08 72 61             	or     %dh,0x61(%edx)
    224b:	77 00                	ja     224d <mbh-0x2fddb3>
    224d:	04 cc                	add    $0xcc,%al
    224f:	37                   	aaa    
    2250:	00 00                	add    %al,(%eax)
    2252:	00 00                	add    %al,(%eax)
    2254:	02 d6                	add    %dh,%dl
    2256:	0c 00                	or     $0x0,%al
    2258:	00 04 ce             	add    %al,(%esi,%ecx,8)
    225b:	76 07                	jbe    2264 <mbh-0x2fdd9c>
    225d:	00 00                	add    %al,(%eax)
    225f:	14 7d                	adc    $0x7d,%al
    2261:	0a 00                	or     (%eax),%al
    2263:	00 89 20 04 d3 c9    	add    %cl,-0x362cfbe0(%ecx)
    2269:	08 00                	or     %al,(%eax)
    226b:	00 06                	add    %al,(%esi)
    226d:	ec                   	in     (%dx),%al
    226e:	0b 00                	or     (%eax),%eax
    2270:	00 04 d5 37 00 00 00 	add    %al,0x37(,%edx,8)
    2277:	00 13                	add    %dl,(%ebx)
    2279:	72 31                	jb     22ac <mbh-0x2fdd54>
    227b:	00 04 d5 37 00 00 00 	add    %al,0x37(,%edx,8)
    2282:	02 13                	add    (%ebx),%dl
    2284:	73 30                	jae    22b6 <mbh-0x2fdd4a>
    2286:	00 04 d7             	add    %al,(%edi,%edx,8)
    2289:	db 06                	fildl  (%esi)
    228b:	00 00                	add    %al,(%eax)
    228d:	04 13                	add    $0x13,%al
    228f:	73 31                	jae    22c2 <mbh-0x2fdd3e>
    2291:	00 04 d8             	add    %al,(%eax,%ebx,8)
    2294:	db 06                	fildl  (%esi)
    2296:	00 00                	add    %al,(%eax)
    2298:	0c 13                	or     $0x13,%al
    229a:	73 32                	jae    22ce <mbh-0x2fdd32>
    229c:	00 04 d9             	add    %al,(%ecx,%ebx,8)
    229f:	db 06                	fildl  (%esi)
    22a1:	00 00                	add    %al,(%eax)
    22a3:	14 13                	adc    $0x13,%al
    22a5:	63 72 33             	arpl   %si,0x33(%edx)
    22a8:	00 04 db             	add    %al,(%ebx,%ebx,8)
    22ab:	49                   	dec    %ecx
    22ac:	00 00                	add    %al,(%eax)
    22ae:	00 1c 13             	add    %bl,(%ebx,%edx,1)
    22b1:	65 69 70 00 04 dc 49 	imul   $0x49dc04,%gs:0x0(%eax),%esi
    22b8:	00 
    22b9:	00 00                	add    %al,(%eax)
    22bb:	20 06                	and    %al,(%esi)
    22bd:	4b                   	dec    %ebx
    22be:	0c 00                	or     $0x0,%al
    22c0:	00 04 dd 6f 04 00 00 	add    %al,0x46f(,%ebx,8)
    22c7:	24 13                	and    $0x13,%al
    22c9:	67 70 72             	addr16 jo 233e <mbh-0x2fdcc2>
    22cc:	00 04 de             	add    %al,(%esi,%ebx,8)
    22cf:	10 05 00 00 28 13    	adc    %al,0x13280000
    22d5:	65 73 00             	gs jae 22d8 <mbh-0x2fdd28>
    22d8:	04 df                	add    $0xdf,%al
    22da:	37                   	aaa    
    22db:	00 00                	add    %al,(%eax)
    22dd:	00 48 13             	add    %cl,0x13(%eax)
    22e0:	72 35                	jb     2317 <mbh-0x2fdce9>
    22e2:	00 04 df             	add    %al,(%edi,%ebx,8)
    22e5:	37                   	aaa    
    22e6:	00 00                	add    %al,(%eax)
    22e8:	00 4a 13             	add    %cl,0x13(%edx)
    22eb:	63 73 00             	arpl   %si,0x0(%ebx)
    22ee:	04 e0                	add    $0xe0,%al
    22f0:	37                   	aaa    
    22f1:	00 00                	add    %al,(%eax)
    22f3:	00 4c 13 72          	add    %cl,0x72(%ebx,%edx,1)
    22f7:	36 00 04 e0          	add    %al,%ss:(%eax,%eiz,8)
    22fb:	37                   	aaa    
    22fc:	00 00                	add    %al,(%eax)
    22fe:	00 4e 13             	add    %cl,0x13(%esi)
    2301:	73 73                	jae    2376 <mbh-0x2fdc8a>
    2303:	00 04 e1             	add    %al,(%ecx,%eiz,8)
    2306:	37                   	aaa    
    2307:	00 00                	add    %al,(%eax)
    2309:	00 50 13             	add    %dl,0x13(%eax)
    230c:	72 37                	jb     2345 <mbh-0x2fdcbb>
    230e:	00 04 e1             	add    %al,(%ecx,%eiz,8)
    2311:	37                   	aaa    
    2312:	00 00                	add    %al,(%eax)
    2314:	00 52 13             	add    %dl,0x13(%edx)
    2317:	64 73 00             	fs jae 231a <mbh-0x2fdce6>
    231a:	04 e2                	add    $0xe2,%al
    231c:	37                   	aaa    
    231d:	00 00                	add    %al,(%eax)
    231f:	00 54 13 72          	add    %dl,0x72(%ebx,%edx,1)
    2323:	38 00                	cmp    %al,(%eax)
    2325:	04 e2                	add    $0xe2,%al
    2327:	37                   	aaa    
    2328:	00 00                	add    %al,(%eax)
    232a:	00 56 13             	add    %dl,0x13(%esi)
    232d:	66 73 00             	data16 jae 2330 <mbh-0x2fdcd0>
    2330:	04 e3                	add    $0xe3,%al
    2332:	37                   	aaa    
    2333:	00 00                	add    %al,(%eax)
    2335:	00 58 13             	add    %bl,0x13(%eax)
    2338:	72 39                	jb     2373 <mbh-0x2fdc8d>
    233a:	00 04 e3             	add    %al,(%ebx,%eiz,8)
    233d:	37                   	aaa    
    233e:	00 00                	add    %al,(%eax)
    2340:	00 5a 13             	add    %bl,0x13(%edx)
    2343:	67 73 00             	addr16 jae 2346 <mbh-0x2fdcba>
    2346:	04 e4                	add    $0xe4,%al
    2348:	37                   	aaa    
    2349:	00 00                	add    %al,(%eax)
    234b:	00 5c 13 72          	add    %bl,0x72(%ebx,%edx,1)
    234f:	31 30                	xor    %esi,(%eax)
    2351:	00 04 e4             	add    %al,(%esp,%eiz,8)
    2354:	37                   	aaa    
    2355:	00 00                	add    %al,(%eax)
    2357:	00 5e 13             	add    %bl,0x13(%esi)
    235a:	6c                   	insb   (%dx),%es:(%edi)
    235b:	64 74 00             	fs je  235e <mbh-0x2fdca2>
    235e:	04 e5                	add    $0xe5,%al
    2360:	37                   	aaa    
    2361:	00 00                	add    %al,(%eax)
    2363:	00 60 13             	add    %ah,0x13(%eax)
    2366:	72 31                	jb     2399 <mbh-0x2fdc67>
    2368:	31 00                	xor    %eax,(%eax)
    236a:	04 e5                	add    $0xe5,%al
    236c:	37                   	aaa    
    236d:	00 00                	add    %al,(%eax)
    236f:	00 62 06             	add    %ah,0x6(%edx)
    2372:	15 0b 00 00 04       	adc    $0x400000b,%eax
    2377:	e7 93                	out    %eax,$0x93
    2379:	07                   	pop    %es
    237a:	00 00                	add    %al,(%eax)
    237c:	64 06                	fs push %es
    237e:	78 0a                	js     238a <mbh-0x2fdc76>
    2380:	00 00                	add    %al,(%eax)
    2382:	04 e8                	add    $0xe8,%al
    2384:	45                   	inc    %ebp
    2385:	07                   	pop    %es
    2386:	00 00                	add    %al,(%eax)
    2388:	66 00 02             	data16 add %al,(%edx)
    238b:	64 0d 00 00 04 ea    	fs or  $0xea040000,%eax
    2391:	9e                   	sahf   
    2392:	07                   	pop    %es
    2393:	00 00                	add    %al,(%eax)
    2395:	05 04 05 44 25       	add    $0x25440504,%eax
    239a:	09 00                	or     %eax,(%eax)
    239c:	00 11                	add    %dl,(%ecx)
    239e:	65 78 74             	gs js  2415 <mbh-0x2fdbeb>
    23a1:	00 05 46 49 00 00    	add    %al,0x4946
    23a7:	00 04 01             	add    %al,(%ecx,%eax,1)
    23aa:	1f                   	pop    %ds
    23ab:	00 11                	add    %dl,(%ecx)
    23ad:	69 64 74 00 05 47 49 	imul   $0x494705,0x0(%esp,%esi,2),%esp
    23b4:	00 
    23b5:	00 00                	add    %al,(%eax)
    23b7:	04 01                	add    $0x1,%al
    23b9:	1e                   	push   %ds
    23ba:	00 11                	add    %dl,(%ecx)
    23bc:	74 69                	je     2427 <mbh-0x2fdbd9>
    23be:	00 05 48 49 00 00    	add    %al,0x4948
    23c4:	00 04 01             	add    %al,(%ecx,%eax,1)
    23c7:	1d 00 11 69 64       	sbb    $0x64691100,%eax
    23cc:	78 00                	js     23ce <mbh-0x2fdc32>
    23ce:	05 49 49 00 00       	add    $0x4949,%eax
    23d3:	00 04 0d 10 00 11 72 	add    %al,0x72110010(,%ecx,1)
    23da:	00 05 4a 49 00 00    	add    %al,0x494a
    23e0:	00 04 10             	add    %al,(%eax,%edx,1)
    23e3:	00 00                	add    %al,(%eax)
    23e5:	00 07                	add    %al,(%edi)
    23e7:	5c                   	pop    %esp
    23e8:	0c 00                	or     $0x0,%al
    23ea:	00 04 05 42 3c 09 00 	add    %al,0x93c42(,%eax,1)
    23f1:	00 0a                	add    %cl,(%edx)
    23f3:	d4 08                	aam    $0x8
    23f5:	00 00                	add    %al,(%eax)
    23f7:	0a fb                	or     %bl,%bh
    23f9:	01 00                	add    %eax,(%eax)
    23fb:	00 00                	add    %al,(%eax)
    23fd:	02 8f 0c 00 00 05    	add    0x500000c(%edi),%cl
    2403:	50                   	push   %eax
    2404:	25 09 00 00 05       	and    $0x5000009,%eax
    2409:	04 05                	add    $0x5,%al
    240b:	57                   	push   %edi
    240c:	a3 09 00 00 11       	mov    %eax,0x11000009
    2411:	70 00                	jo     2413 <mbh-0x2fdbed>
    2413:	05 59 49 00 00       	add    $0x4959,%eax
    2418:	00 04 01             	add    %al,(%ecx,%eax,1)
    241b:	1f                   	pop    %ds
    241c:	00 11                	add    %dl,(%ecx)
    241e:	77 72                	ja     2492 <mbh-0x2fdb6e>
    2420:	00 05 5a 49 00 00    	add    %al,0x495a
    2426:	00 04 01             	add    %al,(%ecx,%eax,1)
    2429:	1e                   	push   %ds
    242a:	00 11                	add    %dl,(%ecx)
    242c:	75 73                	jne    24a1 <mbh-0x2fdb5f>
    242e:	00 05 5b 49 00 00    	add    %al,0x495b
    2434:	00 04 01             	add    %al,(%ecx,%eax,1)
    2437:	1d 00 11 72 73       	sbb    $0x73721100,%eax
    243c:	76 00                	jbe    243e <mbh-0x2fdbc2>
    243e:	05 5c 49 00 00       	add    $0x495c,%eax
    2443:	00 04 01             	add    %al,(%ecx,%eax,1)
    2446:	1c 00                	sbb    $0x0,%al
    2448:	11 69 64             	adc    %ebp,0x64(%ecx)
    244b:	00 05 5d 49 00 00    	add    %al,0x495d
    2451:	00 04 01             	add    %al,(%ecx,%eax,1)
    2454:	1b 00                	sbb    (%eax),%eax
    2456:	11 72 00             	adc    %esi,0x0(%edx)
    2459:	05 5e 49 00 00       	add    $0x495e,%eax
    245e:	00 04 1b             	add    %al,(%ebx,%ebx,1)
    2461:	00 00                	add    %al,(%eax)
    2463:	00 07                	add    %al,(%edi)
    2465:	cc                   	int3   
    2466:	0a 00                	or     (%eax),%al
    2468:	00 04 05 55 ba 09 00 	add    %al,0x9ba55(,%eax,1)
    246f:	00 0a                	add    %cl,(%edx)
    2471:	47                   	inc    %edi
    2472:	09 00                	or     %eax,(%eax)
    2474:	00 0a                	add    %cl,(%edx)
    2476:	fb                   	sti    
    2477:	01 00                	add    %eax,(%eax)
    2479:	00 00                	add    %al,(%eax)
    247b:	02 ef                	add    %bh,%ch
    247d:	0a 00                	or     (%eax),%al
    247f:	00 05 64 a3 09 00    	add    %al,0x9a364
    2485:	00 07                	add    %al,(%edi)
    2487:	b8 0b 00 00 04       	mov    $0x400000b,%eax
    248c:	05 69 eb 09 00       	add    $0x9eb69,%eax
    2491:	00 0a                	add    %cl,(%edx)
    2493:	fb                   	sti    
    2494:	01 00                	add    %eax,(%eax)
    2496:	00 08                	add    %cl,(%eax)
    2498:	73 6c                	jae    2506 <mbh-0x2fdafa>
    249a:	00 05 6d 3c 09 00    	add    %al,0x93c6d
    24a0:	00 08                	add    %cl,(%eax)
    24a2:	70 66                	jo     250a <mbh-0x2fdaf6>
    24a4:	00 05 6e ba 09 00    	add    %al,0x9ba6e
    24aa:	00 00                	add    %al,(%eax)
    24ac:	02 4f 0b             	add    0xb(%edi),%cl
    24af:	00 00                	add    %al,(%eax)
    24b1:	05 70 c5 09 00       	add    $0x9c570,%eax
    24b6:	00 10                	add    %dl,(%eax)
    24b8:	0d 0d 00 00 1c       	or     $0x1c00000d,%eax
    24bd:	06                   	push   %es
    24be:	29 54 0a 00          	sub    %edx,0x0(%edx,%ecx,1)
    24c2:	00 13                	add    %dl,(%ebx)
    24c4:	6e                   	outsb  %ds:(%esi),(%dx)
    24c5:	72 00                	jb     24c7 <mbh-0x2fdb39>
    24c7:	06                   	push   %es
    24c8:	2b fb                	sub    %ebx,%edi
    24ca:	01 00                	add    %eax,(%eax)
    24cc:	00 00                	add    %al,(%eax)
    24ce:	13 65 72             	adc    0x72(%ebp),%esp
    24d1:	72 00                	jb     24d3 <mbh-0x2fdb2d>
    24d3:	06                   	push   %es
    24d4:	2c eb                	sub    $0xeb,%al
    24d6:	09 00                	or     %eax,(%eax)
    24d8:	00 04 13             	add    %al,(%ebx,%edx,1)
    24db:	65 69 70 00 06 2d fb 	imul   $0x1fb2d06,%gs:0x0(%eax),%esi
    24e2:	01 
    24e3:	00 00                	add    %al,(%eax)
    24e5:	08 13                	or     %dl,(%ebx)
    24e7:	63 73 00             	arpl   %si,0x0(%ebx)
    24ea:	06                   	push   %es
    24eb:	2e fb                	cs sti 
    24ed:	01 00                	add    %eax,(%eax)
    24ef:	00 0c 06             	add    %cl,(%esi,%eax,1)
    24f2:	4b                   	dec    %ebx
    24f3:	0c 00                	or     $0x0,%al
    24f5:	00 06                	add    %al,(%esi)
    24f7:	2f                   	das    
    24f8:	6f                   	outsl  %ds:(%esi),(%dx)
    24f9:	04 00                	add    $0x0,%al
    24fb:	00 10                	add    %dl,(%eax)
    24fd:	13 65 73             	adc    0x73(%ebp),%esp
    2500:	70 00                	jo     2502 <mbh-0x2fdafe>
    2502:	06                   	push   %es
    2503:	32 fb                	xor    %bl,%bh
    2505:	01 00                	add    %eax,(%eax)
    2507:	00 14 13             	add    %dl,(%ebx,%edx,1)
    250a:	73 73                	jae    257f <mbh-0x2fda81>
    250c:	00 06                	add    %al,(%esi)
    250e:	33 fb                	xor    %ebx,%edi
    2510:	01 00                	add    %eax,(%eax)
    2512:	00 18                	add    %bl,(%eax)
    2514:	00 02                	add    %al,(%edx)
    2516:	3c 0c                	cmp    $0xc,%al
    2518:	00 00                	add    %al,(%eax)
    251a:	06                   	push   %es
    251b:	35 f6 09 00 00       	xor    $0x9f6,%eax
    2520:	10 19                	adc    %bl,(%ecx)
    2522:	0d 00 00 3c 06       	or     $0x63c0000,%eax
    2527:	38 7e 0a             	cmp    %bh,0xa(%esi)
    252a:	00 00                	add    %al,(%eax)
    252c:	13 67 70             	adc    0x70(%edi),%esp
    252f:	72 00                	jb     2531 <mbh-0x2fdacf>
    2531:	06                   	push   %es
    2532:	3a a1 05 00 00 00    	cmp    0x5(%ecx),%ah
    2538:	0e                   	push   %cs
    2539:	54                   	push   %esp
    253a:	0a 00                	or     (%eax),%al
    253c:	00 20                	add    %ah,(%eax)
    253e:	00 02                	add    %al,(%edx)
    2540:	28 0c 00             	sub    %cl,(%eax,%eax,1)
    2543:	00 06                	add    %al,(%esi)
    2545:	3d 5f 0a 00 00       	cmp    $0xa5f,%eax
    254a:	0f 04                	(bad)  
    254c:	7e 0a                	jle    2558 <mbh-0x2fdaa8>
    254e:	00 00                	add    %al,(%eax)
    2550:	02 58 05             	add    0x5(%eax),%bl
    2553:	00 00                	add    %al,(%eax)
    2555:	07                   	pop    %es
    2556:	60                   	pusha  
    2557:	30 00                	xor    %al,(%eax)
    2559:	00 00                	add    %al,(%eax)
    255b:	02 ad 00 00 00 07    	add    0x7000000(%ebp),%ch
    2561:	61                   	popa   
    2562:	42                   	inc    %edx
    2563:	00 00                	add    %al,(%eax)
    2565:	00 02                	add    %al,(%edx)
    2567:	90                   	nop
    2568:	00 00                	add    %al,(%eax)
    256a:	00 07                	add    %al,(%edi)
    256c:	62 54 00 00          	bound  %edx,0x0(%eax,%eax,1)
    2570:	00 02                	add    %al,(%edx)
    2572:	06                   	push   %es
    2573:	04 00                	add    $0x0,%al
    2575:	00 07                	add    %al,(%edi)
    2577:	63 66 00             	arpl   %sp,0x0(%esi)
    257a:	00 00                	add    %al,(%eax)
    257c:	10 31                	adc    %dh,(%ecx)
    257e:	05 00 00 10 07       	add    $0x7100000,%eax
    2583:	7f f8                	jg     257d <mbh-0x2fda83>
    2585:	0a 00                	or     (%eax),%al
    2587:	00 06                	add    %al,(%esi)
    2589:	aa                   	stos   %al,%es:(%edi)
    258a:	04 00                	add    $0x0,%al
    258c:	00 07                	add    %al,(%edi)
    258e:	81 a5 0a 00 00 00 06 	andl   $0x29b06,0xa(%ebp)
    2595:	9b 02 00 
    2598:	00 07                	add    %al,(%edi)
    259a:	82 a5 0a 00 00 04 06 	andb   $0x6,0x400000a(%ebp)
    25a1:	99                   	cltd   
    25a2:	05 00 00 07 83       	add    $0x83070000,%eax
    25a7:	a5                   	movsl  %ds:(%esi),%es:(%edi)
    25a8:	0a 00                	or     (%eax),%al
    25aa:	00 08                	add    %cl,(%eax)
    25ac:	06                   	push   %es
    25ad:	7c 05                	jl     25b4 <mbh-0x2fda4c>
    25af:	00 00                	add    %al,(%eax)
    25b1:	07                   	pop    %es
    25b2:	84 a5 0a 00 00 0c    	test   %ah,0xc00000a(%ebp)
    25b8:	00 02                	add    %al,(%edx)
    25ba:	7a 04                	jp     25c0 <mbh-0x2fda40>
    25bc:	00 00                	add    %al,(%eax)
    25be:	07                   	pop    %es
    25bf:	86 bb 0a 00 00 10    	xchg   %bh,0x1000000a(%ebx)
    25c5:	34 04                	xor    $0x4,%al
    25c7:	00 00                	add    %al,(%eax)
    25c9:	10 07                	adc    %al,(%edi)
    25cb:	89 40 0b             	mov    %eax,0xb(%eax)
    25ce:	00 00                	add    %al,(%eax)
    25d0:	13 6e 75             	adc    0x75(%esi),%ebp
    25d3:	6d                   	insl   (%dx),%es:(%edi)
    25d4:	00 07                	add    %al,(%edi)
    25d6:	8b a5 0a 00 00 00    	mov    0xa(%ebp),%esp
    25dc:	06                   	push   %es
    25dd:	c7 04 00 00 07 8c a5 	movl   $0xa58c0700,(%eax,%eax,1)
    25e4:	0a 00                	or     (%eax),%al
    25e6:	00 04 06             	add    %al,(%esi,%eax,1)
    25e9:	99                   	cltd   
    25ea:	05 00 00 07 8d       	add    $0x8d070000,%eax
    25ef:	a5                   	movsl  %ds:(%esi),%es:(%edi)
    25f0:	0a 00                	or     (%eax),%al
    25f2:	00 08                	add    %cl,(%eax)
    25f4:	06                   	push   %es
    25f5:	c8 02 00 00          	enter  $0x2,$0x0
    25f9:	07                   	pop    %es
    25fa:	8e a5 0a 00 00 0c    	mov    0xc00000a(%ebp),%fs
    2600:	00 02                	add    %al,(%edx)
    2602:	a3 02 00 00 07       	mov    %eax,0x7000002
    2607:	90                   	nop
    2608:	03 0b                	add    (%ebx),%ecx
    260a:	00 00                	add    %al,(%eax)
    260c:	0d 10 07 a5 6a       	or     $0x6aa50710,%eax
    2611:	0b 00                	or     (%eax),%eax
    2613:	00 09                	add    %cl,(%ecx)
    2615:	1a 01                	sbb    (%ecx),%al
    2617:	00 00                	add    %al,(%eax)
    2619:	07                   	pop    %es
    261a:	a7                   	cmpsl  %es:(%edi),%ds:(%esi)
    261b:	f8                   	clc    
    261c:	0a 00                	or     (%eax),%al
    261e:	00 09                	add    %cl,(%ecx)
    2620:	70 03                	jo     2625 <mbh-0x2fd9db>
    2622:	00 00                	add    %al,(%eax)
    2624:	07                   	pop    %es
    2625:	a8 40                	test   $0x40,%al
    2627:	0b 00                	or     (%eax),%eax
    2629:	00 00                	add    %al,(%eax)
    262b:	05 08 07 cf 8b       	add    $0x8bcf0708,%eax
    2630:	0b 00                	or     (%eax),%eax
    2632:	00 06                	add    %al,(%esi)
    2634:	85 05 00 00 07 d1    	test   %eax,0xd1070000
    263a:	a5                   	movsl  %ds:(%esi),%es:(%edi)
    263b:	0a 00                	or     (%eax),%al
    263d:	00 00                	add    %al,(%eax)
    263f:	06                   	push   %es
    2640:	ec                   	in     (%dx),%al
    2641:	02 00                	add    (%eax),%al
    2643:	00 07                	add    %al,(%edi)
    2645:	d2 9a 0a 00 00 04    	rcrb   %cl,0x400000a(%edx)
    264b:	00 05 06 07 d4 dc    	add    %al,0xdcd40706
    2651:	0b 00                	or     (%eax),%eax
    2653:	00 06                	add    %al,(%esi)
    2655:	c0 00 00             	rolb   $0x0,(%eax)
    2658:	00 07                	add    %al,(%edi)
    265a:	d6                   	(bad)  
    265b:	8f 0a 00 00          	(bad)  
    265f:	00 06                	add    %al,(%esi)
    2661:	b2 04                	mov    $0x4,%dl
    2663:	00 00                	add    %al,(%eax)
    2665:	07                   	pop    %es
    2666:	d7                   	xlat   %ds:(%ebx)
    2667:	8f 0a 00 00          	(bad)  
    266b:	01 06                	add    %eax,(%esi)
    266d:	c0 03 00             	rolb   $0x0,(%ebx)
    2670:	00 07                	add    %al,(%edi)
    2672:	d8 8f 0a 00 00 02    	fmuls  0x200000a(%edi)
    2678:	06                   	push   %es
    2679:	f1                   	icebp  
    267a:	04 00                	add    $0x0,%al
    267c:	00 07                	add    %al,(%edi)
    267e:	d9 8f 0a 00 00 03    	(bad)  0x300000a(%edi)
    2684:	06                   	push   %es
    2685:	fa                   	cli    
    2686:	00 00                	add    %al,(%eax)
    2688:	00 07                	add    %al,(%edi)
    268a:	da 8f 0a 00 00 04    	fimull 0x400000a(%edi)
    2690:	06                   	push   %es
    2691:	48                   	dec    %eax
    2692:	00 00                	add    %al,(%eax)
    2694:	00 07                	add    %al,(%edi)
    2696:	db 8f 0a 00 00 05    	fisttpl 0x500000a(%edi)
    269c:	00 0d 08 07 cd ef    	add    %cl,0xefcd0708
    26a2:	0b 00                	or     (%eax),%eax
    26a4:	00 0a                	add    %cl,(%edx)
    26a6:	6a 0b                	push   $0xb
    26a8:	00 00                	add    %al,(%eax)
    26aa:	0a 8b 0b 00 00 00    	or     0xb(%ebx),%cl
    26b0:	10 25 04 00 00 78    	adc    %ah,0x78000004
    26b6:	07                   	pop    %es
    26b7:	92                   	xchg   %eax,%edx
    26b8:	44                   	inc    %esp
    26b9:	0d 00 00 06 4c       	or     $0x4c060000,%eax
    26be:	0c 00                	or     $0x0,%al
    26c0:	00 07                	add    %al,(%edi)
    26c2:	95                   	xchg   %eax,%ebp
    26c3:	a5                   	movsl  %ds:(%esi),%es:(%edi)
    26c4:	0a 00                	or     (%eax),%al
    26c6:	00 00                	add    %al,(%eax)
    26c8:	06                   	push   %es
    26c9:	78 03                	js     26ce <mbh-0x2fd932>
    26cb:	00 00                	add    %al,(%eax)
    26cd:	07                   	pop    %es
    26ce:	98                   	cwtl   
    26cf:	a5                   	movsl  %ds:(%esi),%es:(%edi)
    26d0:	0a 00                	or     (%eax),%al
    26d2:	00 04 06             	add    %al,(%esi,%eax,1)
    26d5:	da 04 00             	fiaddl (%eax,%eax,1)
    26d8:	00 07                	add    %al,(%edi)
    26da:	99                   	cltd   
    26db:	a5                   	movsl  %ds:(%esi),%es:(%edi)
    26dc:	0a 00                	or     (%eax),%al
    26de:	00 08                	add    %cl,(%eax)
    26e0:	06                   	push   %es
    26e1:	19 04 00             	sbb    %eax,(%eax,%eax,1)
    26e4:	00 07                	add    %al,(%edi)
    26e6:	9c                   	pushf  
    26e7:	a5                   	movsl  %ds:(%esi),%es:(%edi)
    26e8:	0a 00                	or     (%eax),%al
    26ea:	00 0c 06             	add    %cl,(%esi,%eax,1)
    26ed:	f2 00 00             	repnz add %al,(%eax)
    26f0:	00 07                	add    %al,(%edi)
    26f2:	9f                   	lahf   
    26f3:	a5                   	movsl  %ds:(%esi),%es:(%edi)
    26f4:	0a 00                	or     (%eax),%al
    26f6:	00 10                	add    %dl,(%eax)
    26f8:	06                   	push   %es
    26f9:	4d                   	dec    %ebp
    26fa:	05 00 00 07 a2       	add    $0xa2070000,%eax
    26ff:	a5                   	movsl  %ds:(%esi),%es:(%edi)
    2700:	0a 00                	or     (%eax),%al
    2702:	00 14 06             	add    %dl,(%esi,%eax,1)
    2705:	23 01                	and    (%ecx),%eax
    2707:	00 00                	add    %al,(%eax)
    2709:	07                   	pop    %es
    270a:	a3 a5 0a 00 00       	mov    %eax,0xaa5
    270f:	18 13                	sbb    %dl,(%ebx)
    2711:	75 00                	jne    2713 <mbh-0x2fd8ed>
    2713:	07                   	pop    %es
    2714:	a9 4b 0b 00 00       	test   $0xb4b,%eax
    2719:	1c 06                	sbb    $0x6,%al
    271b:	b4 03                	mov    $0x3,%ah
    271d:	00 00                	add    %al,(%eax)
    271f:	07                   	pop    %es
    2720:	ac                   	lods   %ds:(%esi),%al
    2721:	a5                   	movsl  %ds:(%esi),%es:(%edi)
    2722:	0a 00                	or     (%eax),%al
    2724:	00 2c 06             	add    %ch,(%esi,%eax,1)
    2727:	63 00                	arpl   %ax,(%eax)
    2729:	00 00                	add    %al,(%eax)
    272b:	07                   	pop    %es
    272c:	ad                   	lods   %ds:(%esi),%eax
    272d:	a5                   	movsl  %ds:(%esi),%es:(%edi)
    272e:	0a 00                	or     (%eax),%al
    2730:	00 30                	add    %dh,(%eax)
    2732:	06                   	push   %es
    2733:	cc                   	int3   
    2734:	04 00                	add    $0x0,%al
    2736:	00 07                	add    %al,(%edi)
    2738:	b0 a5                	mov    $0xa5,%al
    273a:	0a 00                	or     (%eax),%al
    273c:	00 34 06             	add    %dh,(%esi,%eax,1)
    273f:	e6 00                	out    %al,$0x0
    2741:	00 00                	add    %al,(%eax)
    2743:	07                   	pop    %es
    2744:	b1 a5                	mov    $0xa5,%cl
    2746:	0a 00                	or     (%eax),%al
    2748:	00 38                	add    %bh,(%eax)
    274a:	06                   	push   %es
    274b:	e4 04                	in     $0x4,%al
    274d:	00 00                	add    %al,(%eax)
    274f:	07                   	pop    %es
    2750:	b4 a5                	mov    $0xa5,%ah
    2752:	0a 00                	or     (%eax),%al
    2754:	00 3c 06             	add    %bh,(%esi,%eax,1)
    2757:	0b 03                	or     (%ebx),%eax
    2759:	00 00                	add    %al,(%eax)
    275b:	07                   	pop    %es
    275c:	b7 a5                	mov    $0xa5,%bh
    275e:	0a 00                	or     (%eax),%al
    2760:	00 40 06             	add    %al,0x6(%eax)
    2763:	ce                   	into   
    2764:	02 00                	add    (%eax),%al
    2766:	00 07                	add    %al,(%edi)
    2768:	ba a5 0a 00 00       	mov    $0xaa5,%edx
    276d:	44                   	inc    %esp
    276e:	06                   	push   %es
    276f:	5f                   	pop    %edi
    2770:	03 00                	add    (%eax),%eax
    2772:	00 07                	add    %al,(%edi)
    2774:	bd a5 0a 00 00       	mov    $0xaa5,%ebp
    2779:	48                   	dec    %eax
    277a:	06                   	push   %es
    277b:	43                   	inc    %ebx
    277c:	03 00                	add    (%eax),%eax
    277e:	00 07                	add    %al,(%edi)
    2780:	be a5 0a 00 00       	mov    $0xaa5,%esi
    2785:	4c                   	dec    %esp
    2786:	06                   	push   %es
    2787:	82 03 00             	addb   $0x0,(%ebx)
    278a:	00 07                	add    %al,(%edi)
    278c:	bf 9a 0a 00 00       	mov    $0xa9a,%edi
    2791:	50                   	push   %eax
    2792:	06                   	push   %es
    2793:	6a 05                	push   $0x5
    2795:	00 00                	add    %al,(%eax)
    2797:	07                   	pop    %es
    2798:	c0 9a 0a 00 00 52 06 	rcrb   $0x6,0x5200000a(%edx)
    279f:	7e 00                	jle    27a1 <mbh-0x2fd85f>
    27a1:	00 00                	add    %al,(%eax)
    27a3:	07                   	pop    %es
    27a4:	c1 9a 0a 00 00 54 06 	rcrl   $0x6,0x5400000a(%edx)
    27ab:	98                   	cwtl   
    27ac:	04 00                	add    $0x0,%al
    27ae:	00 07                	add    %al,(%edi)
    27b0:	c2 9a 0a             	ret    $0xa9a
    27b3:	00 00                	add    %al,(%eax)
    27b5:	56                   	push   %esi
    27b6:	06                   	push   %es
    27b7:	6d                   	insl   (%dx),%es:(%edi)
    27b8:	00 00                	add    %al,(%eax)
    27ba:	00 07                	add    %al,(%edi)
    27bc:	c4 b0 0a 00 00 58    	les    0x5800000a(%eax),%esi
    27c2:	06                   	push   %es
    27c3:	57                   	push   %edi
    27c4:	04 00                	add    $0x0,%al
    27c6:	00 07                	add    %al,(%edi)
    27c8:	c5 a5 0a 00 00 60    	lds    0x6000000a(%ebp),%esp
    27ce:	06                   	push   %es
    27cf:	a2 03 00 00 07       	mov    %al,0x7000003
    27d4:	c6                   	(bad)  
    27d5:	a5                   	movsl  %ds:(%esi),%es:(%edi)
    27d6:	0a 00                	or     (%eax),%al
    27d8:	00 64 06 1e          	add    %ah,0x1e(%esi,%eax,1)
    27dc:	05 00 00 07 c7       	add    $0xc7070000,%eax
    27e1:	a5                   	movsl  %ds:(%esi),%es:(%edi)
    27e2:	0a 00                	or     (%eax),%al
    27e4:	00 68 06             	add    %ch,0x6(%eax)
    27e7:	33 03                	xor    (%ebx),%eax
    27e9:	00 00                	add    %al,(%eax)
    27eb:	07                   	pop    %es
    27ec:	c8 8f 0a 00          	enter  $0xa8f,$0x0
    27f0:	00 6c 06 69          	add    %ch,0x69(%esi,%eax,1)
    27f4:	04 00                	add    $0x0,%al
    27f6:	00 07                	add    %al,(%edi)
    27f8:	cc                   	int3   
    27f9:	8f 0a 00 00          	(bad)  
    27fd:	6d                   	insl   (%dx),%es:(%edi)
    27fe:	0e                   	push   %cs
    27ff:	dc 0b                	fmull  (%ebx)
    2801:	00 00                	add    %al,(%eax)
    2803:	70 00                	jo     2805 <mbh-0x2fd7fb>
    2805:	02 0d 05 00 00 07    	add    0x7000005,%cl
    280b:	df ef                	fucomip %st(7),%st
    280d:	0b 00                	or     (%eax),%eax
    280f:	00 02                	add    %al,(%edx)
    2811:	e6 02                	out    %al,$0x2
    2813:	00 00                	add    %al,(%eax)
    2815:	08 08                	or     %cl,(%eax)
    2817:	44                   	inc    %esp
    2818:	0d 00 00 10 e1       	or     $0xe1100000,%eax
    281d:	03 00                	add    (%eax),%eax
    281f:	00 04 09             	add    %al,(%ecx,%ecx,1)
    2822:	08 73 0d             	or     %dh,0xd(%ebx)
    2825:	00 00                	add    %al,(%eax)
    2827:	13 6d 62             	adc    0x62(%ebp),%ebp
    282a:	69 00 09 0a 73 0d    	imul   $0xd730a09,(%eax),%eax
    2830:	00 00                	add    %al,(%eax)
    2832:	00 00                	add    %al,(%eax)
    2834:	0f 04                	(bad)  
    2836:	4f                   	dec    %edi
    2837:	0d 00 00 02 17       	or     $0x17020000,%eax
    283c:	05 00 00 09 0c       	add    $0xc090000,%eax
    2841:	5a                   	pop    %edx
    2842:	0d 00 00 05 04       	or     $0x4050000,%eax
    2847:	0a 2b                	or     (%ebx),%ch
    2849:	11 0e                	adc    %ecx,(%esi)
    284b:	00 00                	add    %al,(%eax)
    284d:	11 70 00             	adc    %esi,0x0(%eax)
    2850:	0a 2d 49 00 00 00    	or     0x49,%ch
    2856:	04 01                	add    $0x1,%al
    2858:	1f                   	pop    %ds
    2859:	00 11                	add    %dl,(%ecx)
    285b:	72 77                	jb     28d4 <mbh-0x2fd72c>
    285d:	00 0a                	add    %cl,(%edx)
    285f:	2e 49                	cs dec %ecx
    2861:	00 00                	add    %al,(%eax)
    2863:	00 04 01             	add    %al,(%ecx,%eax,1)
    2866:	1e                   	push   %ds
    2867:	00 11                	add    %dl,(%ecx)
    2869:	6c                   	insb   (%dx),%es:(%edi)
    286a:	76 6c                	jbe    28d8 <mbh-0x2fd728>
    286c:	00 0a                	add    %cl,(%edx)
    286e:	2f                   	das    
    286f:	49                   	dec    %ecx
    2870:	00 00                	add    %al,(%eax)
    2872:	00 04 01             	add    %al,(%ecx,%eax,1)
    2875:	1d 00 11 70 77       	sbb    $0x77701100,%eax
    287a:	74 00                	je     287c <mbh-0x2fd784>
    287c:	0a 30                	or     (%eax),%dh
    287e:	49                   	dec    %ecx
    287f:	00 00                	add    %al,(%eax)
    2881:	00 04 01             	add    %al,(%ecx,%eax,1)
    2884:	1c 00                	sbb    $0x0,%al
    2886:	11 70 63             	adc    %esi,0x63(%eax)
    2889:	64 00 0a             	add    %cl,%fs:(%edx)
    288c:	31 49 00             	xor    %ecx,0x0(%ecx)
    288f:	00 00                	add    %al,(%eax)
    2891:	04 01                	add    $0x1,%al
    2893:	1b 00                	sbb    (%eax),%eax
    2895:	11 61 63             	adc    %esp,0x63(%ecx)
    2898:	63 00                	arpl   %ax,(%eax)
    289a:	0a 32                	or     (%edx),%dh
    289c:	49                   	dec    %ecx
    289d:	00 00                	add    %al,(%eax)
    289f:	00 04 01             	add    %al,(%ecx,%eax,1)
    28a2:	1a 00                	sbb    (%eax),%al
    28a4:	11 6d 62             	adc    %ebp,0x62(%ebp)
    28a7:	7a 00                	jp     28a9 <mbh-0x2fd757>
    28a9:	0a 33                	or     (%ebx),%dh
    28ab:	49                   	dec    %ecx
    28ac:	00 00                	add    %al,(%eax)
    28ae:	00 04 03             	add    %al,(%ebx,%eax,1)
    28b1:	17                   	pop    %ss
    28b2:	00 11                	add    %dl,(%ecx)
    28b4:	61                   	popa   
    28b5:	76 6c                	jbe    2923 <mbh-0x2fd6dd>
    28b7:	00 0a                	add    %cl,(%edx)
    28b9:	34 49                	xor    $0x49,%al
    28bb:	00 00                	add    %al,(%eax)
    28bd:	00 04 03             	add    %al,(%ebx,%eax,1)
    28c0:	14 00                	adc    $0x0,%al
    28c2:	12 99 05 00 00 0a    	adc    0xa000005(%ecx),%bl
    28c8:	35 49 00 00 00       	xor    $0x49,%eax
    28cd:	04 14                	add    $0x14,%al
    28cf:	00 00                	add    %al,(%eax)
    28d1:	00 05 04 0a 39 d5    	add    %al,0xd5390a04
    28d7:	0e                   	push   %cs
    28d8:	00 00                	add    %al,(%eax)
    28da:	11 70 00             	adc    %esi,0x0(%eax)
    28dd:	0a 3b                	or     (%ebx),%bh
    28df:	49                   	dec    %ecx
    28e0:	00 00                	add    %al,(%eax)
    28e2:	00 04 01             	add    %al,(%ecx,%eax,1)
    28e5:	1f                   	pop    %ds
    28e6:	00 11                	add    %dl,(%ecx)
    28e8:	72 77                	jb     2961 <mbh-0x2fd69f>
    28ea:	00 0a                	add    %cl,(%edx)
    28ec:	3c 49                	cmp    $0x49,%al
    28ee:	00 00                	add    %al,(%eax)
    28f0:	00 04 01             	add    %al,(%ecx,%eax,1)
    28f3:	1e                   	push   %ds
    28f4:	00 11                	add    %dl,(%ecx)
    28f6:	6c                   	insb   (%dx),%es:(%edi)
    28f7:	76 6c                	jbe    2965 <mbh-0x2fd69b>
    28f9:	00 0a                	add    %cl,(%edx)
    28fb:	3d 49 00 00 00       	cmp    $0x49,%eax
    2900:	04 01                	add    $0x1,%al
    2902:	1d 00 11 70 77       	sbb    $0x77701100,%eax
    2907:	74 00                	je     2909 <mbh-0x2fd6f7>
    2909:	0a 3e                	or     (%esi),%bh
    290b:	49                   	dec    %ecx
    290c:	00 00                	add    %al,(%eax)
    290e:	00 04 01             	add    %al,(%ecx,%eax,1)
    2911:	1c 00                	sbb    $0x0,%al
    2913:	11 70 63             	adc    %esi,0x63(%eax)
    2916:	64 00 0a             	add    %cl,%fs:(%edx)
    2919:	3f                   	aas    
    291a:	49                   	dec    %ecx
    291b:	00 00                	add    %al,(%eax)
    291d:	00 04 01             	add    %al,(%ecx,%eax,1)
    2920:	1b 00                	sbb    (%eax),%eax
    2922:	11 61 63             	adc    %esp,0x63(%ecx)
    2925:	63 00                	arpl   %ax,(%eax)
    2927:	0a 40 49             	or     0x49(%eax),%al
    292a:	00 00                	add    %al,(%eax)
    292c:	00 04 01             	add    %al,(%ecx,%eax,1)
    292f:	1a 00                	sbb    (%eax),%al
    2931:	11 64 00 0a          	adc    %esp,0xa(%eax,%eax,1)
    2935:	41                   	inc    %ecx
    2936:	49                   	dec    %ecx
    2937:	00 00                	add    %al,(%eax)
    2939:	00 04 01             	add    %al,(%ecx,%eax,1)
    293c:	19 00                	sbb    %eax,(%eax)
    293e:	11 70 73             	adc    %esi,0x73(%eax)
    2941:	00 0a                	add    %cl,(%edx)
    2943:	42                   	inc    %edx
    2944:	49                   	dec    %ecx
    2945:	00 00                	add    %al,(%eax)
    2947:	00 04 01             	add    %al,(%ecx,%eax,1)
    294a:	18 00                	sbb    %al,(%eax)
    294c:	11 67 00             	adc    %esp,0x0(%edi)
    294f:	0a 43 49             	or     0x49(%ebx),%al
    2952:	00 00                	add    %al,(%eax)
    2954:	00 04 01             	add    %al,(%ecx,%eax,1)
    2957:	17                   	pop    %ss
    2958:	00 11                	add    %dl,(%ecx)
    295a:	61                   	popa   
    295b:	76 6c                	jbe    29c9 <mbh-0x2fd637>
    295d:	00 0a                	add    %cl,(%edx)
    295f:	44                   	inc    %esp
    2960:	49                   	dec    %ecx
    2961:	00 00                	add    %al,(%eax)
    2963:	00 04 03             	add    %al,(%ebx,%eax,1)
    2966:	14 00                	adc    $0x0,%al
    2968:	11 70 61             	adc    %esi,0x61(%eax)
    296b:	74 00                	je     296d <mbh-0x2fd693>
    296d:	0a 45 49             	or     0x49(%ebp),%al
    2970:	00 00                	add    %al,(%eax)
    2972:	00 04 01             	add    %al,(%ecx,%eax,1)
    2975:	13 00                	adc    (%eax),%eax
    2977:	11 72 73             	adc    %esi,0x73(%edx)
    297a:	76 00                	jbe    297c <mbh-0x2fd684>
    297c:	0a 46 49             	or     0x49(%esi),%al
    297f:	00 00                	add    %al,(%eax)
    2981:	00 04 09             	add    %al,(%ecx,%ecx,1)
    2984:	0a 00                	or     (%eax),%al
    2986:	12 99 05 00 00 0a    	adc    0xa000005(%ecx),%bl
    298c:	47                   	inc    %edi
    298d:	49                   	dec    %ecx
    298e:	00 00                	add    %al,(%eax)
    2990:	00 04 0a             	add    %al,(%edx,%ecx,1)
    2993:	00 00                	add    %al,(%eax)
    2995:	00 07                	add    %al,(%edi)
    2997:	a1 0a 00 00 04       	mov    0x400000a,%eax
    299c:	0a 29                	or     (%ecx),%ch
    299e:	f7 0e 00 00 0a 84    	testl  $0x840a0000,(%esi)
    29a4:	0d 00 00 09 b5       	or     $0xb5090000,%eax
    29a9:	0c 00                	or     $0x0,%al
    29ab:	00 0a                	add    %cl,(%edx)
    29ad:	49                   	dec    %ecx
    29ae:	11 0e                	adc    %ecx,(%esi)
    29b0:	00 00                	add    %al,(%eax)
    29b2:	0a fb                	or     %bl,%bh
    29b4:	01 00                	add    %eax,(%eax)
    29b6:	00 00                	add    %al,(%eax)
    29b8:	02 ce                	add    %dh,%cl
    29ba:	0c 00                	or     $0x0,%al
    29bc:	00 0a                	add    %cl,(%edx)
    29be:	4d                   	dec    %ebp
    29bf:	d5 0e                	aad    $0xe
    29c1:	00 00                	add    %al,(%eax)
    29c3:	10 30                	adc    %dh,(%eax)
    29c5:	0f 00 00             	sldt   (%eax)
    29c8:	10 0b                	adc    %cl,(%ebx)
    29ca:	09 3f                	or     %edi,(%edi)
    29cc:	0f 00 00             	sldt   (%eax)
    29cf:	13 70 67             	adc    0x67(%eax),%esi
    29d2:	64 00 0b             	add    %cl,%fs:(%ebx)
    29d5:	0b 3f                	or     (%edi),%edi
    29d7:	0f 00 00             	sldt   (%eax)
    29da:	00 06                	add    %al,(%esi)
    29dc:	43                   	inc    %ebx
    29dd:	0d 00 00 0b 0c       	or     $0xc0b0000,%eax
    29e2:	45                   	inc    %ebp
    29e3:	0f 00 00             	sldt   (%eax)
    29e6:	04 06                	add    $0x6,%al
    29e8:	41                   	inc    %ecx
    29e9:	0b 00                	or     (%eax),%eax
    29eb:	00 0b                	add    %cl,(%ebx)
    29ed:	0d 03 03 00 00       	or     $0x303,%eax
    29f2:	08 06                	or     %al,(%esi)
    29f4:	f6 0b 00             	testb  $0x0,(%ebx)
    29f7:	00 0b                	add    %cl,(%ebx)
    29f9:	0e                   	push   %cs
    29fa:	03 03                	add    (%ebx),%eax
    29fc:	00 00                	add    %al,(%eax)
    29fe:	0c 00                	or     $0x0,%al
    2a00:	0f 04                	(bad)  
    2a02:	f7 0e 00 00 0f 04    	testl  $0x40f0000,(%esi)
    2a08:	02 0f                	add    (%edi),%cl
    2a0a:	00 00                	add    %al,(%eax)
    2a0c:	02 3c 0d 00 00 0b 0f 	add    0xf0b0000(,%ecx,1),%bh
    2a13:	02 0f                	add    (%edi),%cl
    2a15:	00 00                	add    %al,(%eax)
    2a17:	17                   	pop    %ss
    2a18:	e1 00                	loope  2a1a <mbh-0x2fd5e6>
    2a1a:	00 00                	add    %al,(%eax)
    2a1c:	01 08                	add    %ecx,(%eax)
    2a1e:	61                   	popa   
    2a1f:	0f 00 00             	sldt   (%eax)
    2a22:	0f 04                	(bad)  
    2a24:	79 0d                	jns    2a33 <mbh-0x2fd5cd>
    2a26:	00 00                	add    %al,(%eax)
    2a28:	0b 51 06             	or     0x6(%ecx),%edx
    2a2b:	00 00                	add    %al,(%eax)
    2a2d:	77 0f                	ja     2a3e <mbh-0x2fd5c2>
    2a2f:	00 00                	add    %al,(%eax)
    2a31:	0c 54                	or     $0x54,%al
    2a33:	00 00                	add    %al,(%eax)
    2a35:	00 ff                	add    %bh,%bh
    2a37:	00 18                	add    %bl,(%eax)
    2a39:	49                   	dec    %ecx
    2a3a:	44                   	inc    %esp
    2a3b:	54                   	push   %esp
    2a3c:	00 01                	add    %al,(%ecx)
    2a3e:	0a 67 0f             	or     0xf(%edi),%ah
    2a41:	00 00                	add    %al,(%eax)
    2a43:	05 03 20 57 30       	add    $0x30572003,%eax
    2a48:	00 19                	add    %bl,(%ecx)
    2a4a:	34 0b                	xor    $0xb,%al
    2a4c:	00 00                	add    %al,(%eax)
    2a4e:	01 0b                	add    %ecx,(%ebx)
    2a50:	99                   	cltd   
    2a51:	0f 00 00             	sldt   (%eax)
    2a54:	05 03 20 5f 30       	add    $0x305f2003,%eax
    2a59:	00 0f                	add    %cl,(%edi)
    2a5b:	04 4b                	add    $0x4b,%al
    2a5d:	0f 00 00             	sldt   (%eax)
    2a60:	1a 54 53 53          	sbb    0x53(%ebx,%edx,2),%dl
    2a64:	00 01                	add    %al,(%ecx)
    2a66:	0c c9                	or     $0xc9,%al
    2a68:	08 00                	or     %al,(%eax)
    2a6a:	00 1b                	add    %bl,(%ebx)
    2a6c:	32 0c 00             	xor    (%eax,%eax,1),%cl
    2a6f:	00 01                	add    %al,(%ecx)
    2a71:	60                   	pusha  
    2a72:	9b                   	fwait
    2a73:	3e 30 00             	xor    %al,%ds:(%eax)
    2a76:	6f                   	outsl  %ds:(%esi),(%dx)
    2a77:	00 00                	add    %al,(%eax)
    2a79:	00 01                	add    %al,(%ecx)
    2a7b:	9c                   	pushf  
    2a7c:	dc 0f                	fmull  (%edi)
    2a7e:	00 00                	add    %al,(%eax)
    2a80:	1c 63                	sbb    $0x63,%al
    2a82:	74 78                	je     2afc <mbh-0x2fd504>
    2a84:	00 01                	add    %al,(%ecx)
    2a86:	60                   	pusha  
    2a87:	89 0a                	mov    %ecx,(%edx)
    2a89:	00 00                	add    %al,(%eax)
    2a8b:	02 91 5c 1d 9a 0a    	add    0xa9a1d5c(%ecx),%dl
    2a91:	00 00                	add    %al,(%eax)
    2a93:	01 63 25             	add    %esp,0x25(%ebx)
    2a96:	00 00                	add    %al,(%eax)
    2a98:	00 02                	add    %al,(%edx)
    2a9a:	91                   	xchg   %eax,%ecx
    2a9b:	6f                   	outsl  %ds:(%esi),(%dx)
    2a9c:	00 1b                	add    %bl,(%ebx)
    2a9e:	70 0c                	jo     2aac <mbh-0x2fd554>
    2aa0:	00 00                	add    %al,(%eax)
    2aa2:	01 42 e7             	add    %eax,-0x19(%edx)
    2aa5:	3d 30 00 b4 00       	cmp    $0xb40030,%eax
    2aaa:	00 00                	add    %al,(%eax)
    2aac:	01 9c 00 10 00 00 1c 	add    %ebx,0x1c000010(%eax,%eax,1)
    2ab3:	63 74 78 00          	arpl   %si,0x0(%eax,%edi,2)
    2ab7:	01 42 89             	add    %eax,-0x77(%edx)
    2aba:	0a 00                	or     (%eax),%al
    2abc:	00 02                	add    %al,(%edx)
    2abe:	91                   	xchg   %eax,%ecx
    2abf:	00 00                	add    %al,(%eax)
    2ac1:	1b fc                	sbb    %esp,%edi
    2ac3:	0c 00                	or     $0x0,%al
    2ac5:	00 01                	add    %al,(%ecx)
    2ac7:	3e c7                	ds (bad) 
    2ac9:	3d 30 00 20 00       	cmp    $0x200030,%eax
    2ace:	00 00                	add    %al,(%eax)
    2ad0:	01 9c 24 10 00 00 1c 	add    %ebx,0x1c000010(%esp)
    2ad7:	63 74 78 00          	arpl   %si,0x0(%eax,%edi,2)
    2adb:	01 3e                	add    %edi,(%esi)
    2add:	89 0a                	mov    %ecx,(%edx)
    2adf:	00 00                	add    %al,(%eax)
    2ae1:	02 91 00 00 1b 30    	add    0x301b0000(%ecx),%dl
    2ae7:	0d 00 00 01 20       	or     $0x20010000,%eax
    2aec:	01 3d 30 00 c6 00    	add    %edi,0xc60030
    2af2:	00 00                	add    %al,(%eax)
    2af4:	01 9c 64 10 00 00 1c 	add    %ebx,0x1c000010(%esp,%eiz,2)
    2afb:	63 74 78 00          	arpl   %si,0x0(%eax,%edi,2)
    2aff:	01 20                	add    %esp,(%eax)
    2b01:	89 0a                	mov    %ecx,(%edx)
    2b03:	00 00                	add    %al,(%eax)
    2b05:	02 91 5c 18 65 69    	add    0x6965185c(%ecx),%dl
    2b0b:	70 00                	jo     2b0d <mbh-0x2fd4f3>
    2b0d:	01 23                	add    %esp,(%ebx)
    2b0f:	49                   	dec    %ecx
    2b10:	00 00                	add    %al,(%eax)
    2b12:	00 02                	add    %al,(%edx)
    2b14:	91                   	xchg   %eax,%ecx
    2b15:	6c                   	insb   (%dx),%es:(%edi)
    2b16:	1d 6a 0d 00 00       	sbb    $0xd6a,%eax
    2b1b:	01 33                	add    %esi,(%ebx)
    2b1d:	03 03                	add    (%ebx),%eax
    2b1f:	00 00                	add    %al,(%eax)
    2b21:	02 91 68 00 1e f8    	add    -0x7e1ff98(%ecx),%dl
    2b27:	0a 00                	or     (%eax),%al
    2b29:	00 01                	add    %al,(%ecx)
    2b2b:	0f 3a 3c             	(bad)  
    2b2e:	30 00                	xor    %al,(%eax)
    2b30:	c7 00 00 00 01 9c    	movl   $0x9c010000,(%eax)
    2b36:	1d 08 0d 00 00       	sbb    $0xd08,%eax
    2b3b:	01 11                	add    %edx,(%ecx)
    2b3d:	a0 06 00 00 02       	mov    0x2000006,%al
    2b42:	91                   	xchg   %eax,%ecx
    2b43:	6a 18                	push   $0x18
    2b45:	69 73 72 00 01 12 c3 	imul   $0xc3120100,0x72(%ebx),%esi
    2b4c:	00 00                	add    %al,(%eax)
    2b4e:	00 02                	add    %al,(%edx)
    2b50:	91                   	xchg   %eax,%ecx
    2b51:	74 18                	je     2b6b <mbh-0x2fd495>
    2b53:	69 00 01 13 b1 00    	imul   $0xb11301,(%eax),%eax
    2b59:	00 00                	add    %al,(%eax)
    2b5b:	02 91 70 1f 53 3c    	add    0x3c531f70(%ecx),%dl
    2b61:	30 00                	xor    %al,(%eax)
    2b63:	85 00                	test   %eax,(%eax)
    2b65:	00 00                	add    %al,(%eax)
    2b67:	1d 99 05 00 00       	sbb    $0x599,%eax
    2b6c:	01 19                	add    %ebx,(%ecx)
    2b6e:	fb                   	sti    
    2b6f:	01 00                	add    %eax,(%eax)
    2b71:	00 02                	add    %al,(%edx)
    2b73:	91                   	xchg   %eax,%ecx
    2b74:	66 00 00             	data16 add %al,(%eax)
    2b77:	00 1e                	add    %bl,(%esi)
    2b79:	00 00                	add    %al,(%eax)
    2b7b:	00 02                	add    %al,(%edx)
    2b7d:	00 59 07             	add    %bl,0x7(%ecx)
    2b80:	00 00                	add    %al,(%eax)
    2b82:	04 01                	add    $0x1,%al
    2b84:	15 05 00 00 18       	adc    $0x18000005,%eax
    2b89:	00 00                	add    %al,(%eax)
    2b8b:	00 79 0d             	add    %bh,0xd(%ecx)
    2b8e:	00 00                	add    %al,(%eax)
    2b90:	17                   	pop    %ss
    2b91:	00 00                	add    %al,(%eax)
    2b93:	00 3c 00             	add    %bh,(%eax,%eax,1)
    2b96:	00 00                	add    %al,(%eax)
    2b98:	01 80 3b 09 00 00    	add    %eax,0x93b(%eax)
    2b9e:	04 00                	add    $0x0,%al
    2ba0:	6b 07 00             	imul   $0x0,(%edi),%eax
    2ba3:	00 04 01             	add    %al,(%ecx,%eax,1)
    2ba6:	2d 01 00 00 0c       	sub    $0xc000001,%eax
    2bab:	9e                   	sahf   
    2bac:	0d 00 00 17 00       	or     $0x170000,%eax
    2bb1:	00 00                	add    %al,(%eax)
    2bb3:	24 3f                	and    $0x3f,%al
    2bb5:	30 00                	xor    %al,(%eax)
    2bb7:	72 01                	jb     2bba <mbh-0x2fd446>
    2bb9:	00 00                	add    %al,(%eax)
    2bbb:	b9 05 00 00 02       	mov    $0x2000005,%ecx
    2bc0:	62 05 00 00 02 1a    	bound  %eax,0x1a020000
    2bc6:	30 00                	xor    %al,(%eax)
    2bc8:	00 00                	add    %al,(%eax)
    2bca:	03 01                	add    (%ecx),%eax
    2bcc:	08 51 03             	or     %dl,0x3(%ecx)
    2bcf:	00 00                	add    %al,(%eax)
    2bd1:	02 b7 00 00 00 02    	add    0x2000000(%edi),%dh
    2bd7:	1b 42 00             	sbb    0x0(%edx),%eax
    2bda:	00 00                	add    %al,(%eax)
    2bdc:	03 02                	add    (%edx),%eax
    2bde:	07                   	pop    %es
    2bdf:	f3 03 00             	repz add (%eax),%eax
    2be2:	00 02                	add    %al,(%edx)
    2be4:	9a 00 00 00 02 1c 54 	lcall  $0x541c,$0x2000000
    2beb:	00 00                	add    %al,(%eax)
    2bed:	00 03                	add    %al,(%ebx)
    2bef:	04 07                	add    $0x7,%al
    2bf1:	95                   	xchg   %eax,%ebp
    2bf2:	03 00                	add    (%eax),%eax
    2bf4:	00 03                	add    %al,(%ebx)
    2bf6:	08 07                	or     %al,(%edi)
    2bf8:	8b 03                	mov    (%ebx),%eax
    2bfa:	00 00                	add    %al,(%eax)
    2bfc:	03 01                	add    (%ecx),%eax
    2bfe:	06                   	push   %es
    2bff:	53                   	push   %ebx
    2c00:	03 00                	add    (%eax),%eax
    2c02:	00 02                	add    %al,(%edx)
    2c04:	0a 07                	or     (%edi),%al
    2c06:	00 00                	add    %al,(%eax)
    2c08:	02 20                	add    (%eax),%ah
    2c0a:	74 00                	je     2c0c <mbh-0x2fd3f4>
    2c0c:	00 00                	add    %al,(%eax)
    2c0e:	03 02                	add    (%edx),%eax
    2c10:	05 a3 00 00 00       	add    $0xa3,%eax
    2c15:	02 b0 05 00 00 02    	add    0x2000005(%eax),%dh
    2c1b:	21 86 00 00 00 04    	and    %eax,0x4000000(%esi)
    2c21:	04 05                	add    $0x5,%al
    2c23:	69 6e 74 00 03 08 05 	imul   $0x5080300,0x74(%esi),%ebp
    2c2a:	d8 02                	fadds  (%edx)
    2c2c:	00 00                	add    %al,(%eax)
    2c2e:	05 04 9a 00 00       	add    $0x9a04,%eax
    2c33:	00 03                	add    %al,(%ebx)
    2c35:	01 06                	add    %eax,(%esi)
    2c37:	5a                   	pop    %edx
    2c38:	03 00                	add    (%eax),%eax
    2c3a:	00 03                	add    %al,(%ebx)
    2c3c:	04 07                	add    $0x7,%al
    2c3e:	90                   	nop
    2c3f:	03 00                	add    (%eax),%eax
    2c41:	00 06                	add    %al,(%esi)
    2c43:	02 02                	add    (%edx),%al
    2c45:	4c                   	dec    %esp
    2c46:	c9                   	leave  
    2c47:	00 00                	add    %al,(%eax)
    2c49:	00 07                	add    %al,(%edi)
    2c4b:	9e                   	sahf   
    2c4c:	05 00 00 02 4e       	add    $0x4e020000,%eax
    2c51:	25 00 00 00 00       	and    $0x0,%eax
    2c56:	07                   	pop    %es
    2c57:	92                   	xchg   %eax,%edx
    2c58:	06                   	push   %es
    2c59:	00 00                	add    %al,(%eax)
    2c5b:	02 4f 25             	add    0x25(%edi),%cl
    2c5e:	00 00                	add    %al,(%eax)
    2c60:	00 01                	add    %al,(%ecx)
    2c62:	00 08                	add    %cl,(%eax)
    2c64:	d8 05 00 00 02 02    	fadds  0x2020000
    2c6a:	45                   	inc    %ebp
    2c6b:	fc                   	cld    
    2c6c:	00 00                	add    %al,(%eax)
    2c6e:	00 09                	add    %cl,(%ecx)
    2c70:	72 61                	jb     2cd3 <mbh-0x2fd32d>
    2c72:	77 00                	ja     2c74 <mbh-0x2fd38c>
    2c74:	02 47 37             	add    0x37(%edi),%al
    2c77:	00 00                	add    %al,(%eax)
    2c79:	00 0a                	add    %cl,(%edx)
    2c7b:	f4                   	hlt    
    2c7c:	06                   	push   %es
    2c7d:	00 00                	add    %al,(%eax)
    2c7f:	02 48 69             	add    0x69(%eax),%cl
    2c82:	00 00                	add    %al,(%eax)
    2c84:	00 0a                	add    %cl,(%edx)
    2c86:	64 06                	fs push %es
    2c88:	00 00                	add    %al,(%eax)
    2c8a:	02 49 fc             	add    -0x4(%ecx),%cl
    2c8d:	00 00                	add    %al,(%eax)
    2c8f:	00 0b                	add    %cl,(%ebx)
    2c91:	a8 00                	test   $0x0,%al
    2c93:	00 00                	add    %al,(%eax)
    2c95:	00 0c 25 00 00 00 0c 	add    %cl,0xc000000(,%eiz,1)
    2c9c:	01 00                	add    %eax,(%eax)
    2c9e:	00 0d 54 00 00 00    	add    %cl,0x54
    2ca4:	01 00                	add    %eax,(%eax)
    2ca6:	02 06                	add    (%esi),%al
    2ca8:	06                   	push   %es
    2ca9:	00 00                	add    %al,(%eax)
    2cab:	02 53 c9             	add    -0x37(%ebx),%dl
    2cae:	00 00                	add    %al,(%eax)
    2cb0:	00 06                	add    %al,(%esi)
    2cb2:	04 02                	add    $0x2,%al
    2cb4:	5f                   	pop    %edi
    2cb5:	38 01                	cmp    %al,(%ecx)
    2cb7:	00 00                	add    %al,(%eax)
    2cb9:	07                   	pop    %es
    2cba:	98                   	cwtl   
    2cbb:	06                   	push   %es
    2cbc:	00 00                	add    %al,(%eax)
    2cbe:	02 61 0c             	add    0xc(%ecx),%ah
    2cc1:	01 00                	add    %eax,(%eax)
    2cc3:	00 00                	add    %al,(%eax)
    2cc5:	07                   	pop    %es
    2cc6:	b6 07                	mov    $0x7,%dh
    2cc8:	00 00                	add    %al,(%eax)
    2cca:	02 62 0c             	add    0xc(%edx),%ah
    2ccd:	01 00                	add    %eax,(%eax)
    2ccf:	00 02                	add    %al,(%edx)
    2cd1:	00 06                	add    %al,(%esi)
    2cd3:	02 02                	add    (%edx),%al
    2cd5:	6b 59 01 00          	imul   $0x0,0x1(%ecx),%ebx
    2cd9:	00 07                	add    %al,(%edi)
    2cdb:	9e                   	sahf   
    2cdc:	05 00 00 02 6d       	add    $0x6d020000,%eax
    2ce1:	25 00 00 00 00       	and    $0x0,%eax
    2ce6:	07                   	pop    %es
    2ce7:	92                   	xchg   %eax,%edx
    2ce8:	06                   	push   %es
    2ce9:	00 00                	add    %al,(%eax)
    2ceb:	02 6e 25             	add    0x25(%esi),%ch
    2cee:	00 00                	add    %al,(%eax)
    2cf0:	00 01                	add    %al,(%ecx)
    2cf2:	00 0e                	add    %cl,(%esi)
    2cf4:	02 02                	add    (%edx),%al
    2cf6:	69 72 01 00 00 0b 38 	imul   $0x380b0000,0x1(%edx),%esi
    2cfd:	01 00                	add    %eax,(%eax)
    2cff:	00 0a                	add    %cl,(%edx)
    2d01:	99                   	cltd   
    2d02:	06                   	push   %es
    2d03:	00 00                	add    %al,(%eax)
    2d05:	02 72 37             	add    0x37(%edx),%dh
    2d08:	00 00                	add    %al,(%eax)
    2d0a:	00 00                	add    %al,(%eax)
    2d0c:	06                   	push   %es
    2d0d:	04 02                	add    $0x2,%al
    2d0f:	67 8d 01             	lea    (%bx,%di),%eax
    2d12:	00 00                	add    %al,(%eax)
    2d14:	0f 59 01             	mulps  (%ecx),%xmm0
    2d17:	00 00                	add    %al,(%eax)
    2d19:	00 07                	add    %al,(%edi)
    2d1b:	b7 07                	mov    $0x7,%bh
    2d1d:	00 00                	add    %al,(%eax)
    2d1f:	02 76 37             	add    0x37(%esi),%dh
    2d22:	00 00                	add    %al,(%eax)
    2d24:	00 02                	add    %al,(%edx)
    2d26:	00 08                	add    %cl,(%eax)
    2d28:	ce                   	into   
    2d29:	06                   	push   %es
    2d2a:	00 00                	add    %al,(%eax)
    2d2c:	04 02                	add    $0x2,%al
    2d2e:	58                   	pop    %eax
    2d2f:	c5 01                	lds    (%ecx),%eax
    2d31:	00 00                	add    %al,(%eax)
    2d33:	09 72 61             	or     %esi,0x61(%edx)
    2d36:	77 00                	ja     2d38 <mbh-0x2fd2c8>
    2d38:	02 5a 49             	add    0x49(%edx),%bl
    2d3b:	00 00                	add    %al,(%eax)
    2d3d:	00 0a                	add    %cl,(%edx)
    2d3f:	f4                   	hlt    
    2d40:	06                   	push   %es
    2d41:	00 00                	add    %al,(%eax)
    2d43:	02 5b 7b             	add    0x7b(%ebx),%bl
    2d46:	00 00                	add    %al,(%eax)
    2d48:	00 0a                	add    %cl,(%edx)
    2d4a:	64 06                	fs push %es
    2d4c:	00 00                	add    %al,(%eax)
    2d4e:	02 5c c5 01          	add    0x1(%ebp,%eax,8),%bl
    2d52:	00 00                	add    %al,(%eax)
    2d54:	0b 17                	or     (%edi),%edx
    2d56:	01 00                	add    %eax,(%eax)
    2d58:	00 0b                	add    %cl,(%ebx)
    2d5a:	72 01                	jb     2d5d <mbh-0x2fd2a3>
    2d5c:	00 00                	add    %al,(%eax)
    2d5e:	00 0c 25 00 00 00 d5 	add    %cl,-0x2b000000(,%eiz,1)
    2d65:	01 00                	add    %eax,(%eax)
    2d67:	00 0d 54 00 00 00    	add    %cl,0x54
    2d6d:	03 00                	add    (%eax),%eax
    2d6f:	02 38                	add    (%eax),%bh
    2d71:	07                   	pop    %es
    2d72:	00 00                	add    %al,(%eax)
    2d74:	02 7a 8d             	add    -0x73(%edx),%bh
    2d77:	01 00                	add    %eax,(%eax)
    2d79:	00 10                	add    %dl,(%eax)
    2d7b:	e1 0c                	loope  2d89 <mbh-0x2fd277>
    2d7d:	00 00                	add    %al,(%eax)
    2d7f:	04 03                	add    $0x3,%al
    2d81:	26 24 03             	es and $0x3,%al
    2d84:	00 00                	add    %al,(%eax)
    2d86:	11 63 66             	adc    %esp,0x66(%ebx)
    2d89:	00 03                	add    %al,(%ebx)
    2d8b:	28 49 00             	sub    %cl,0x0(%ecx)
    2d8e:	00 00                	add    %al,(%eax)
    2d90:	04 01                	add    $0x1,%al
    2d92:	1f                   	pop    %ds
    2d93:	00 11                	add    %dl,(%ecx)
    2d95:	72 31                	jb     2dc8 <mbh-0x2fd238>
    2d97:	00 03                	add    %al,(%ebx)
    2d99:	29 49 00             	sub    %ecx,0x0(%ecx)
    2d9c:	00 00                	add    %al,(%eax)
    2d9e:	04 01                	add    $0x1,%al
    2da0:	1e                   	push   %ds
    2da1:	00 11                	add    %dl,(%ecx)
    2da3:	70 66                	jo     2e0b <mbh-0x2fd1f5>
    2da5:	00 03                	add    %al,(%ebx)
    2da7:	2a 49 00             	sub    0x0(%ecx),%cl
    2daa:	00 00                	add    %al,(%eax)
    2dac:	04 01                	add    $0x1,%al
    2dae:	1d 00 11 72 32       	sbb    $0x32721100,%eax
    2db3:	00 03                	add    %al,(%ebx)
    2db5:	2b 49 00             	sub    0x0(%ecx),%ecx
    2db8:	00 00                	add    %al,(%eax)
    2dba:	04 01                	add    $0x1,%al
    2dbc:	1c 00                	sbb    $0x0,%al
    2dbe:	11 61 66             	adc    %esp,0x66(%ecx)
    2dc1:	00 03                	add    %al,(%ebx)
    2dc3:	2c 49                	sub    $0x49,%al
    2dc5:	00 00                	add    %al,(%eax)
    2dc7:	00 04 01             	add    %al,(%ecx,%eax,1)
    2dca:	1b 00                	sbb    (%eax),%eax
    2dcc:	11 72 33             	adc    %esi,0x33(%edx)
    2dcf:	00 03                	add    %al,(%ebx)
    2dd1:	2d 49 00 00 00       	sub    $0x49,%eax
    2dd6:	04 01                	add    $0x1,%al
    2dd8:	1a 00                	sbb    (%eax),%al
    2dda:	11 7a 66             	adc    %edi,0x66(%edx)
    2ddd:	00 03                	add    %al,(%ebx)
    2ddf:	2e 49                	cs dec %ecx
    2de1:	00 00                	add    %al,(%eax)
    2de3:	00 04 01             	add    %al,(%ecx,%eax,1)
    2de6:	19 00                	sbb    %eax,(%eax)
    2de8:	11 73 66             	adc    %esi,0x66(%ebx)
    2deb:	00 03                	add    %al,(%ebx)
    2ded:	2f                   	das    
    2dee:	49                   	dec    %ecx
    2def:	00 00                	add    %al,(%eax)
    2df1:	00 04 01             	add    %al,(%ecx,%eax,1)
    2df4:	18 00                	sbb    %al,(%eax)
    2df6:	11 74 66 00          	adc    %esi,0x0(%esi,%eiz,2)
    2dfa:	03 31                	add    (%ecx),%esi
    2dfc:	49                   	dec    %ecx
    2dfd:	00 00                	add    %al,(%eax)
    2dff:	00 04 01             	add    %al,(%ecx,%eax,1)
    2e02:	17                   	pop    %ss
    2e03:	00 11                	add    %dl,(%ecx)
    2e05:	69 74 00 03 32 49 00 	imul   $0x4932,0x3(%eax,%eax,1),%esi
    2e0c:	00 
    2e0d:	00 04 01             	add    %al,(%ecx,%eax,1)
    2e10:	16                   	push   %ss
    2e11:	00 11                	add    %dl,(%ecx)
    2e13:	64 66 00 03          	data16 add %al,%fs:(%ebx)
    2e17:	33 49 00             	xor    0x0(%ecx),%ecx
    2e1a:	00 00                	add    %al,(%eax)
    2e1c:	04 01                	add    $0x1,%al
    2e1e:	15 00 11 6f 66       	adc    $0x666f1100,%eax
    2e23:	00 03                	add    %al,(%ebx)
    2e25:	34 49                	xor    $0x49,%al
    2e27:	00 00                	add    %al,(%eax)
    2e29:	00 04 01             	add    %al,(%ecx,%eax,1)
    2e2c:	14 00                	adc    $0x0,%al
    2e2e:	12 2b                	adc    (%ebx),%ch
    2e30:	0d 00 00 03 35       	or     $0x35030000,%eax
    2e35:	49                   	dec    %ecx
    2e36:	00 00                	add    %al,(%eax)
    2e38:	00 04 02             	add    %al,(%edx,%eax,1)
    2e3b:	12 00                	adc    (%eax),%al
    2e3d:	11 6e 74             	adc    %ebp,0x74(%esi)
    2e40:	00 03                	add    %al,(%ebx)
    2e42:	36 49                	ss dec %ecx
    2e44:	00 00                	add    %al,(%eax)
    2e46:	00 04 01             	add    %al,(%ecx,%eax,1)
    2e49:	11 00                	adc    %eax,(%eax)
    2e4b:	11 72 34             	adc    %esi,0x34(%edx)
    2e4e:	00 03                	add    %al,(%ebx)
    2e50:	37                   	aaa    
    2e51:	49                   	dec    %ecx
    2e52:	00 00                	add    %al,(%eax)
    2e54:	00 04 01             	add    %al,(%ecx,%eax,1)
    2e57:	10 00                	adc    %al,(%eax)
    2e59:	11 72 66             	adc    %esi,0x66(%edx)
    2e5c:	00 03                	add    %al,(%ebx)
    2e5e:	39 49 00             	cmp    %ecx,0x0(%ecx)
    2e61:	00 00                	add    %al,(%eax)
    2e63:	04 01                	add    $0x1,%al
    2e65:	0f 00 11             	lldt   (%ecx)
    2e68:	76 6d                	jbe    2ed7 <mbh-0x2fd129>
    2e6a:	00 03                	add    %al,(%ebx)
    2e6c:	3a 49 00             	cmp    0x0(%ecx),%cl
    2e6f:	00 00                	add    %al,(%eax)
    2e71:	04 01                	add    $0x1,%al
    2e73:	0e                   	push   %cs
    2e74:	00 11                	add    %dl,(%ecx)
    2e76:	61                   	popa   
    2e77:	63 00                	arpl   %ax,(%eax)
    2e79:	03 3b                	add    (%ebx),%edi
    2e7b:	49                   	dec    %ecx
    2e7c:	00 00                	add    %al,(%eax)
    2e7e:	00 04 01             	add    %al,(%ecx,%eax,1)
    2e81:	0d 00 11 76 69       	or     $0x69761100,%eax
    2e86:	74 00                	je     2e88 <mbh-0x2fd178>
    2e88:	03 3c 49             	add    (%ecx,%ecx,2),%edi
    2e8b:	00 00                	add    %al,(%eax)
    2e8d:	00 04 01             	add    %al,(%ecx,%eax,1)
    2e90:	0c 00                	or     $0x0,%al
    2e92:	11 76 69             	adc    %esi,0x69(%esi)
    2e95:	70 00                	jo     2e97 <mbh-0x2fd169>
    2e97:	03 3e                	add    (%esi),%edi
    2e99:	49                   	dec    %ecx
    2e9a:	00 00                	add    %al,(%eax)
    2e9c:	00 04 01             	add    %al,(%ecx,%eax,1)
    2e9f:	0b 00                	or     (%eax),%eax
    2ea1:	11 69 64             	adc    %ebp,0x64(%ecx)
    2ea4:	00 03                	add    %al,(%ebx)
    2ea6:	3f                   	aas    
    2ea7:	49                   	dec    %ecx
    2ea8:	00 00                	add    %al,(%eax)
    2eaa:	00 04 01             	add    %al,(%ecx,%eax,1)
    2ead:	0a 00                	or     (%eax),%al
    2eaf:	11 72 35             	adc    %esi,0x35(%edx)
    2eb2:	00 03                	add    %al,(%ebx)
    2eb4:	40                   	inc    %eax
    2eb5:	49                   	dec    %ecx
    2eb6:	00 00                	add    %al,(%eax)
    2eb8:	00 04 0a             	add    %al,(%edx,%ecx,1)
    2ebb:	00 00                	add    %al,(%eax)
    2ebd:	00 02                	add    %al,(%edx)
    2ebf:	7b 0c                	jnp    2ecd <mbh-0x2fd133>
    2ec1:	00 00                	add    %al,(%eax)
    2ec3:	03 42 e0             	add    -0x20(%edx),%eax
    2ec6:	01 00                	add    %eax,(%eax)
    2ec8:	00 08                	add    %cl,(%eax)
    2eca:	ba 0c 00 00 04       	mov    $0x400000c,%edx
    2ecf:	03 44 46 03          	add    0x3(%esi,%eax,2),%eax
    2ed3:	00 00                	add    %al,(%eax)
    2ed5:	0b 24 03             	or     (%ebx,%eax,1),%esp
    2ed8:	00 00                	add    %al,(%eax)
    2eda:	0b d5                	or     %ebp,%edx
    2edc:	01 00                	add    %eax,(%eax)
    2ede:	00 00                	add    %al,(%eax)
    2ee0:	02 e2                	add    %dl,%ah
    2ee2:	0a 00                	or     (%eax),%al
    2ee4:	00 03                	add    %al,(%ebx)
    2ee6:	49                   	dec    %ecx
    2ee7:	2f                   	das    
    2ee8:	03 00                	add    (%eax),%eax
    2eea:	00 0c d5 01 00 00 61 	add    %cl,0x61000001(,%edx,8)
    2ef1:	03 00                	add    (%eax),%eax
    2ef3:	00 0d 54 00 00 00    	add    %cl,0x54
    2ef9:	07                   	pop    %es
    2efa:	00 06                	add    %al,(%esi)
    2efc:	20 03                	and    %al,(%ebx)
    2efe:	70 ca                	jo     2eca <mbh-0x2fd136>
    2f00:	03 00                	add    (%eax),%eax
    2f02:	00 13                	add    %dl,(%ebx)
    2f04:	65 64 69 00 03 72 d5 	gs imul $0x1d57203,%fs:(%eax),%eax
    2f0b:	01 
    2f0c:	00 00                	add    %al,(%eax)
    2f0e:	00 13                	add    %dl,(%ebx)
    2f10:	65 73 69             	gs jae 2f7c <mbh-0x2fd084>
    2f13:	00 03                	add    %al,(%ebx)
    2f15:	73 d5                	jae    2eec <mbh-0x2fd114>
    2f17:	01 00                	add    %eax,(%eax)
    2f19:	00 04 13             	add    %al,(%ebx,%edx,1)
    2f1c:	65 62 70 00          	bound  %esi,%gs:0x0(%eax)
    2f20:	03 74 d5 01          	add    0x1(%ebp,%edx,8),%esi
    2f24:	00 00                	add    %al,(%eax)
    2f26:	08 13                	or     %dl,(%ebx)
    2f28:	65 73 70             	gs jae 2f9b <mbh-0x2fd065>
    2f2b:	00 03                	add    %al,(%ebx)
    2f2d:	75 d5                	jne    2f04 <mbh-0x2fd0fc>
    2f2f:	01 00                	add    %eax,(%eax)
    2f31:	00 0c 13             	add    %cl,(%ebx,%edx,1)
    2f34:	65 62 78 00          	bound  %edi,%gs:0x0(%eax)
    2f38:	03 76 d5             	add    -0x2b(%esi),%esi
    2f3b:	01 00                	add    %eax,(%eax)
    2f3d:	00 10                	add    %dl,(%eax)
    2f3f:	13 65 64             	adc    0x64(%ebp),%esp
    2f42:	78 00                	js     2f44 <mbh-0x2fd0bc>
    2f44:	03 77 d5             	add    -0x2b(%edi),%esi
    2f47:	01 00                	add    %eax,(%eax)
    2f49:	00 14 13             	add    %dl,(%ebx,%edx,1)
    2f4c:	65 63 78 00          	arpl   %di,%gs:0x0(%eax)
    2f50:	03 78 d5             	add    -0x2b(%eax),%edi
    2f53:	01 00                	add    %eax,(%eax)
    2f55:	00 18                	add    %bl,(%eax)
    2f57:	13 65 61             	adc    0x61(%ebp),%esp
    2f5a:	78 00                	js     2f5c <mbh-0x2fd0a4>
    2f5c:	03 79 d5             	add    -0x2b(%ecx),%edi
    2f5f:	01 00                	add    %eax,(%eax)
    2f61:	00 1c 00             	add    %bl,(%eax,%eax,1)
    2f64:	08 5f 0b             	or     %bl,0xb(%edi)
    2f67:	00 00                	add    %al,(%eax)
    2f69:	20 03                	and    %al,(%ebx)
    2f6b:	6e                   	outsb  %ds:(%esi),(%dx)
    2f6c:	e7 03                	out    %eax,$0x3
    2f6e:	00 00                	add    %al,(%eax)
    2f70:	0b 61 03             	or     0x3(%ecx),%esp
    2f73:	00 00                	add    %al,(%eax)
    2f75:	09 72 61             	or     %esi,0x61(%edx)
    2f78:	77 00                	ja     2f7a <mbh-0x2fd086>
    2f7a:	03 7d 51             	add    0x51(%ebp),%edi
    2f7d:	03 00                	add    (%eax),%eax
    2f7f:	00 00                	add    %al,(%eax)
    2f81:	02 52 0c             	add    0xc(%edx),%dl
    2f84:	00 00                	add    %al,(%eax)
    2f86:	03 7f ca             	add    -0x36(%edi),%edi
    2f89:	03 00                	add    (%eax),%eax
    2f8b:	00 06                	add    %al,(%esi)
    2f8d:	04 04                	add    $0x4,%al
    2f8f:	44                   	inc    %esp
    2f90:	43                   	inc    %ebx
    2f91:	04 00                	add    $0x0,%al
    2f93:	00 11                	add    %dl,(%ecx)
    2f95:	65 78 74             	gs js  300c <mbh-0x2fcff4>
    2f98:	00 04 46             	add    %al,(%esi,%eax,2)
    2f9b:	49                   	dec    %ecx
    2f9c:	00 00                	add    %al,(%eax)
    2f9e:	00 04 01             	add    %al,(%ecx,%eax,1)
    2fa1:	1f                   	pop    %ds
    2fa2:	00 11                	add    %dl,(%ecx)
    2fa4:	69 64 74 00 04 47 49 	imul   $0x494704,0x0(%esp,%esi,2),%esp
    2fab:	00 
    2fac:	00 00                	add    %al,(%eax)
    2fae:	04 01                	add    $0x1,%al
    2fb0:	1e                   	push   %ds
    2fb1:	00 11                	add    %dl,(%ecx)
    2fb3:	74 69                	je     301e <mbh-0x2fcfe2>
    2fb5:	00 04 48             	add    %al,(%eax,%ecx,2)
    2fb8:	49                   	dec    %ecx
    2fb9:	00 00                	add    %al,(%eax)
    2fbb:	00 04 01             	add    %al,(%ecx,%eax,1)
    2fbe:	1d 00 11 69 64       	sbb    $0x64691100,%eax
    2fc3:	78 00                	js     2fc5 <mbh-0x2fd03b>
    2fc5:	04 49                	add    $0x49,%al
    2fc7:	49                   	dec    %ecx
    2fc8:	00 00                	add    %al,(%eax)
    2fca:	00 04 0d 10 00 11 72 	add    %al,0x72110010(,%ecx,1)
    2fd1:	00 04 4a             	add    %al,(%edx,%ecx,2)
    2fd4:	49                   	dec    %ecx
    2fd5:	00 00                	add    %al,(%eax)
    2fd7:	00 04 10             	add    %al,(%eax,%edx,1)
    2fda:	00 00                	add    %al,(%eax)
    2fdc:	00 08                	add    %cl,(%eax)
    2fde:	5c                   	pop    %esp
    2fdf:	0c 00                	or     $0x0,%al
    2fe1:	00 04 04             	add    %al,(%esp,%eax,1)
    2fe4:	42                   	inc    %edx
    2fe5:	5a                   	pop    %edx
    2fe6:	04 00                	add    $0x0,%al
    2fe8:	00 0b                	add    %cl,(%ebx)
    2fea:	f2 03 00             	repnz add (%eax),%eax
    2fed:	00 0b                	add    %cl,(%ebx)
    2fef:	d5 01                	aad    $0x1
    2ff1:	00 00                	add    %al,(%eax)
    2ff3:	00 02                	add    %al,(%edx)
    2ff5:	8f                   	(bad)  
    2ff6:	0c 00                	or     $0x0,%al
    2ff8:	00 04 50             	add    %al,(%eax,%edx,2)
    2ffb:	43                   	inc    %ebx
    2ffc:	04 00                	add    $0x0,%al
    2ffe:	00 06                	add    %al,(%esi)
    3000:	04 04                	add    $0x4,%al
    3002:	57                   	push   %edi
    3003:	c1 04 00 00          	roll   $0x0,(%eax,%eax,1)
    3007:	11 70 00             	adc    %esi,0x0(%eax)
    300a:	04 59                	add    $0x59,%al
    300c:	49                   	dec    %ecx
    300d:	00 00                	add    %al,(%eax)
    300f:	00 04 01             	add    %al,(%ecx,%eax,1)
    3012:	1f                   	pop    %ds
    3013:	00 11                	add    %dl,(%ecx)
    3015:	77 72                	ja     3089 <mbh-0x2fcf77>
    3017:	00 04 5a             	add    %al,(%edx,%ebx,2)
    301a:	49                   	dec    %ecx
    301b:	00 00                	add    %al,(%eax)
    301d:	00 04 01             	add    %al,(%ecx,%eax,1)
    3020:	1e                   	push   %ds
    3021:	00 11                	add    %dl,(%ecx)
    3023:	75 73                	jne    3098 <mbh-0x2fcf68>
    3025:	00 04 5b             	add    %al,(%ebx,%ebx,2)
    3028:	49                   	dec    %ecx
    3029:	00 00                	add    %al,(%eax)
    302b:	00 04 01             	add    %al,(%ecx,%eax,1)
    302e:	1d 00 11 72 73       	sbb    $0x73721100,%eax
    3033:	76 00                	jbe    3035 <mbh-0x2fcfcb>
    3035:	04 5c                	add    $0x5c,%al
    3037:	49                   	dec    %ecx
    3038:	00 00                	add    %al,(%eax)
    303a:	00 04 01             	add    %al,(%ecx,%eax,1)
    303d:	1c 00                	sbb    $0x0,%al
    303f:	11 69 64             	adc    %ebp,0x64(%ecx)
    3042:	00 04 5d 49 00 00 00 	add    %al,0x49(,%ebx,2)
    3049:	04 01                	add    $0x1,%al
    304b:	1b 00                	sbb    (%eax),%eax
    304d:	11 72 00             	adc    %esi,0x0(%edx)
    3050:	04 5e                	add    $0x5e,%al
    3052:	49                   	dec    %ecx
    3053:	00 00                	add    %al,(%eax)
    3055:	00 04 1b             	add    %al,(%ebx,%ebx,1)
    3058:	00 00                	add    %al,(%eax)
    305a:	00 08                	add    %cl,(%eax)
    305c:	cc                   	int3   
    305d:	0a 00                	or     (%eax),%al
    305f:	00 04 04             	add    %al,(%esp,%eax,1)
    3062:	55                   	push   %ebp
    3063:	d8 04 00             	fadds  (%eax,%eax,1)
    3066:	00 0b                	add    %cl,(%ebx)
    3068:	65 04 00             	gs add $0x0,%al
    306b:	00 0b                	add    %cl,(%ebx)
    306d:	d5 01                	aad    $0x1
    306f:	00 00                	add    %al,(%eax)
    3071:	00 02                	add    %al,(%edx)
    3073:	ef                   	out    %eax,(%dx)
    3074:	0a 00                	or     (%eax),%al
    3076:	00 04 64             	add    %al,(%esp,%eiz,2)
    3079:	c1 04 00 00          	roll   $0x0,(%eax,%eax,1)
    307d:	08 b8 0b 00 00 04    	or     %bh,0x400000b(%eax)
    3083:	04 69                	add    $0x69,%al
    3085:	09 05 00 00 0b d5    	or     %eax,0xd50b0000
    308b:	01 00                	add    %eax,(%eax)
    308d:	00 09                	add    %cl,(%ecx)
    308f:	73 6c                	jae    30fd <mbh-0x2fcf03>
    3091:	00 04 6d 5a 04 00 00 	add    %al,0x45a(,%ebp,2)
    3098:	09 70 66             	or     %esi,0x66(%eax)
    309b:	00 04 6e             	add    %al,(%esi,%ebp,2)
    309e:	d8 04 00             	fadds  (%eax,%eax,1)
    30a1:	00 00                	add    %al,(%eax)
    30a3:	02 4f 0b             	add    0xb(%edi),%cl
    30a6:	00 00                	add    %al,(%eax)
    30a8:	04 70                	add    $0x70,%al
    30aa:	e3 04                	jecxz  30b0 <mbh-0x2fcf50>
    30ac:	00 00                	add    %al,(%eax)
    30ae:	10 0d 0d 00 00 1c    	adc    %cl,0x1c00000d
    30b4:	05 29 72 05 00       	add    $0x57229,%eax
    30b9:	00 13                	add    %dl,(%ebx)
    30bb:	6e                   	outsb  %ds:(%esi),(%dx)
    30bc:	72 00                	jb     30be <mbh-0x2fcf42>
    30be:	05 2b d5 01 00       	add    $0x1d52b,%eax
    30c3:	00 00                	add    %al,(%eax)
    30c5:	13 65 72             	adc    0x72(%ebp),%esp
    30c8:	72 00                	jb     30ca <mbh-0x2fcf36>
    30ca:	05 2c 09 05 00       	add    $0x5092c,%eax
    30cf:	00 04 13             	add    %al,(%ebx,%edx,1)
    30d2:	65 69 70 00 05 2d d5 	imul   $0x1d52d05,%gs:0x0(%eax),%esi
    30d9:	01 
    30da:	00 00                	add    %al,(%eax)
    30dc:	08 13                	or     %dl,(%ebx)
    30de:	63 73 00             	arpl   %si,0x0(%ebx)
    30e1:	05 2e d5 01 00       	add    $0x1d52e,%eax
    30e6:	00 0c 07             	add    %cl,(%edi,%eax,1)
    30e9:	4b                   	dec    %ebx
    30ea:	0c 00                	or     $0x0,%al
    30ec:	00 05 2f 46 03 00    	add    %al,0x3462f
    30f2:	00 10                	add    %dl,(%eax)
    30f4:	13 65 73             	adc    0x73(%ebp),%esp
    30f7:	70 00                	jo     30f9 <mbh-0x2fcf07>
    30f9:	05 32 d5 01 00       	add    $0x1d532,%eax
    30fe:	00 14 13             	add    %dl,(%ebx,%edx,1)
    3101:	73 73                	jae    3176 <mbh-0x2fce8a>
    3103:	00 05 33 d5 01 00    	add    %al,0x1d533
    3109:	00 18                	add    %bl,(%eax)
    310b:	00 02                	add    %al,(%edx)
    310d:	3c 0c                	cmp    $0xc,%al
    310f:	00 00                	add    %al,(%eax)
    3111:	05 35 14 05 00       	add    $0x51435,%eax
    3116:	00 10                	add    %dl,(%eax)
    3118:	19 0d 00 00 3c 05    	sbb    %ecx,0x53c0000
    311e:	38 9c 05 00 00 13 67 	cmp    %bl,0x67130000(%ebp,%eax,1)
    3125:	70 72                	jo     3199 <mbh-0x2fce67>
    3127:	00 05 3a e7 03 00    	add    %al,0x3e73a
    312d:	00 00                	add    %al,(%eax)
    312f:	0f 72                	(bad)  
    3131:	05 00 00 20 00       	add    $0x200000,%eax
    3136:	02 28                	add    (%eax),%ch
    3138:	0c 00                	or     $0x0,%al
    313a:	00 05 3d 7d 05 00    	add    %al,0x57d3d
    3140:	00 05 04 9c 05 00    	add    %al,0x59c04
    3146:	00 02                	add    %al,(%edx)
    3148:	58                   	pop    %eax
    3149:	05 00 00 06 60       	add    $0x60060000,%eax
    314e:	30 00                	xor    %al,(%eax)
    3150:	00 00                	add    %al,(%eax)
    3152:	02 ad 00 00 00 06    	add    0x6000000(%ebp),%ch
    3158:	61                   	popa   
    3159:	42                   	inc    %edx
    315a:	00 00                	add    %al,(%eax)
    315c:	00 02                	add    %al,(%edx)
    315e:	90                   	nop
    315f:	00 00                	add    %al,(%eax)
    3161:	00 06                	add    %al,(%esi)
    3163:	62 54 00 00          	bound  %edx,0x0(%eax,%eax,1)
    3167:	00 02                	add    %al,(%edx)
    3169:	06                   	push   %es
    316a:	04 00                	add    $0x0,%al
    316c:	00 06                	add    %al,(%esi)
    316e:	63 5b 00             	arpl   %bx,0x0(%ebx)
    3171:	00 00                	add    %al,(%eax)
    3173:	10 31                	adc    %dh,(%ecx)
    3175:	05 00 00 10 06       	add    $0x6100000,%eax
    317a:	7f 16                	jg     3192 <mbh-0x2fce6e>
    317c:	06                   	push   %es
    317d:	00 00                	add    %al,(%eax)
    317f:	07                   	pop    %es
    3180:	aa                   	stos   %al,%es:(%edi)
    3181:	04 00                	add    $0x0,%al
    3183:	00 06                	add    %al,(%esi)
    3185:	81 c3 05 00 00 00    	add    $0x5,%ebx
    318b:	07                   	pop    %es
    318c:	9b                   	fwait
    318d:	02 00                	add    (%eax),%al
    318f:	00 06                	add    %al,(%esi)
    3191:	82 c3 05             	add    $0x5,%bl
    3194:	00 00                	add    %al,(%eax)
    3196:	04 07                	add    $0x7,%al
    3198:	99                   	cltd   
    3199:	05 00 00 06 83       	add    $0x83060000,%eax
    319e:	c3                   	ret    
    319f:	05 00 00 08 07       	add    $0x7080000,%eax
    31a4:	7c 05                	jl     31ab <mbh-0x2fce55>
    31a6:	00 00                	add    %al,(%eax)
    31a8:	06                   	push   %es
    31a9:	84 c3                	test   %al,%bl
    31ab:	05 00 00 0c 00       	add    $0xc0000,%eax
    31b0:	02 7a 04             	add    0x4(%edx),%bh
    31b3:	00 00                	add    %al,(%eax)
    31b5:	06                   	push   %es
    31b6:	86 d9                	xchg   %bl,%cl
    31b8:	05 00 00 10 34       	add    $0x34100000,%eax
    31bd:	04 00                	add    $0x0,%al
    31bf:	00 10                	add    %dl,(%eax)
    31c1:	06                   	push   %es
    31c2:	89 5e 06             	mov    %ebx,0x6(%esi)
    31c5:	00 00                	add    %al,(%eax)
    31c7:	13 6e 75             	adc    0x75(%esi),%ebp
    31ca:	6d                   	insl   (%dx),%es:(%edi)
    31cb:	00 06                	add    %al,(%esi)
    31cd:	8b c3                	mov    %ebx,%eax
    31cf:	05 00 00 00 07       	add    $0x7000000,%eax
    31d4:	c7 04 00 00 06 8c c3 	movl   $0xc38c0600,(%eax,%eax,1)
    31db:	05 00 00 04 07       	add    $0x7040000,%eax
    31e0:	99                   	cltd   
    31e1:	05 00 00 06 8d       	add    $0x8d060000,%eax
    31e6:	c3                   	ret    
    31e7:	05 00 00 08 07       	add    $0x7080000,%eax
    31ec:	c8 02 00 00          	enter  $0x2,$0x0
    31f0:	06                   	push   %es
    31f1:	8e c3                	mov    %ebx,%es
    31f3:	05 00 00 0c 00       	add    $0xc0000,%eax
    31f8:	02 a3 02 00 00 06    	add    0x6000002(%ebx),%ah
    31fe:	90                   	nop
    31ff:	21 06                	and    %eax,(%esi)
    3201:	00 00                	add    %al,(%eax)
    3203:	0e                   	push   %cs
    3204:	10 06                	adc    %al,(%esi)
    3206:	a5                   	movsl  %ds:(%esi),%es:(%edi)
    3207:	88 06                	mov    %al,(%esi)
    3209:	00 00                	add    %al,(%eax)
    320b:	0a 1a                	or     (%edx),%bl
    320d:	01 00                	add    %eax,(%eax)
    320f:	00 06                	add    %al,(%esi)
    3211:	a7                   	cmpsl  %es:(%edi),%ds:(%esi)
    3212:	16                   	push   %ss
    3213:	06                   	push   %es
    3214:	00 00                	add    %al,(%eax)
    3216:	0a 70 03             	or     0x3(%eax),%dh
    3219:	00 00                	add    %al,(%eax)
    321b:	06                   	push   %es
    321c:	a8 5e                	test   $0x5e,%al
    321e:	06                   	push   %es
    321f:	00 00                	add    %al,(%eax)
    3221:	00 06                	add    %al,(%esi)
    3223:	08 06                	or     %al,(%esi)
    3225:	cf                   	iret   
    3226:	a9 06 00 00 07       	test   $0x7000006,%eax
    322b:	85 05 00 00 06 d1    	test   %eax,0xd1060000
    3231:	c3                   	ret    
    3232:	05 00 00 00 07       	add    $0x7000000,%eax
    3237:	ec                   	in     (%dx),%al
    3238:	02 00                	add    (%eax),%al
    323a:	00 06                	add    %al,(%esi)
    323c:	d2 b8 05 00 00 04    	sarb   %cl,0x4000005(%eax)
    3242:	00 06                	add    %al,(%esi)
    3244:	06                   	push   %es
    3245:	06                   	push   %es
    3246:	d4 fa                	aam    $0xfa
    3248:	06                   	push   %es
    3249:	00 00                	add    %al,(%eax)
    324b:	07                   	pop    %es
    324c:	c0 00 00             	rolb   $0x0,(%eax)
    324f:	00 06                	add    %al,(%esi)
    3251:	d6                   	(bad)  
    3252:	ad                   	lods   %ds:(%esi),%eax
    3253:	05 00 00 00 07       	add    $0x7000000,%eax
    3258:	b2 04                	mov    $0x4,%dl
    325a:	00 00                	add    %al,(%eax)
    325c:	06                   	push   %es
    325d:	d7                   	xlat   %ds:(%ebx)
    325e:	ad                   	lods   %ds:(%esi),%eax
    325f:	05 00 00 01 07       	add    $0x7010000,%eax
    3264:	c0 03 00             	rolb   $0x0,(%ebx)
    3267:	00 06                	add    %al,(%esi)
    3269:	d8 ad 05 00 00 02    	fsubrs 0x2000005(%ebp)
    326f:	07                   	pop    %es
    3270:	f1                   	icebp  
    3271:	04 00                	add    $0x0,%al
    3273:	00 06                	add    %al,(%esi)
    3275:	d9 ad 05 00 00 03    	fldcw  0x3000005(%ebp)
    327b:	07                   	pop    %es
    327c:	fa                   	cli    
    327d:	00 00                	add    %al,(%eax)
    327f:	00 06                	add    %al,(%esi)
    3281:	da ad 05 00 00 04    	fisubrl 0x4000005(%ebp)
    3287:	07                   	pop    %es
    3288:	48                   	dec    %eax
    3289:	00 00                	add    %al,(%eax)
    328b:	00 06                	add    %al,(%esi)
    328d:	db ad 05 00 00 05    	fldt   0x5000005(%ebp)
    3293:	00 0e                	add    %cl,(%esi)
    3295:	08 06                	or     %al,(%esi)
    3297:	cd 0d                	int    $0xd
    3299:	07                   	pop    %es
    329a:	00 00                	add    %al,(%eax)
    329c:	0b 88 06 00 00 0b    	or     0xb000006(%eax),%ecx
    32a2:	a9 06 00 00 00       	test   $0x6,%eax
    32a7:	10 25 04 00 00 78    	adc    %ah,0x78000004
    32ad:	06                   	push   %es
    32ae:	92                   	xchg   %eax,%edx
    32af:	62 08                	bound  %ecx,(%eax)
    32b1:	00 00                	add    %al,(%eax)
    32b3:	07                   	pop    %es
    32b4:	4c                   	dec    %esp
    32b5:	0c 00                	or     $0x0,%al
    32b7:	00 06                	add    %al,(%esi)
    32b9:	95                   	xchg   %eax,%ebp
    32ba:	c3                   	ret    
    32bb:	05 00 00 00 07       	add    $0x7000000,%eax
    32c0:	78 03                	js     32c5 <mbh-0x2fcd3b>
    32c2:	00 00                	add    %al,(%eax)
    32c4:	06                   	push   %es
    32c5:	98                   	cwtl   
    32c6:	c3                   	ret    
    32c7:	05 00 00 04 07       	add    $0x7040000,%eax
    32cc:	da 04 00             	fiaddl (%eax,%eax,1)
    32cf:	00 06                	add    %al,(%esi)
    32d1:	99                   	cltd   
    32d2:	c3                   	ret    
    32d3:	05 00 00 08 07       	add    $0x7080000,%eax
    32d8:	19 04 00             	sbb    %eax,(%eax,%eax,1)
    32db:	00 06                	add    %al,(%esi)
    32dd:	9c                   	pushf  
    32de:	c3                   	ret    
    32df:	05 00 00 0c 07       	add    $0x70c0000,%eax
    32e4:	f2 00 00             	repnz add %al,(%eax)
    32e7:	00 06                	add    %al,(%esi)
    32e9:	9f                   	lahf   
    32ea:	c3                   	ret    
    32eb:	05 00 00 10 07       	add    $0x7100000,%eax
    32f0:	4d                   	dec    %ebp
    32f1:	05 00 00 06 a2       	add    $0xa2060000,%eax
    32f6:	c3                   	ret    
    32f7:	05 00 00 14 07       	add    $0x7140000,%eax
    32fc:	23 01                	and    (%ecx),%eax
    32fe:	00 00                	add    %al,(%eax)
    3300:	06                   	push   %es
    3301:	a3 c3 05 00 00       	mov    %eax,0x5c3
    3306:	18 13                	sbb    %dl,(%ebx)
    3308:	75 00                	jne    330a <mbh-0x2fccf6>
    330a:	06                   	push   %es
    330b:	a9 69 06 00 00       	test   $0x669,%eax
    3310:	1c 07                	sbb    $0x7,%al
    3312:	b4 03                	mov    $0x3,%ah
    3314:	00 00                	add    %al,(%eax)
    3316:	06                   	push   %es
    3317:	ac                   	lods   %ds:(%esi),%al
    3318:	c3                   	ret    
    3319:	05 00 00 2c 07       	add    $0x72c0000,%eax
    331e:	63 00                	arpl   %ax,(%eax)
    3320:	00 00                	add    %al,(%eax)
    3322:	06                   	push   %es
    3323:	ad                   	lods   %ds:(%esi),%eax
    3324:	c3                   	ret    
    3325:	05 00 00 30 07       	add    $0x7300000,%eax
    332a:	cc                   	int3   
    332b:	04 00                	add    $0x0,%al
    332d:	00 06                	add    %al,(%esi)
    332f:	b0 c3                	mov    $0xc3,%al
    3331:	05 00 00 34 07       	add    $0x7340000,%eax
    3336:	e6 00                	out    %al,$0x0
    3338:	00 00                	add    %al,(%eax)
    333a:	06                   	push   %es
    333b:	b1 c3                	mov    $0xc3,%cl
    333d:	05 00 00 38 07       	add    $0x7380000,%eax
    3342:	e4 04                	in     $0x4,%al
    3344:	00 00                	add    %al,(%eax)
    3346:	06                   	push   %es
    3347:	b4 c3                	mov    $0xc3,%ah
    3349:	05 00 00 3c 07       	add    $0x73c0000,%eax
    334e:	0b 03                	or     (%ebx),%eax
    3350:	00 00                	add    %al,(%eax)
    3352:	06                   	push   %es
    3353:	b7 c3                	mov    $0xc3,%bh
    3355:	05 00 00 40 07       	add    $0x7400000,%eax
    335a:	ce                   	into   
    335b:	02 00                	add    (%eax),%al
    335d:	00 06                	add    %al,(%esi)
    335f:	ba c3 05 00 00       	mov    $0x5c3,%edx
    3364:	44                   	inc    %esp
    3365:	07                   	pop    %es
    3366:	5f                   	pop    %edi
    3367:	03 00                	add    (%eax),%eax
    3369:	00 06                	add    %al,(%esi)
    336b:	bd c3 05 00 00       	mov    $0x5c3,%ebp
    3370:	48                   	dec    %eax
    3371:	07                   	pop    %es
    3372:	43                   	inc    %ebx
    3373:	03 00                	add    (%eax),%eax
    3375:	00 06                	add    %al,(%esi)
    3377:	be c3 05 00 00       	mov    $0x5c3,%esi
    337c:	4c                   	dec    %esp
    337d:	07                   	pop    %es
    337e:	82 03 00             	addb   $0x0,(%ebx)
    3381:	00 06                	add    %al,(%esi)
    3383:	bf b8 05 00 00       	mov    $0x5b8,%edi
    3388:	50                   	push   %eax
    3389:	07                   	pop    %es
    338a:	6a 05                	push   $0x5
    338c:	00 00                	add    %al,(%eax)
    338e:	06                   	push   %es
    338f:	c0 b8 05 00 00 52 07 	sarb   $0x7,0x52000005(%eax)
    3396:	7e 00                	jle    3398 <mbh-0x2fcc68>
    3398:	00 00                	add    %al,(%eax)
    339a:	06                   	push   %es
    339b:	c1 b8 05 00 00 54 07 	sarl   $0x7,0x54000005(%eax)
    33a2:	98                   	cwtl   
    33a3:	04 00                	add    $0x0,%al
    33a5:	00 06                	add    %al,(%esi)
    33a7:	c2 b8 05             	ret    $0x5b8
    33aa:	00 00                	add    %al,(%eax)
    33ac:	56                   	push   %esi
    33ad:	07                   	pop    %es
    33ae:	6d                   	insl   (%dx),%es:(%edi)
    33af:	00 00                	add    %al,(%eax)
    33b1:	00 06                	add    %al,(%esi)
    33b3:	c4                   	(bad)  
    33b4:	ce                   	into   
    33b5:	05 00 00 58 07       	add    $0x7580000,%eax
    33ba:	57                   	push   %edi
    33bb:	04 00                	add    $0x0,%al
    33bd:	00 06                	add    %al,(%esi)
    33bf:	c5 c3 05             	(bad)  
    33c2:	00 00                	add    %al,(%eax)
    33c4:	60                   	pusha  
    33c5:	07                   	pop    %es
    33c6:	a2 03 00 00 06       	mov    %al,0x6000003
    33cb:	c6 c3 05             	mov    $0x5,%bl
    33ce:	00 00                	add    %al,(%eax)
    33d0:	64 07                	fs pop %es
    33d2:	1e                   	push   %ds
    33d3:	05 00 00 06 c7       	add    $0xc7060000,%eax
    33d8:	c3                   	ret    
    33d9:	05 00 00 68 07       	add    $0x7680000,%eax
    33de:	33 03                	xor    (%ebx),%eax
    33e0:	00 00                	add    %al,(%eax)
    33e2:	06                   	push   %es
    33e3:	c8 ad 05 00          	enter  $0x5ad,$0x0
    33e7:	00 6c 07 69          	add    %ch,0x69(%edi,%eax,1)
    33eb:	04 00                	add    $0x0,%al
    33ed:	00 06                	add    %al,(%esi)
    33ef:	cc                   	int3   
    33f0:	ad                   	lods   %ds:(%esi),%eax
    33f1:	05 00 00 6d 0f       	add    $0xf6d0000,%eax
    33f6:	fa                   	cli    
    33f7:	06                   	push   %es
    33f8:	00 00                	add    %al,(%eax)
    33fa:	70 00                	jo     33fc <mbh-0x2fcc04>
    33fc:	02 0d 05 00 00 06    	add    0x6000005,%cl
    3402:	df 0d 07 00 00 02    	fisttps 0x2000007
    3408:	e6 02                	out    %al,$0x2
    340a:	00 00                	add    %al,(%eax)
    340c:	07                   	pop    %es
    340d:	08 62 08             	or     %ah,0x8(%edx)
    3410:	00 00                	add    %al,(%eax)
    3412:	10 e1                	adc    %ah,%cl
    3414:	03 00                	add    (%eax),%eax
    3416:	00 04 08             	add    %al,(%eax,%ecx,1)
    3419:	08 91 08 00 00 13    	or     %dl,0x13000008(%ecx)
    341f:	6d                   	insl   (%dx),%es:(%edi)
    3420:	62 69 00             	bound  %ebp,0x0(%ecx)
    3423:	08 0a                	or     %cl,(%edx)
    3425:	91                   	xchg   %eax,%ecx
    3426:	08 00                	or     %al,(%eax)
    3428:	00 00                	add    %al,(%eax)
    342a:	00 05 04 6d 08 00    	add    %al,0x86d04
    3430:	00 02                	add    %al,(%edx)
    3432:	17                   	pop    %ss
    3433:	05 00 00 08 0c       	add    $0xc080000,%eax
    3438:	78 08                	js     3442 <mbh-0x2fcbbe>
    343a:	00 00                	add    %al,(%eax)
    343c:	14 e1                	adc    $0xe1,%al
    343e:	00 00                	add    %al,(%eax)
    3440:	00 01                	add    %al,(%ecx)
    3442:	07                   	pop    %es
    3443:	ad                   	lods   %ds:(%esi),%eax
    3444:	08 00                	or     %al,(%eax)
    3446:	00 05 04 97 08 00    	add    %al,0x89704
    344c:	00 0c 94             	add    %cl,(%esp,%edx,4)
    344f:	00 00                	add    %al,(%eax)
    3451:	00 c3                	add    %al,%bl
    3453:	08 00                	or     %al,(%eax)
    3455:	00 0d 54 00 00 00    	add    %cl,0x54
    345b:	13 00                	adc    (%eax),%eax
    345d:	15 8e 0d 00 00       	adc    $0xd8e,%eax
    3462:	01 09                	add    %ecx,(%ecx)
    3464:	b3 08                	mov    $0x8,%bl
    3466:	00 00                	add    %al,(%eax)
    3468:	05 03 a0 52 30       	add    $0x3052a003,%eax
    346d:	00 16                	add    %dl,(%esi)
    346f:	b4 0d                	mov    $0xd,%ah
    3471:	00 00                	add    %al,(%eax)
    3473:	01 20                	add    %esp,(%eax)
    3475:	24 3f                	and    $0x3f,%al
    3477:	30 00                	xor    %al,(%eax)
    3479:	72 01                	jb     347c <mbh-0x2fcb84>
    347b:	00 00                	add    %al,(%eax)
    347d:	01 9c 17 63 74 78 00 	add    %ebx,0x787463(%edi,%edx,1)
    3484:	01 20                	add    %esp,(%eax)
    3486:	a7                   	cmpsl  %es:(%edi),%ds:(%esi)
    3487:	05 00 00 02 91       	add    $0x91020000,%eax
    348c:	5c                   	pop    %esp
    348d:	18 83 3f 30 00 09    	sbb    %al,0x900303f(%ebx)
    3493:	00 00                	add    %al,(%eax)
    3495:	00 0d 09 00 00 19    	add    %cl,0x19000009
    349b:	78 00                	js     349d <mbh-0x2fcb63>
    349d:	01 2c 49             	add    %ebp,(%ecx,%ecx,2)
    34a0:	00 00                	add    %al,(%eax)
    34a2:	00 02                	add    %al,(%edx)
    34a4:	91                   	xchg   %eax,%ecx
    34a5:	6c                   	insb   (%dx),%es:(%edi)
    34a6:	00 18                	add    %bl,(%eax)
    34a8:	39 40 30             	cmp    %eax,0x30(%eax)
    34ab:	00 09                	add    %cl,(%ecx)
    34ad:	00 00                	add    %al,(%eax)
    34af:	00 27                	add    %ah,(%edi)
    34b1:	09 00                	or     %eax,(%eax)
    34b3:	00 19                	add    %bl,(%ecx)
    34b5:	78 00                	js     34b7 <mbh-0x2fcb49>
    34b7:	01 3d 49 00 00 00    	add    %edi,0x49
    34bd:	02 91 68 00 1a 53    	add    0x531a0068(%ecx),%dl
    34c3:	40                   	inc    %eax
    34c4:	30 00                	xor    %al,(%eax)
    34c6:	09 00                	or     %eax,(%eax)
    34c8:	00 00                	add    %al,(%eax)
    34ca:	19 78 00             	sbb    %edi,0x0(%eax)
    34cd:	01 3e                	add    %edi,(%esi)
    34cf:	49                   	dec    %ecx
    34d0:	00 00                	add    %al,(%eax)
    34d2:	00 02                	add    %al,(%edx)
    34d4:	91                   	xchg   %eax,%ecx
    34d5:	64 00 00             	add    %al,%fs:(%eax)
    34d8:	00 ca                	add    %cl,%dl
    34da:	03 00                	add    (%eax),%eax
    34dc:	00 04 00             	add    %al,(%eax,%eax,1)
    34df:	d1 08                	rorl   (%eax)
    34e1:	00 00                	add    %al,(%eax)
    34e3:	04 01                	add    $0x1,%al
    34e5:	2d 01 00 00 0c       	sub    $0xc000001,%eax
    34ea:	cf                   	iret   
    34eb:	0d 00 00 17 00       	or     $0x170000,%eax
    34f0:	00 00                	add    %al,(%eax)
    34f2:	96                   	xchg   %eax,%esi
    34f3:	40                   	inc    %eax
    34f4:	30 00                	xor    %al,(%eax)
    34f6:	57                   	push   %edi
    34f7:	00 00                	add    %al,(%eax)
    34f9:	00 70 06             	add    %dh,0x6(%eax)
    34fc:	00 00                	add    %al,(%eax)
    34fe:	02 01                	add    (%ecx),%al
    3500:	08 51 03             	or     %dl,0x3(%ecx)
    3503:	00 00                	add    %al,(%eax)
    3505:	02 02                	add    (%edx),%al
    3507:	07                   	pop    %es
    3508:	f3 03 00             	repz add (%eax),%eax
    350b:	00 02                	add    %al,(%edx)
    350d:	04 07                	add    $0x7,%al
    350f:	95                   	xchg   %eax,%ebp
    3510:	03 00                	add    (%eax),%eax
    3512:	00 02                	add    %al,(%edx)
    3514:	08 07                	or     %al,(%edi)
    3516:	8b 03                	mov    (%ebx),%eax
    3518:	00 00                	add    %al,(%eax)
    351a:	02 01                	add    (%ecx),%al
    351c:	06                   	push   %es
    351d:	53                   	push   %ebx
    351e:	03 00                	add    (%eax),%eax
    3520:	00 02                	add    %al,(%edx)
    3522:	02 05 a3 00 00 00    	add    0xa3,%al
    3528:	03 04 05 69 6e 74 00 	add    0x746e69(,%eax,1),%eax
    352f:	02 08                	add    (%eax),%cl
    3531:	05 d8 02 00 00       	add    $0x2d8,%eax
    3536:	02 01                	add    (%ecx),%al
    3538:	06                   	push   %es
    3539:	5a                   	pop    %edx
    353a:	03 00                	add    (%eax),%eax
    353c:	00 02                	add    %al,(%edx)
    353e:	04 07                	add    $0x7,%al
    3540:	90                   	nop
    3541:	03 00                	add    (%eax),%eax
    3543:	00 04 6a             	add    %al,(%edx,%ebp,2)
    3546:	07                   	pop    %es
    3547:	00 00                	add    %al,(%eax)
    3549:	02 26                	add    (%esi),%ah
    354b:	64 00 00             	add    %al,%fs:(%eax)
    354e:	00 04 58             	add    %al,(%eax,%ebx,2)
    3551:	05 00 00 03 60       	add    $0x60030000,%eax
    3556:	25 00 00 00 04       	and    $0x4000000,%eax
    355b:	ad                   	lods   %ds:(%esi),%eax
    355c:	00 00                	add    %al,(%eax)
    355e:	00 03                	add    %al,(%ebx)
    3560:	61                   	popa   
    3561:	2c 00                	sub    $0x0,%al
    3563:	00 00                	add    %al,(%eax)
    3565:	04 90                	add    $0x90,%al
    3567:	00 00                	add    %al,(%eax)
    3569:	00 03                	add    %al,(%ebx)
    356b:	62 33                	bound  %esi,(%ebx)
    356d:	00 00                	add    %al,(%eax)
    356f:	00 04 06             	add    %al,(%esi,%eax,1)
    3572:	04 00                	add    $0x0,%al
    3574:	00 03                	add    %al,(%ebx)
    3576:	63 3a                	arpl   %di,(%edx)
    3578:	00 00                	add    %al,(%eax)
    357a:	00 05 31 05 00 00    	add    %al,0x531
    3580:	10 03                	adc    %al,(%ebx)
    3582:	7f df                	jg     3563 <mbh-0x2fca9d>
    3584:	00 00                	add    %al,(%eax)
    3586:	00 06                	add    %al,(%esi)
    3588:	aa                   	stos   %al,%es:(%edi)
    3589:	04 00                	add    $0x0,%al
    358b:	00 03                	add    %al,(%ebx)
    358d:	81 8c 00 00 00 00 06 	orl    $0x29b,0x6000000(%eax,%eax,1)
    3594:	9b 02 00 00 
    3598:	03 82 8c 00 00 00    	add    0x8c(%edx),%eax
    359e:	04 06                	add    $0x6,%al
    35a0:	99                   	cltd   
    35a1:	05 00 00 03 83       	add    $0x83030000,%eax
    35a6:	8c 00                	mov    %es,(%eax)
    35a8:	00 00                	add    %al,(%eax)
    35aa:	08 06                	or     %al,(%esi)
    35ac:	7c 05                	jl     35b3 <mbh-0x2fca4d>
    35ae:	00 00                	add    %al,(%eax)
    35b0:	03 84 8c 00 00 00 0c 	add    0xc000000(%esp,%ecx,4),%eax
    35b7:	00 04 7a             	add    %al,(%edx,%edi,2)
    35ba:	04 00                	add    $0x0,%al
    35bc:	00 03                	add    %al,(%ebx)
    35be:	86 a2 00 00 00 05    	xchg   %ah,0x5000000(%edx)
    35c4:	34 04                	xor    $0x4,%al
    35c6:	00 00                	add    %al,(%eax)
    35c8:	10 03                	adc    %al,(%ebx)
    35ca:	89 27                	mov    %esp,(%edi)
    35cc:	01 00                	add    %eax,(%eax)
    35ce:	00 07                	add    %al,(%edi)
    35d0:	6e                   	outsb  %ds:(%esi),(%dx)
    35d1:	75 6d                	jne    3640 <mbh-0x2fc9c0>
    35d3:	00 03                	add    %al,(%ebx)
    35d5:	8b 8c 00 00 00 00 06 	mov    0x6000000(%eax,%eax,1),%ecx
    35dc:	c7 04 00 00 03 8c 8c 	movl   $0x8c8c0300,(%eax,%eax,1)
    35e3:	00 00                	add    %al,(%eax)
    35e5:	00 04 06             	add    %al,(%esi,%eax,1)
    35e8:	99                   	cltd   
    35e9:	05 00 00 03 8d       	add    $0x8d030000,%eax
    35ee:	8c 00                	mov    %es,(%eax)
    35f0:	00 00                	add    %al,(%eax)
    35f2:	08 06                	or     %al,(%esi)
    35f4:	c8 02 00 00          	enter  $0x2,$0x0
    35f8:	03 8e 8c 00 00 00    	add    0x8c(%esi),%ecx
    35fe:	0c 00                	or     $0x0,%al
    3600:	04 a3                	add    $0xa3,%al
    3602:	02 00                	add    (%eax),%al
    3604:	00 03                	add    %al,(%ebx)
    3606:	90                   	nop
    3607:	ea 00 00 00 08 10 03 	ljmp   $0x310,$0x8000000
    360e:	a5                   	movsl  %ds:(%esi),%es:(%edi)
    360f:	51                   	push   %ecx
    3610:	01 00                	add    %eax,(%eax)
    3612:	00 09                	add    %cl,(%ecx)
    3614:	1a 01                	sbb    (%ecx),%al
    3616:	00 00                	add    %al,(%eax)
    3618:	03 a7 df 00 00 00    	add    0xdf(%edi),%esp
    361e:	09 70 03             	or     %esi,0x3(%eax)
    3621:	00 00                	add    %al,(%eax)
    3623:	03 a8 27 01 00 00    	add    0x127(%eax),%ebp
    3629:	00 0a                	add    %cl,(%edx)
    362b:	08 03                	or     %al,(%ebx)
    362d:	cf                   	iret   
    362e:	72 01                	jb     3631 <mbh-0x2fc9cf>
    3630:	00 00                	add    %al,(%eax)
    3632:	06                   	push   %es
    3633:	85 05 00 00 03 d1    	test   %eax,0xd1030000
    3639:	8c 00                	mov    %es,(%eax)
    363b:	00 00                	add    %al,(%eax)
    363d:	00 06                	add    %al,(%esi)
    363f:	ec                   	in     (%dx),%al
    3640:	02 00                	add    (%eax),%al
    3642:	00 03                	add    %al,(%ebx)
    3644:	d2 81 00 00 00 04    	rolb   %cl,0x4000000(%ecx)
    364a:	00 0a                	add    %cl,(%edx)
    364c:	06                   	push   %es
    364d:	03 d4                	add    %esp,%edx
    364f:	c3                   	ret    
    3650:	01 00                	add    %eax,(%eax)
    3652:	00 06                	add    %al,(%esi)
    3654:	c0 00 00             	rolb   $0x0,(%eax)
    3657:	00 03                	add    %al,(%ebx)
    3659:	d6                   	(bad)  
    365a:	76 00                	jbe    365c <mbh-0x2fc9a4>
    365c:	00 00                	add    %al,(%eax)
    365e:	00 06                	add    %al,(%esi)
    3660:	b2 04                	mov    $0x4,%dl
    3662:	00 00                	add    %al,(%eax)
    3664:	03 d7                	add    %edi,%edx
    3666:	76 00                	jbe    3668 <mbh-0x2fc998>
    3668:	00 00                	add    %al,(%eax)
    366a:	01 06                	add    %eax,(%esi)
    366c:	c0 03 00             	rolb   $0x0,(%ebx)
    366f:	00 03                	add    %al,(%ebx)
    3671:	d8 76 00             	fdivs  0x0(%esi)
    3674:	00 00                	add    %al,(%eax)
    3676:	02 06                	add    (%esi),%al
    3678:	f1                   	icebp  
    3679:	04 00                	add    $0x0,%al
    367b:	00 03                	add    %al,(%ebx)
    367d:	d9 76 00             	fnstenv 0x0(%esi)
    3680:	00 00                	add    %al,(%eax)
    3682:	03 06                	add    (%esi),%eax
    3684:	fa                   	cli    
    3685:	00 00                	add    %al,(%eax)
    3687:	00 03                	add    %al,(%ebx)
    3689:	da 76 00             	fidivl 0x0(%esi)
    368c:	00 00                	add    %al,(%eax)
    368e:	04 06                	add    $0x6,%al
    3690:	48                   	dec    %eax
    3691:	00 00                	add    %al,(%eax)
    3693:	00 03                	add    %al,(%ebx)
    3695:	db 76 00             	(bad)  0x0(%esi)
    3698:	00 00                	add    %al,(%eax)
    369a:	05 00 08 08 03       	add    $0x3080800,%eax
    369f:	cd d6                	int    $0xd6
    36a1:	01 00                	add    %eax,(%eax)
    36a3:	00 0b                	add    %cl,(%ebx)
    36a5:	51                   	push   %ecx
    36a6:	01 00                	add    %eax,(%eax)
    36a8:	00 0b                	add    %cl,(%ebx)
    36aa:	72 01                	jb     36ad <mbh-0x2fc953>
    36ac:	00 00                	add    %al,(%eax)
    36ae:	00 05 25 04 00 00    	add    %al,0x425
    36b4:	78 03                	js     36b9 <mbh-0x2fc947>
    36b6:	92                   	xchg   %eax,%edx
    36b7:	2b 03                	sub    (%ebx),%eax
    36b9:	00 00                	add    %al,(%eax)
    36bb:	06                   	push   %es
    36bc:	4c                   	dec    %esp
    36bd:	0c 00                	or     $0x0,%al
    36bf:	00 03                	add    %al,(%ebx)
    36c1:	95                   	xchg   %eax,%ebp
    36c2:	8c 00                	mov    %es,(%eax)
    36c4:	00 00                	add    %al,(%eax)
    36c6:	00 06                	add    %al,(%esi)
    36c8:	78 03                	js     36cd <mbh-0x2fc933>
    36ca:	00 00                	add    %al,(%eax)
    36cc:	03 98 8c 00 00 00    	add    0x8c(%eax),%ebx
    36d2:	04 06                	add    $0x6,%al
    36d4:	da 04 00             	fiaddl (%eax,%eax,1)
    36d7:	00 03                	add    %al,(%ebx)
    36d9:	99                   	cltd   
    36da:	8c 00                	mov    %es,(%eax)
    36dc:	00 00                	add    %al,(%eax)
    36de:	08 06                	or     %al,(%esi)
    36e0:	19 04 00             	sbb    %eax,(%eax,%eax,1)
    36e3:	00 03                	add    %al,(%ebx)
    36e5:	9c                   	pushf  
    36e6:	8c 00                	mov    %es,(%eax)
    36e8:	00 00                	add    %al,(%eax)
    36ea:	0c 06                	or     $0x6,%al
    36ec:	f2 00 00             	repnz add %al,(%eax)
    36ef:	00 03                	add    %al,(%ebx)
    36f1:	9f                   	lahf   
    36f2:	8c 00                	mov    %es,(%eax)
    36f4:	00 00                	add    %al,(%eax)
    36f6:	10 06                	adc    %al,(%esi)
    36f8:	4d                   	dec    %ebp
    36f9:	05 00 00 03 a2       	add    $0xa2030000,%eax
    36fe:	8c 00                	mov    %es,(%eax)
    3700:	00 00                	add    %al,(%eax)
    3702:	14 06                	adc    $0x6,%al
    3704:	23 01                	and    (%ecx),%eax
    3706:	00 00                	add    %al,(%eax)
    3708:	03 a3 8c 00 00 00    	add    0x8c(%ebx),%esp
    370e:	18 07                	sbb    %al,(%edi)
    3710:	75 00                	jne    3712 <mbh-0x2fc8ee>
    3712:	03 a9 32 01 00 00    	add    0x132(%ecx),%ebp
    3718:	1c 06                	sbb    $0x6,%al
    371a:	b4 03                	mov    $0x3,%ah
    371c:	00 00                	add    %al,(%eax)
    371e:	03 ac 8c 00 00 00 2c 	add    0x2c000000(%esp,%ecx,4),%ebp
    3725:	06                   	push   %es
    3726:	63 00                	arpl   %ax,(%eax)
    3728:	00 00                	add    %al,(%eax)
    372a:	03 ad 8c 00 00 00    	add    0x8c(%ebp),%ebp
    3730:	30 06                	xor    %al,(%esi)
    3732:	cc                   	int3   
    3733:	04 00                	add    $0x0,%al
    3735:	00 03                	add    %al,(%ebx)
    3737:	b0 8c                	mov    $0x8c,%al
    3739:	00 00                	add    %al,(%eax)
    373b:	00 34 06             	add    %dh,(%esi,%eax,1)
    373e:	e6 00                	out    %al,$0x0
    3740:	00 00                	add    %al,(%eax)
    3742:	03 b1 8c 00 00 00    	add    0x8c(%ecx),%esi
    3748:	38 06                	cmp    %al,(%esi)
    374a:	e4 04                	in     $0x4,%al
    374c:	00 00                	add    %al,(%eax)
    374e:	03 b4 8c 00 00 00 3c 	add    0x3c000000(%esp,%ecx,4),%esi
    3755:	06                   	push   %es
    3756:	0b 03                	or     (%ebx),%eax
    3758:	00 00                	add    %al,(%eax)
    375a:	03 b7 8c 00 00 00    	add    0x8c(%edi),%esi
    3760:	40                   	inc    %eax
    3761:	06                   	push   %es
    3762:	ce                   	into   
    3763:	02 00                	add    (%eax),%al
    3765:	00 03                	add    %al,(%ebx)
    3767:	ba 8c 00 00 00       	mov    $0x8c,%edx
    376c:	44                   	inc    %esp
    376d:	06                   	push   %es
    376e:	5f                   	pop    %edi
    376f:	03 00                	add    (%eax),%eax
    3771:	00 03                	add    %al,(%ebx)
    3773:	bd 8c 00 00 00       	mov    $0x8c,%ebp
    3778:	48                   	dec    %eax
    3779:	06                   	push   %es
    377a:	43                   	inc    %ebx
    377b:	03 00                	add    (%eax),%eax
    377d:	00 03                	add    %al,(%ebx)
    377f:	be 8c 00 00 00       	mov    $0x8c,%esi
    3784:	4c                   	dec    %esp
    3785:	06                   	push   %es
    3786:	82 03 00             	addb   $0x0,(%ebx)
    3789:	00 03                	add    %al,(%ebx)
    378b:	bf 81 00 00 00       	mov    $0x81,%edi
    3790:	50                   	push   %eax
    3791:	06                   	push   %es
    3792:	6a 05                	push   $0x5
    3794:	00 00                	add    %al,(%eax)
    3796:	03 c0                	add    %eax,%eax
    3798:	81 00 00 00 52 06    	addl   $0x6520000,(%eax)
    379e:	7e 00                	jle    37a0 <mbh-0x2fc860>
    37a0:	00 00                	add    %al,(%eax)
    37a2:	03 c1                	add    %ecx,%eax
    37a4:	81 00 00 00 54 06    	addl   $0x6540000,(%eax)
    37aa:	98                   	cwtl   
    37ab:	04 00                	add    $0x0,%al
    37ad:	00 03                	add    %al,(%ebx)
    37af:	c2 81 00             	ret    $0x81
    37b2:	00 00                	add    %al,(%eax)
    37b4:	56                   	push   %esi
    37b5:	06                   	push   %es
    37b6:	6d                   	insl   (%dx),%es:(%edi)
    37b7:	00 00                	add    %al,(%eax)
    37b9:	00 03                	add    %al,(%ebx)
    37bb:	c4 97 00 00 00 58    	les    0x58000000(%edi),%edx
    37c1:	06                   	push   %es
    37c2:	57                   	push   %edi
    37c3:	04 00                	add    $0x0,%al
    37c5:	00 03                	add    %al,(%ebx)
    37c7:	c5 8c 00 00 00 60 06 	lds    0x6600000(%eax,%eax,1),%ecx
    37ce:	a2 03 00 00 03       	mov    %al,0x3000003
    37d3:	c6                   	(bad)  
    37d4:	8c 00                	mov    %es,(%eax)
    37d6:	00 00                	add    %al,(%eax)
    37d8:	64 06                	fs push %es
    37da:	1e                   	push   %ds
    37db:	05 00 00 03 c7       	add    $0xc7030000,%eax
    37e0:	8c 00                	mov    %es,(%eax)
    37e2:	00 00                	add    %al,(%eax)
    37e4:	68 06 33 03 00       	push   $0x33306
    37e9:	00 03                	add    %al,(%ebx)
    37eb:	c8 76 00 00          	enter  $0x76,$0x0
    37ef:	00 6c 06 69          	add    %ch,0x69(%esi,%eax,1)
    37f3:	04 00                	add    $0x0,%al
    37f5:	00 03                	add    %al,(%ebx)
    37f7:	cc                   	int3   
    37f8:	76 00                	jbe    37fa <mbh-0x2fc806>
    37fa:	00 00                	add    %al,(%eax)
    37fc:	6d                   	insl   (%dx),%es:(%edi)
    37fd:	0c c3                	or     $0xc3,%al
    37ff:	01 00                	add    %eax,(%eax)
    3801:	00 70 00             	add    %dh,0x0(%eax)
    3804:	04 0d                	add    $0xd,%al
    3806:	05 00 00 03 df       	add    $0xdf030000,%eax
    380b:	d6                   	(bad)  
    380c:	01 00                	add    %eax,(%eax)
    380e:	00 04 e6             	add    %al,(%esi,%eiz,8)
    3811:	02 00                	add    (%eax),%al
    3813:	00 04 08             	add    %al,(%eax,%ecx,1)
    3816:	2b 03                	sub    (%ebx),%eax
    3818:	00 00                	add    %al,(%eax)
    381a:	05 e1 03 00 00       	add    $0x3e1,%eax
    381f:	04 05                	add    $0x5,%al
    3821:	08 5a 03             	or     %bl,0x3(%edx)
    3824:	00 00                	add    %al,(%eax)
    3826:	07                   	pop    %es
    3827:	6d                   	insl   (%dx),%es:(%edi)
    3828:	62 69 00             	bound  %ebp,0x0(%ecx)
    382b:	05 0a 5a 03 00       	add    $0x35a0a,%eax
    3830:	00 00                	add    %al,(%eax)
    3832:	00 0d 04 36 03 00    	add    %cl,0x33604
    3838:	00 04 17             	add    %al,(%edi,%edx,1)
    383b:	05 00 00 05 0c       	add    $0xc050000,%eax
    3840:	41                   	inc    %ecx
    3841:	03 00                	add    (%eax),%eax
    3843:	00 0e                	add    %cl,(%esi)
    3845:	e1 00                	loope  3847 <mbh-0x2fc7b9>
    3847:	00 00                	add    %al,(%eax)
    3849:	01 05 76 03 00 00    	add    %eax,0x376
    384f:	0d 04 60 03 00       	or     $0x36004,%eax
    3854:	00 0e                	add    %cl,(%esi)
    3856:	be 0d 00 00 01       	mov    $0x100000d,%esi
    385b:	06                   	push   %es
    385c:	6b 00 00             	imul   $0x0,(%eax),%eax
    385f:	00 0f                	add    %cl,(%edi)
    3861:	e6 0d                	out    %al,$0xd
    3863:	00 00                	add    %al,(%eax)
    3865:	01 08                	add    %ecx,(%eax)
    3867:	96                   	xchg   %eax,%esi
    3868:	40                   	inc    %eax
    3869:	30 00                	xor    %al,(%eax)
    386b:	57                   	push   %edi
    386c:	00 00                	add    %al,(%eax)
    386e:	00 01                	add    %al,(%ecx)
    3870:	9c                   	pushf  
    3871:	c7 03 00 00 10 f2    	movl   $0xf2100000,(%ebx)
    3877:	0d 00 00 01 08       	or     $0x8010000,%eax
    387c:	6b 00 00             	imul   $0x0,(%eax),%eax
    387f:	00 02                	add    %al,(%edx)
    3881:	91                   	xchg   %eax,%ecx
    3882:	00 11                	add    %dl,(%ecx)
    3884:	65 62 70 00          	bound  %esi,%gs:0x0(%eax)
    3888:	01 0a                	add    %ecx,(%edx)
    388a:	c7 03 00 00 02 91    	movl   $0x91020000,(%ebx)
    3890:	6c                   	insb   (%dx),%es:(%edi)
    3891:	11 65 69             	adc    %esp,0x69(%ebp)
    3894:	70 00                	jo     3896 <mbh-0x2fc76a>
    3896:	01 0a                	add    %ecx,(%edx)
    3898:	c7 03 00 00 02 91    	movl   $0x91020000,(%ebx)
    389e:	68 00 0d 04 6b       	push   $0x6b040d00
    38a3:	00 00                	add    %al,(%eax)
    38a5:	00 00                	add    %al,(%eax)
    38a7:	22 00                	and    (%eax),%al
    38a9:	00 00                	add    %al,(%eax)
    38ab:	02 00                	add    (%eax),%al
    38ad:	be 09 00 00 04       	mov    $0x4000009,%esi
    38b2:	01 02                	add    %eax,(%edx)
    38b4:	07                   	pop    %es
    38b5:	00 00                	add    %al,(%eax)
    38b7:	ed                   	in     (%dx),%eax
    38b8:	40                   	inc    %eax
    38b9:	30 00                	xor    %al,(%eax)
    38bb:	f4                   	hlt    
    38bc:	40                   	inc    %eax
    38bd:	30 00                	xor    %al,(%eax)
    38bf:	f7 0d 00 00 17 00 00 	testl  $0x3c0000,0x170000
    38c6:	00 3c 00 
    38c9:	00 00                	add    %al,(%eax)
    38cb:	01 80 6d 0a 00 00    	add    %eax,0xa6d(%eax)
    38d1:	04 00                	add    $0x0,%al
    38d3:	d2 09                	rorb   %cl,(%ecx)
    38d5:	00 00                	add    %al,(%eax)
    38d7:	04 01                	add    $0x1,%al
    38d9:	2d 01 00 00 0c       	sub    $0xc000001,%eax
    38de:	32 0e                	xor    (%esi),%cl
    38e0:	00 00                	add    %al,(%eax)
    38e2:	17                   	pop    %ss
    38e3:	00 00                	add    %al,(%eax)
    38e5:	00 f4                	add    %dh,%ah
    38e7:	40                   	inc    %eax
    38e8:	30 00                	xor    %al,(%eax)
    38ea:	4b                   	dec    %ebx
    38eb:	04 00                	add    $0x0,%al
    38ed:	00 52 07             	add    %dl,0x7(%edx)
    38f0:	00 00                	add    %al,(%eax)
    38f2:	02 62 05             	add    0x5(%edx),%ah
    38f5:	00 00                	add    %al,(%eax)
    38f7:	02 1a                	add    (%edx),%bl
    38f9:	30 00                	xor    %al,(%eax)
    38fb:	00 00                	add    %al,(%eax)
    38fd:	03 01                	add    (%ecx),%eax
    38ff:	08 51 03             	or     %dl,0x3(%ecx)
    3902:	00 00                	add    %al,(%eax)
    3904:	02 b7 00 00 00 02    	add    0x2000000(%edi),%dh
    390a:	1b 42 00             	sbb    0x0(%edx),%eax
    390d:	00 00                	add    %al,(%eax)
    390f:	03 02                	add    (%edx),%eax
    3911:	07                   	pop    %es
    3912:	f3 03 00             	repz add (%eax),%eax
    3915:	00 02                	add    %al,(%edx)
    3917:	9a 00 00 00 02 1c 54 	lcall  $0x541c,$0x2000000
    391e:	00 00                	add    %al,(%eax)
    3920:	00 03                	add    %al,(%ebx)
    3922:	04 07                	add    $0x7,%al
    3924:	95                   	xchg   %eax,%ebp
    3925:	03 00                	add    (%eax),%eax
    3927:	00 02                	add    %al,(%edx)
    3929:	10 04 00             	adc    %al,(%eax,%eax,1)
    392c:	00 02                	add    %al,(%edx)
    392e:	1d 66 00 00 00       	sbb    $0x66,%eax
    3933:	03 08                	add    (%eax),%ecx
    3935:	07                   	pop    %es
    3936:	8b 03                	mov    (%ebx),%eax
    3938:	00 00                	add    %al,(%eax)
    393a:	03 01                	add    (%ecx),%eax
    393c:	06                   	push   %es
    393d:	53                   	push   %ebx
    393e:	03 00                	add    (%eax),%eax
    3940:	00 02                	add    %al,(%edx)
    3942:	0a 07                	or     (%edi),%al
    3944:	00 00                	add    %al,(%eax)
    3946:	02 20                	add    (%eax),%ah
    3948:	7f 00                	jg     394a <mbh-0x2fc6b6>
    394a:	00 00                	add    %al,(%eax)
    394c:	03 02                	add    (%edx),%eax
    394e:	05 a3 00 00 00       	add    $0xa3,%eax
    3953:	02 b0 05 00 00 02    	add    0x2000005(%eax),%dh
    3959:	21 91 00 00 00 04    	and    %edx,0x4000000(%ecx)
    395f:	04 05                	add    $0x5,%al
    3961:	69 6e 74 00 02 89 06 	imul   $0x6890200,0x74(%esi),%ebp
    3968:	00 00                	add    %al,(%eax)
    396a:	02 22                	add    (%edx),%ah
    396c:	a3 00 00 00 03       	mov    %eax,0x3000000
    3971:	08 05 d8 02 00 00    	or     %al,0x2d8
    3977:	03 01                	add    (%ecx),%eax
    3979:	06                   	push   %es
    397a:	5a                   	pop    %edx
    397b:	03 00                	add    (%eax),%eax
    397d:	00 03                	add    %al,(%ebx)
    397f:	04 07                	add    $0x7,%al
    3981:	90                   	nop
    3982:	03 00                	add    (%eax),%eax
    3984:	00 02                	add    %al,(%edx)
    3986:	6a 07                	push   $0x7
    3988:	00 00                	add    %al,(%eax)
    398a:	02 26                	add    (%esi),%ah
    398c:	b1 00                	mov    $0x0,%cl
    398e:	00 00                	add    %al,(%eax)
    3990:	05 02 02 4c e4       	add    $0xe44c0202,%eax
    3995:	00 00                	add    %al,(%eax)
    3997:	00 06                	add    %al,(%esi)
    3999:	9e                   	sahf   
    399a:	05 00 00 02 4e       	add    $0x4e020000,%eax
    399f:	25 00 00 00 00       	and    $0x0,%eax
    39a4:	06                   	push   %es
    39a5:	92                   	xchg   %eax,%edx
    39a6:	06                   	push   %es
    39a7:	00 00                	add    %al,(%eax)
    39a9:	02 4f 25             	add    0x25(%edi),%cl
    39ac:	00 00                	add    %al,(%eax)
    39ae:	00 01                	add    %al,(%ecx)
    39b0:	00 07                	add    %al,(%edi)
    39b2:	d8 05 00 00 02 02    	fadds  0x2020000
    39b8:	45                   	inc    %ebp
    39b9:	17                   	pop    %ss
    39ba:	01 00                	add    %eax,(%eax)
    39bc:	00 08                	add    %cl,(%eax)
    39be:	72 61                	jb     3a21 <mbh-0x2fc5df>
    39c0:	77 00                	ja     39c2 <mbh-0x2fc63e>
    39c2:	02 47 37             	add    0x37(%edi),%al
    39c5:	00 00                	add    %al,(%eax)
    39c7:	00 09                	add    %cl,(%ecx)
    39c9:	f4                   	hlt    
    39ca:	06                   	push   %es
    39cb:	00 00                	add    %al,(%eax)
    39cd:	02 48 74             	add    0x74(%eax),%cl
    39d0:	00 00                	add    %al,(%eax)
    39d2:	00 09                	add    %cl,(%ecx)
    39d4:	64 06                	fs push %es
    39d6:	00 00                	add    %al,(%eax)
    39d8:	02 49 17             	add    0x17(%ecx),%cl
    39db:	01 00                	add    %eax,(%eax)
    39dd:	00 0a                	add    %cl,(%edx)
    39df:	c3                   	ret    
    39e0:	00 00                	add    %al,(%eax)
    39e2:	00 00                	add    %al,(%eax)
    39e4:	0b 25 00 00 00 27    	or     0x27000000,%esp
    39ea:	01 00                	add    %eax,(%eax)
    39ec:	00 0c 54             	add    %cl,(%esp,%edx,2)
    39ef:	00 00                	add    %al,(%eax)
    39f1:	00 01                	add    %al,(%ecx)
    39f3:	00 02                	add    %al,(%edx)
    39f5:	06                   	push   %es
    39f6:	06                   	push   %es
    39f7:	00 00                	add    %al,(%eax)
    39f9:	02 53 e4             	add    -0x1c(%ebx),%dl
    39fc:	00 00                	add    %al,(%eax)
    39fe:	00 05 04 02 5f 53    	add    %al,0x535f0204
    3a04:	01 00                	add    %eax,(%eax)
    3a06:	00 06                	add    %al,(%esi)
    3a08:	98                   	cwtl   
    3a09:	06                   	push   %es
    3a0a:	00 00                	add    %al,(%eax)
    3a0c:	02 61 27             	add    0x27(%ecx),%ah
    3a0f:	01 00                	add    %eax,(%eax)
    3a11:	00 00                	add    %al,(%eax)
    3a13:	06                   	push   %es
    3a14:	b6 07                	mov    $0x7,%dh
    3a16:	00 00                	add    %al,(%eax)
    3a18:	02 62 27             	add    0x27(%edx),%ah
    3a1b:	01 00                	add    %eax,(%eax)
    3a1d:	00 02                	add    %al,(%edx)
    3a1f:	00 05 02 02 6b 74    	add    %al,0x746b0202
    3a25:	01 00                	add    %eax,(%eax)
    3a27:	00 06                	add    %al,(%esi)
    3a29:	9e                   	sahf   
    3a2a:	05 00 00 02 6d       	add    $0x6d020000,%eax
    3a2f:	25 00 00 00 00       	and    $0x0,%eax
    3a34:	06                   	push   %es
    3a35:	92                   	xchg   %eax,%edx
    3a36:	06                   	push   %es
    3a37:	00 00                	add    %al,(%eax)
    3a39:	02 6e 25             	add    0x25(%esi),%ch
    3a3c:	00 00                	add    %al,(%eax)
    3a3e:	00 01                	add    %al,(%ecx)
    3a40:	00 0d 02 02 69 8d    	add    %cl,0x8d690202
    3a46:	01 00                	add    %eax,(%eax)
    3a48:	00 0a                	add    %cl,(%edx)
    3a4a:	53                   	push   %ebx
    3a4b:	01 00                	add    %eax,(%eax)
    3a4d:	00 09                	add    %cl,(%ecx)
    3a4f:	99                   	cltd   
    3a50:	06                   	push   %es
    3a51:	00 00                	add    %al,(%eax)
    3a53:	02 72 37             	add    0x37(%edx),%dh
    3a56:	00 00                	add    %al,(%eax)
    3a58:	00 00                	add    %al,(%eax)
    3a5a:	05 04 02 67 a8       	add    $0xa8670204,%eax
    3a5f:	01 00                	add    %eax,(%eax)
    3a61:	00 0e                	add    %cl,(%esi)
    3a63:	74 01                	je     3a66 <mbh-0x2fc59a>
    3a65:	00 00                	add    %al,(%eax)
    3a67:	00 06                	add    %al,(%esi)
    3a69:	b7 07                	mov    $0x7,%bh
    3a6b:	00 00                	add    %al,(%eax)
    3a6d:	02 76 37             	add    0x37(%esi),%dh
    3a70:	00 00                	add    %al,(%eax)
    3a72:	00 02                	add    %al,(%edx)
    3a74:	00 07                	add    %al,(%edi)
    3a76:	ce                   	into   
    3a77:	06                   	push   %es
    3a78:	00 00                	add    %al,(%eax)
    3a7a:	04 02                	add    $0x2,%al
    3a7c:	58                   	pop    %eax
    3a7d:	e0 01                	loopne 3a80 <mbh-0x2fc580>
    3a7f:	00 00                	add    %al,(%eax)
    3a81:	08 72 61             	or     %dh,0x61(%edx)
    3a84:	77 00                	ja     3a86 <mbh-0x2fc57a>
    3a86:	02 5a 49             	add    0x49(%edx),%bl
    3a89:	00 00                	add    %al,(%eax)
    3a8b:	00 09                	add    %cl,(%ecx)
    3a8d:	f4                   	hlt    
    3a8e:	06                   	push   %es
    3a8f:	00 00                	add    %al,(%eax)
    3a91:	02 5b 86             	add    -0x7a(%ebx),%bl
    3a94:	00 00                	add    %al,(%eax)
    3a96:	00 09                	add    %cl,(%ecx)
    3a98:	64 06                	fs push %es
    3a9a:	00 00                	add    %al,(%eax)
    3a9c:	02 5c e0 01          	add    0x1(%eax,%eiz,8),%bl
    3aa0:	00 00                	add    %al,(%eax)
    3aa2:	0a 32                	or     (%edx),%dh
    3aa4:	01 00                	add    %eax,(%eax)
    3aa6:	00 0a                	add    %cl,(%edx)
    3aa8:	8d 01                	lea    (%ecx),%eax
    3aaa:	00 00                	add    %al,(%eax)
    3aac:	00 0b                	add    %cl,(%ebx)
    3aae:	25 00 00 00 f0       	and    $0xf0000000,%eax
    3ab3:	01 00                	add    %eax,(%eax)
    3ab5:	00 0c 54             	add    %cl,(%esp,%edx,2)
    3ab8:	00 00                	add    %al,(%eax)
    3aba:	00 03                	add    %al,(%ebx)
    3abc:	00 02                	add    %al,(%edx)
    3abe:	38 07                	cmp    %al,(%edi)
    3ac0:	00 00                	add    %al,(%eax)
    3ac2:	02 7a a8             	add    -0x58(%edx),%bh
    3ac5:	01 00                	add    %eax,(%eax)
    3ac7:	00 05 08 02 86 1c    	add    %al,0x1c860208
    3acd:	02 00                	add    (%eax),%al
    3acf:	00 06                	add    %al,(%esi)
    3ad1:	84 06                	test   %al,(%esi)
    3ad3:	00 00                	add    %al,(%eax)
    3ad5:	02 88 f0 01 00 00    	add    0x1f0(%eax),%cl
    3adb:	00 06                	add    %al,(%esi)
    3add:	ee                   	out    %al,(%dx)
    3ade:	06                   	push   %es
    3adf:	00 00                	add    %al,(%eax)
    3ae1:	02 89 f0 01 00 00    	add    0x1f0(%ecx),%cl
    3ae7:	04 00                	add    $0x0,%al
    3ae9:	05 02 02 96 3d       	add    $0x3d960202,%eax
    3aee:	02 00                	add    (%eax),%al
    3af0:	00 06                	add    %al,(%esi)
    3af2:	9e                   	sahf   
    3af3:	05 00 00 02 98       	add    $0x98020000,%eax
    3af8:	25 00 00 00 00       	and    $0x0,%eax
    3afd:	06                   	push   %es
    3afe:	92                   	xchg   %eax,%edx
    3aff:	06                   	push   %es
    3b00:	00 00                	add    %al,(%eax)
    3b02:	02 99 25 00 00 00    	add    0x25(%ecx),%bl
    3b08:	01 00                	add    %eax,(%eax)
    3b0a:	0d 02 02 94 56       	or     $0x56940202,%eax
    3b0f:	02 00                	add    (%eax),%al
    3b11:	00 0a                	add    %cl,(%edx)
    3b13:	1c 02                	sbb    $0x2,%al
    3b15:	00 00                	add    %al,(%eax)
    3b17:	09 99 06 00 00 02    	or     %ebx,0x2000006(%ecx)
    3b1d:	9d                   	popf   
    3b1e:	37                   	aaa    
    3b1f:	00 00                	add    %al,(%eax)
    3b21:	00 00                	add    %al,(%eax)
    3b23:	05 04 02 92 71       	add    $0x71920204,%eax
    3b28:	02 00                	add    (%eax),%al
    3b2a:	00 0e                	add    %cl,(%esi)
    3b2c:	3d 02 00 00 00       	cmp    $0x2,%eax
    3b31:	06                   	push   %es
    3b32:	b7 07                	mov    $0x7,%bh
    3b34:	00 00                	add    %al,(%eax)
    3b36:	02 a1 37 00 00 00    	add    0x37(%ecx),%ah
    3b3c:	02 00                	add    (%eax),%al
    3b3e:	0d 04 02 90 8a       	or     $0x8a900204,%eax
    3b43:	02 00                	add    (%eax),%al
    3b45:	00 0a                	add    %cl,(%edx)
    3b47:	56                   	push   %esi
    3b48:	02 00                	add    (%eax),%al
    3b4a:	00 08                	add    %cl,(%eax)
    3b4c:	6c                   	insb   (%dx),%es:(%edi)
    3b4d:	6f                   	outsl  %ds:(%esi),(%dx)
    3b4e:	77 00                	ja     3b50 <mbh-0x2fc4b0>
    3b50:	02 a5 49 00 00 00    	add    0x49(%ebp),%ah
    3b56:	00 05 08 02 8e a5    	add    %al,0xa58e0208
    3b5c:	02 00                	add    (%eax),%al
    3b5e:	00 0e                	add    %cl,(%esi)
    3b60:	71 02                	jno    3b64 <mbh-0x2fc49c>
    3b62:	00 00                	add    %al,(%eax)
    3b64:	00 06                	add    %al,(%esi)
    3b66:	ef                   	out    %eax,(%dx)
    3b67:	06                   	push   %es
    3b68:	00 00                	add    %al,(%eax)
    3b6a:	02 a9 49 00 00 00    	add    0x49(%ecx),%ch
    3b70:	04 00                	add    $0x0,%al
    3b72:	07                   	pop    %es
    3b73:	2d 06 00 00 08       	sub    $0x8000006,%eax
    3b78:	02 7f dd             	add    -0x23(%edi),%bh
    3b7b:	02 00                	add    (%eax),%al
    3b7d:	00 08                	add    %cl,(%eax)
    3b7f:	72 61                	jb     3be2 <mbh-0x2fc41e>
    3b81:	77 00                	ja     3b83 <mbh-0x2fc47d>
    3b83:	02 81 5b 00 00 00    	add    0x5b(%ecx),%al
    3b89:	09 f4                	or     %esi,%esp
    3b8b:	06                   	push   %es
    3b8c:	00 00                	add    %al,(%eax)
    3b8e:	02 82 98 00 00 00    	add    0x98(%edx),%al
    3b94:	09 64 06 00          	or     %esp,0x0(%esi,%eax,1)
    3b98:	00 02                	add    %al,(%edx)
    3b9a:	83 dd 02             	sbb    $0x2,%ebp
    3b9d:	00 00                	add    %al,(%eax)
    3b9f:	0a fb                	or     %bl,%bh
    3ba1:	01 00                	add    %eax,(%eax)
    3ba3:	00 0a                	add    %cl,(%edx)
    3ba5:	8a 02                	mov    (%edx),%al
    3ba7:	00 00                	add    %al,(%eax)
    3ba9:	00 0b                	add    %cl,(%ebx)
    3bab:	25 00 00 00 ed       	and    $0xed000000,%eax
    3bb0:	02 00                	add    (%eax),%al
    3bb2:	00 0c 54             	add    %cl,(%esp,%edx,2)
    3bb5:	00 00                	add    %al,(%eax)
    3bb7:	00 07                	add    %al,(%edi)
    3bb9:	00 02                	add    %al,(%edx)
    3bbb:	cb                   	lret   
    3bbc:	07                   	pop    %es
    3bbd:	00 00                	add    %al,(%eax)
    3bbf:	02 ad a5 02 00 00    	add    0x2a5(%ebp),%ch
    3bc5:	0f e1 0c 00          	psraw  (%eax,%eax,1),%mm1
    3bc9:	00 04 03             	add    %al,(%ebx,%eax,1)
    3bcc:	26 3c 04             	es cmp $0x4,%al
    3bcf:	00 00                	add    %al,(%eax)
    3bd1:	10 63 66             	adc    %ah,0x66(%ebx)
    3bd4:	00 03                	add    %al,(%ebx)
    3bd6:	28 49 00             	sub    %cl,0x0(%ecx)
    3bd9:	00 00                	add    %al,(%eax)
    3bdb:	04 01                	add    $0x1,%al
    3bdd:	1f                   	pop    %ds
    3bde:	00 10                	add    %dl,(%eax)
    3be0:	72 31                	jb     3c13 <mbh-0x2fc3ed>
    3be2:	00 03                	add    %al,(%ebx)
    3be4:	29 49 00             	sub    %ecx,0x0(%ecx)
    3be7:	00 00                	add    %al,(%eax)
    3be9:	04 01                	add    $0x1,%al
    3beb:	1e                   	push   %ds
    3bec:	00 10                	add    %dl,(%eax)
    3bee:	70 66                	jo     3c56 <mbh-0x2fc3aa>
    3bf0:	00 03                	add    %al,(%ebx)
    3bf2:	2a 49 00             	sub    0x0(%ecx),%cl
    3bf5:	00 00                	add    %al,(%eax)
    3bf7:	04 01                	add    $0x1,%al
    3bf9:	1d 00 10 72 32       	sbb    $0x32721000,%eax
    3bfe:	00 03                	add    %al,(%ebx)
    3c00:	2b 49 00             	sub    0x0(%ecx),%ecx
    3c03:	00 00                	add    %al,(%eax)
    3c05:	04 01                	add    $0x1,%al
    3c07:	1c 00                	sbb    $0x0,%al
    3c09:	10 61 66             	adc    %ah,0x66(%ecx)
    3c0c:	00 03                	add    %al,(%ebx)
    3c0e:	2c 49                	sub    $0x49,%al
    3c10:	00 00                	add    %al,(%eax)
    3c12:	00 04 01             	add    %al,(%ecx,%eax,1)
    3c15:	1b 00                	sbb    (%eax),%eax
    3c17:	10 72 33             	adc    %dh,0x33(%edx)
    3c1a:	00 03                	add    %al,(%ebx)
    3c1c:	2d 49 00 00 00       	sub    $0x49,%eax
    3c21:	04 01                	add    $0x1,%al
    3c23:	1a 00                	sbb    (%eax),%al
    3c25:	10 7a 66             	adc    %bh,0x66(%edx)
    3c28:	00 03                	add    %al,(%ebx)
    3c2a:	2e 49                	cs dec %ecx
    3c2c:	00 00                	add    %al,(%eax)
    3c2e:	00 04 01             	add    %al,(%ecx,%eax,1)
    3c31:	19 00                	sbb    %eax,(%eax)
    3c33:	10 73 66             	adc    %dh,0x66(%ebx)
    3c36:	00 03                	add    %al,(%ebx)
    3c38:	2f                   	das    
    3c39:	49                   	dec    %ecx
    3c3a:	00 00                	add    %al,(%eax)
    3c3c:	00 04 01             	add    %al,(%ecx,%eax,1)
    3c3f:	18 00                	sbb    %al,(%eax)
    3c41:	10 74 66 00          	adc    %dh,0x0(%esi,%eiz,2)
    3c45:	03 31                	add    (%ecx),%esi
    3c47:	49                   	dec    %ecx
    3c48:	00 00                	add    %al,(%eax)
    3c4a:	00 04 01             	add    %al,(%ecx,%eax,1)
    3c4d:	17                   	pop    %ss
    3c4e:	00 10                	add    %dl,(%eax)
    3c50:	69 74 00 03 32 49 00 	imul   $0x4932,0x3(%eax,%eax,1),%esi
    3c57:	00 
    3c58:	00 04 01             	add    %al,(%ecx,%eax,1)
    3c5b:	16                   	push   %ss
    3c5c:	00 10                	add    %dl,(%eax)
    3c5e:	64 66 00 03          	data16 add %al,%fs:(%ebx)
    3c62:	33 49 00             	xor    0x0(%ecx),%ecx
    3c65:	00 00                	add    %al,(%eax)
    3c67:	04 01                	add    $0x1,%al
    3c69:	15 00 10 6f 66       	adc    $0x666f1000,%eax
    3c6e:	00 03                	add    %al,(%ebx)
    3c70:	34 49                	xor    $0x49,%al
    3c72:	00 00                	add    %al,(%eax)
    3c74:	00 04 01             	add    %al,(%ecx,%eax,1)
    3c77:	14 00                	adc    $0x0,%al
    3c79:	11 2b                	adc    %ebp,(%ebx)
    3c7b:	0d 00 00 03 35       	or     $0x35030000,%eax
    3c80:	49                   	dec    %ecx
    3c81:	00 00                	add    %al,(%eax)
    3c83:	00 04 02             	add    %al,(%edx,%eax,1)
    3c86:	12 00                	adc    (%eax),%al
    3c88:	10 6e 74             	adc    %ch,0x74(%esi)
    3c8b:	00 03                	add    %al,(%ebx)
    3c8d:	36 49                	ss dec %ecx
    3c8f:	00 00                	add    %al,(%eax)
    3c91:	00 04 01             	add    %al,(%ecx,%eax,1)
    3c94:	11 00                	adc    %eax,(%eax)
    3c96:	10 72 34             	adc    %dh,0x34(%edx)
    3c99:	00 03                	add    %al,(%ebx)
    3c9b:	37                   	aaa    
    3c9c:	49                   	dec    %ecx
    3c9d:	00 00                	add    %al,(%eax)
    3c9f:	00 04 01             	add    %al,(%ecx,%eax,1)
    3ca2:	10 00                	adc    %al,(%eax)
    3ca4:	10 72 66             	adc    %dh,0x66(%edx)
    3ca7:	00 03                	add    %al,(%ebx)
    3ca9:	39 49 00             	cmp    %ecx,0x0(%ecx)
    3cac:	00 00                	add    %al,(%eax)
    3cae:	04 01                	add    $0x1,%al
    3cb0:	0f 00 10             	lldt   (%eax)
    3cb3:	76 6d                	jbe    3d22 <mbh-0x2fc2de>
    3cb5:	00 03                	add    %al,(%ebx)
    3cb7:	3a 49 00             	cmp    0x0(%ecx),%cl
    3cba:	00 00                	add    %al,(%eax)
    3cbc:	04 01                	add    $0x1,%al
    3cbe:	0e                   	push   %cs
    3cbf:	00 10                	add    %dl,(%eax)
    3cc1:	61                   	popa   
    3cc2:	63 00                	arpl   %ax,(%eax)
    3cc4:	03 3b                	add    (%ebx),%edi
    3cc6:	49                   	dec    %ecx
    3cc7:	00 00                	add    %al,(%eax)
    3cc9:	00 04 01             	add    %al,(%ecx,%eax,1)
    3ccc:	0d 00 10 76 69       	or     $0x69761000,%eax
    3cd1:	74 00                	je     3cd3 <mbh-0x2fc32d>
    3cd3:	03 3c 49             	add    (%ecx,%ecx,2),%edi
    3cd6:	00 00                	add    %al,(%eax)
    3cd8:	00 04 01             	add    %al,(%ecx,%eax,1)
    3cdb:	0c 00                	or     $0x0,%al
    3cdd:	10 76 69             	adc    %dh,0x69(%esi)
    3ce0:	70 00                	jo     3ce2 <mbh-0x2fc31e>
    3ce2:	03 3e                	add    (%esi),%edi
    3ce4:	49                   	dec    %ecx
    3ce5:	00 00                	add    %al,(%eax)
    3ce7:	00 04 01             	add    %al,(%ecx,%eax,1)
    3cea:	0b 00                	or     (%eax),%eax
    3cec:	10 69 64             	adc    %ch,0x64(%ecx)
    3cef:	00 03                	add    %al,(%ebx)
    3cf1:	3f                   	aas    
    3cf2:	49                   	dec    %ecx
    3cf3:	00 00                	add    %al,(%eax)
    3cf5:	00 04 01             	add    %al,(%ecx,%eax,1)
    3cf8:	0a 00                	or     (%eax),%al
    3cfa:	10 72 35             	adc    %dh,0x35(%edx)
    3cfd:	00 03                	add    %al,(%ebx)
    3cff:	40                   	inc    %eax
    3d00:	49                   	dec    %ecx
    3d01:	00 00                	add    %al,(%eax)
    3d03:	00 04 0a             	add    %al,(%edx,%ecx,1)
    3d06:	00 00                	add    %al,(%eax)
    3d08:	00 02                	add    %al,(%edx)
    3d0a:	7b 0c                	jnp    3d18 <mbh-0x2fc2e8>
    3d0c:	00 00                	add    %al,(%eax)
    3d0e:	03 42 f8             	add    -0x8(%edx),%eax
    3d11:	02 00                	add    (%eax),%al
    3d13:	00 07                	add    %al,(%edi)
    3d15:	ba 0c 00 00 04       	mov    $0x400000c,%edx
    3d1a:	03 44 5e 04          	add    0x4(%esi,%ebx,2),%eax
    3d1e:	00 00                	add    %al,(%eax)
    3d20:	0a 3c 04             	or     (%esp,%eax,1),%bh
    3d23:	00 00                	add    %al,(%eax)
    3d25:	0a f0                	or     %al,%dh
    3d27:	01 00                	add    %eax,(%eax)
    3d29:	00 00                	add    %al,(%eax)
    3d2b:	02 e2                	add    %dl,%ah
    3d2d:	0a 00                	or     (%eax),%al
    3d2f:	00 03                	add    %al,(%ebx)
    3d31:	49                   	dec    %ecx
    3d32:	47                   	inc    %edi
    3d33:	04 00                	add    $0x0,%al
    3d35:	00 05 20 03 5a d2    	add    %al,0xd25a0320
    3d3b:	04 00                	add    $0x0,%al
    3d3d:	00 12                	add    %dl,(%edx)
    3d3f:	65 61                	gs popa 
    3d41:	78 00                	js     3d43 <mbh-0x2fc2bd>
    3d43:	03 5c f0 01          	add    0x1(%eax,%esi,8),%ebx
    3d47:	00 00                	add    %al,(%eax)
    3d49:	00 12                	add    %dl,(%edx)
    3d4b:	65 63 78 00          	arpl   %di,%gs:0x0(%eax)
    3d4f:	03 5d f0             	add    -0x10(%ebp),%ebx
    3d52:	01 00                	add    %eax,(%eax)
    3d54:	00 04 12             	add    %al,(%edx,%edx,1)
    3d57:	65 64 78 00          	gs fs js 3d5b <mbh-0x2fc2a5>
    3d5b:	03 5e f0             	add    -0x10(%esi),%ebx
    3d5e:	01 00                	add    %eax,(%eax)
    3d60:	00 08                	add    %cl,(%eax)
    3d62:	12 65 62             	adc    0x62(%ebp),%ah
    3d65:	78 00                	js     3d67 <mbh-0x2fc299>
    3d67:	03 5f f0             	add    -0x10(%edi),%ebx
    3d6a:	01 00                	add    %eax,(%eax)
    3d6c:	00 0c 12             	add    %cl,(%edx,%edx,1)
    3d6f:	65 73 70             	gs jae 3de2 <mbh-0x2fc21e>
    3d72:	00 03                	add    %al,(%ebx)
    3d74:	60                   	pusha  
    3d75:	f0 01 00             	lock add %eax,(%eax)
    3d78:	00 10                	add    %dl,(%eax)
    3d7a:	12 65 62             	adc    0x62(%ebp),%ah
    3d7d:	70 00                	jo     3d7f <mbh-0x2fc281>
    3d7f:	03 61 f0             	add    -0x10(%ecx),%esp
    3d82:	01 00                	add    %eax,(%eax)
    3d84:	00 14 12             	add    %dl,(%edx,%edx,1)
    3d87:	65 73 69             	gs jae 3df3 <mbh-0x2fc20d>
    3d8a:	00 03                	add    %al,(%ebx)
    3d8c:	62                   	(bad)  
    3d8d:	f0 01 00             	lock add %eax,(%eax)
    3d90:	00 18                	add    %bl,(%eax)
    3d92:	12 65 64             	adc    0x64(%ebp),%ah
    3d95:	69 00 03 63 f0 01    	imul   $0x1f06303,(%eax),%eax
    3d9b:	00 00                	add    %al,(%eax)
    3d9d:	1c 00                	sbb    $0x0,%al
    3d9f:	07                   	pop    %es
    3da0:	1a 0b                	sbb    (%ebx),%cl
    3da2:	00 00                	add    %al,(%eax)
    3da4:	20 03                	and    %al,(%ebx)
    3da6:	58                   	pop    %eax
    3da7:	ef                   	out    %eax,(%dx)
    3da8:	04 00                	add    $0x0,%al
    3daa:	00 0a                	add    %cl,(%edx)
    3dac:	69 04 00 00 08 72 61 	imul   $0x61720800,(%eax,%eax,1),%eax
    3db3:	77 00                	ja     3db5 <mbh-0x2fc24b>
    3db5:	03 67 ef             	add    -0x11(%edi),%esp
    3db8:	04 00                	add    $0x0,%al
    3dba:	00 00                	add    %al,(%eax)
    3dbc:	0b f0                	or     %eax,%esi
    3dbe:	01 00                	add    %eax,(%eax)
    3dc0:	00 ff                	add    %bh,%bh
    3dc2:	04 00                	add    $0x0,%al
    3dc4:	00 0c 54             	add    %cl,(%esp,%edx,2)
    3dc7:	00 00                	add    %al,(%eax)
    3dc9:	00 07                	add    %al,(%edi)
    3dcb:	00 02                	add    %al,(%edx)
    3dcd:	73 0d                	jae    3ddc <mbh-0x2fc224>
    3dcf:	00 00                	add    %al,(%eax)
    3dd1:	03 69 d2             	add    -0x2e(%ecx),%ebp
    3dd4:	04 00                	add    $0x0,%al
    3dd6:	00 05 08 04 57 cc    	add    %al,0xcc570408
    3ddc:	05 00 00 11 a1       	add    $0xa1110000,%eax
    3de1:	0e                   	push   %cs
    3de2:	00 00                	add    %al,(%eax)
    3de4:	04 59                	add    $0x59,%al
    3de6:	5b                   	pop    %ebx
    3de7:	00 00                	add    %al,(%eax)
    3de9:	00 08                	add    %cl,(%eax)
    3deb:	10 30                	adc    %dh,(%eax)
    3ded:	00 11                	add    %dl,(%ecx)
    3def:	15 0e 00 00 04       	adc    $0x400000e,%eax
    3df4:	5a                   	pop    %edx
    3df5:	5b                   	pop    %ebx
    3df6:	00 00                	add    %al,(%eax)
    3df8:	00 08                	add    %cl,(%eax)
    3dfa:	10 20                	adc    %ah,(%eax)
    3dfc:	00 11                	add    %dl,(%ecx)
    3dfe:	1c 0e                	sbb    $0xe,%al
    3e00:	00 00                	add    %al,(%eax)
    3e02:	04 5b                	add    $0x5b,%al
    3e04:	5b                   	pop    %ebx
    3e05:	00 00                	add    %al,(%eax)
    3e07:	00 08                	add    %cl,(%eax)
    3e09:	08 18                	or     %bl,(%eax)
    3e0b:	00 11                	add    %dl,(%ecx)
    3e0d:	75 04                	jne    3e13 <mbh-0x2fc1ed>
    3e0f:	00 00                	add    %al,(%eax)
    3e11:	04 5c                	add    $0x5c,%al
    3e13:	5b                   	pop    %ebx
    3e14:	00 00                	add    %al,(%eax)
    3e16:	00 08                	add    %cl,(%eax)
    3e18:	04 14                	add    $0x14,%al
    3e1a:	00 10                	add    %dl,(%eax)
    3e1c:	73 00                	jae    3e1e <mbh-0x2fc1e2>
    3e1e:	04 5d                	add    $0x5d,%al
    3e20:	5b                   	pop    %ebx
    3e21:	00 00                	add    %al,(%eax)
    3e23:	00 08                	add    %cl,(%eax)
    3e25:	01 13                	add    %edx,(%ebx)
    3e27:	00 10                	add    %dl,(%eax)
    3e29:	64 70 6c             	fs jo  3e98 <mbh-0x2fc168>
    3e2c:	00 04 5e             	add    %al,(%esi,%ebx,2)
    3e2f:	5b                   	pop    %ebx
    3e30:	00 00                	add    %al,(%eax)
    3e32:	00 08                	add    %cl,(%eax)
    3e34:	02 11                	add    (%ecx),%dl
    3e36:	00 10                	add    %dl,(%eax)
    3e38:	70 00                	jo     3e3a <mbh-0x2fc1c6>
    3e3a:	04 5f                	add    $0x5f,%al
    3e3c:	5b                   	pop    %ebx
    3e3d:	00 00                	add    %al,(%eax)
    3e3f:	00 08                	add    %cl,(%eax)
    3e41:	01 10                	add    %edx,(%eax)
    3e43:	00 11                	add    %dl,(%ecx)
    3e45:	2a 0e                	sub    (%esi),%cl
    3e47:	00 00                	add    %al,(%eax)
    3e49:	04 60                	add    $0x60,%al
    3e4b:	5b                   	pop    %ebx
    3e4c:	00 00                	add    %al,(%eax)
    3e4e:	00 08                	add    %cl,(%eax)
    3e50:	04 0c                	add    $0xc,%al
    3e52:	00 10                	add    %dl,(%eax)
    3e54:	61                   	popa   
    3e55:	76 6c                	jbe    3ec3 <mbh-0x2fc13d>
    3e57:	00 04 61             	add    %al,(%ecx,%eiz,2)
    3e5a:	5b                   	pop    %ebx
    3e5b:	00 00                	add    %al,(%eax)
    3e5d:	00 08                	add    %cl,(%eax)
    3e5f:	01 0b                	add    %ecx,(%ebx)
    3e61:	00 10                	add    %dl,(%eax)
    3e63:	6c                   	insb   (%dx),%es:(%edi)
    3e64:	00 04 62             	add    %al,(%edx,%eiz,2)
    3e67:	5b                   	pop    %ebx
    3e68:	00 00                	add    %al,(%eax)
    3e6a:	00 08                	add    %cl,(%eax)
    3e6c:	01 0a                	add    %ecx,(%edx)
    3e6e:	00 10                	add    %dl,(%eax)
    3e70:	64 00 04 63          	add    %al,%fs:(%ebx,%eiz,2)
    3e74:	5b                   	pop    %ebx
    3e75:	00 00                	add    %al,(%eax)
    3e77:	00 08                	add    %cl,(%eax)
    3e79:	01 09                	add    %ecx,(%ecx)
    3e7b:	00 10                	add    %dl,(%eax)
    3e7d:	67 00 04             	add    %al,(%si)
    3e80:	64 5b                	fs pop %ebx
    3e82:	00 00                	add    %al,(%eax)
    3e84:	00 08                	add    %cl,(%eax)
    3e86:	01 08                	add    %ecx,(%eax)
    3e88:	00 11                	add    %dl,(%ecx)
    3e8a:	23 0e                	and    (%esi),%ecx
    3e8c:	00 00                	add    %al,(%eax)
    3e8e:	04 65                	add    $0x65,%al
    3e90:	5b                   	pop    %ebx
    3e91:	00 00                	add    %al,(%eax)
    3e93:	00 08                	add    %cl,(%eax)
    3e95:	08 00                	or     %al,(%eax)
    3e97:	00 00                	add    %al,(%eax)
    3e99:	07                   	pop    %es
    3e9a:	72 0e                	jb     3eaa <mbh-0x2fc156>
    3e9c:	00 00                	add    %al,(%eax)
    3e9e:	08 04 55 e3 05 00 00 	or     %al,0x5e3(,%edx,2)
    3ea5:	0a 0a                	or     (%edx),%cl
    3ea7:	05 00 00 0a ed       	add    $0xed0a0000,%eax
    3eac:	02 00                	add    (%eax),%al
    3eae:	00 00                	add    %al,(%eax)
    3eb0:	02 67 0e             	add    0xe(%edi),%ah
    3eb3:	00 00                	add    %al,(%eax)
    3eb5:	04 6b                	add    $0x6b,%al
    3eb7:	cc                   	int3   
    3eb8:	05 00 00 0d 04       	add    $0x40d0000,%eax
    3ebd:	04 73                	add    $0x73,%al
    3ebf:	0d 06 00 00 09       	or     $0x9000006,%eax
    3ec4:	99                   	cltd   
    3ec5:	05 00 00 04 75       	add    $0x75040000,%eax
    3eca:	b8 00 00 00 09       	mov    $0x9000000,%eax
    3ecf:	46                   	inc    %esi
    3ed0:	0c 00                	or     $0x0,%al
    3ed2:	00 04 76             	add    %al,(%esi,%esi,2)
    3ed5:	0d 06 00 00 00       	or     $0x6,%eax
    3eda:	13 04 e3             	adc    (%ebx,%eiz,8),%eax
    3edd:	05 00 00 0f a9       	add    $0xa90f0000,%eax
    3ee2:	0e                   	push   %cs
    3ee3:	00 00                	add    %al,(%eax)
    3ee5:	06                   	push   %es
    3ee6:	04 70                	add    $0x70,%al
    3ee8:	32 06                	xor    (%esi),%al
    3eea:	00 00                	add    %al,(%eax)
    3eec:	06                   	push   %es
    3eed:	e6 0b                	out    %al,$0xb
    3eef:	00 00                	add    %al,(%eax)
    3ef1:	04 72                	add    $0x72,%al
    3ef3:	37                   	aaa    
    3ef4:	00 00                	add    %al,(%eax)
    3ef6:	00 00                	add    %al,(%eax)
    3ef8:	0e                   	push   %cs
    3ef9:	ee                   	out    %al,(%dx)
    3efa:	05 00 00 02 00       	add    $0x20000,%eax
    3eff:	02 8e 0e 00 00 04    	add    0x400000e(%esi),%cl
    3f05:	79 13                	jns    3f1a <mbh-0x2fc0e6>
    3f07:	06                   	push   %es
    3f08:	00 00                	add    %al,(%eax)
    3f0a:	0f 9f 0b             	setg   (%ebx)
    3f0d:	00 00                	add    %al,(%eax)
    3f0f:	08 04 b2             	or     %al,(%edx,%esi,4)
    3f12:	6d                   	insl   (%dx),%es:(%edi)
    3f13:	06                   	push   %es
    3f14:	00 00                	add    %al,(%eax)
    3f16:	12 65 73             	adc    0x73(%ebp),%ah
    3f19:	70 00                	jo     3f1b <mbh-0x2fc0e5>
    3f1b:	04 b4                	add    $0xb4,%al
    3f1d:	49                   	dec    %ecx
    3f1e:	00 00                	add    %al,(%eax)
    3f20:	00 00                	add    %al,(%eax)
    3f22:	12 73 73             	adc    0x73(%ebx),%dh
    3f25:	00 04 b5 37 00 00 00 	add    %al,0x37(,%esi,4)
    3f2c:	04 12                	add    $0x12,%al
    3f2e:	70 61                	jo     3f91 <mbh-0x2fc06f>
    3f30:	64 00 04 b6          	add    %al,%fs:(%esi,%esi,4)
    3f34:	37                   	aaa    
    3f35:	00 00                	add    %al,(%eax)
    3f37:	00 06                	add    %al,(%esi)
    3f39:	00 02                	add    %al,(%edx)
    3f3b:	da 0b                	fimull (%ebx)
    3f3d:	00 00                	add    %al,(%eax)
    3f3f:	04 b8                	add    $0xb8,%al
    3f41:	3d 06 00 00 14       	cmp    $0x14000006,%eax
    3f46:	65 0a 00             	or     %gs:(%eax),%al
    3f49:	00 23                	add    %ah,(%ebx)
    3f4b:	20 04 ba             	and    %al,(%edx,%edi,4)
    3f4e:	b6 06                	mov    $0x6,%dh
    3f50:	00 00                	add    %al,(%eax)
    3f52:	06                   	push   %es
    3f53:	99                   	cltd   
    3f54:	05 00 00 04 bc       	add    $0xbc040000,%eax
    3f59:	37                   	aaa    
    3f5a:	00 00                	add    %al,(%eax)
    3f5c:	00 00                	add    %al,(%eax)
    3f5e:	06                   	push   %es
    3f5f:	76 0c                	jbe    3f6d <mbh-0x2fc093>
    3f61:	00 00                	add    %al,(%eax)
    3f63:	04 bd                	add    $0xbd,%al
    3f65:	b6 06                	mov    $0x6,%dh
    3f67:	00 00                	add    %al,(%eax)
    3f69:	02 12                	add    (%edx),%dl
    3f6b:	69 6f 00 04 be c6 06 	imul   $0x6c6be04,0x0(%edi),%ebp
    3f72:	00 00                	add    %al,(%eax)
    3f74:	22 15 96 0b 00 00    	and    0xb96,%dl
    3f7a:	04 bf                	add    $0xbf,%al
    3f7c:	25 00 00 00 22       	and    $0x22000000,%eax
    3f81:	20 00                	and    %al,(%eax)
    3f83:	0b 25 00 00 00 c6    	or     0xc6000000,%esp
    3f89:	06                   	push   %es
    3f8a:	00 00                	add    %al,(%eax)
    3f8c:	0c 54                	or     $0x54,%al
    3f8e:	00 00                	add    %al,(%eax)
    3f90:	00 1f                	add    %bl,(%edi)
    3f92:	00 0b                	add    %cl,(%ebx)
    3f94:	25 00 00 00 d7       	and    $0xd7000000,%eax
    3f99:	06                   	push   %es
    3f9a:	00 00                	add    %al,(%eax)
    3f9c:	16                   	push   %ss
    3f9d:	54                   	push   %esp
    3f9e:	00 00                	add    %al,(%eax)
    3fa0:	00 ff                	add    %bh,%bh
    3fa2:	1f                   	pop    %ds
    3fa3:	00 02                	add    %al,(%edx)
    3fa5:	cf                   	iret   
    3fa6:	0b 00                	or     (%eax),%eax
    3fa8:	00 04 c1             	add    %al,(%ecx,%eax,8)
    3fab:	78 06                	js     3fb3 <mbh-0x2fc04d>
    3fad:	00 00                	add    %al,(%eax)
    3faf:	05 02 04 c5 08       	add    $0x8c50402,%eax
    3fb4:	07                   	pop    %es
    3fb5:	00 00                	add    %al,(%eax)
    3fb7:	10 6f 6e             	adc    %ch,0x6e(%edi)
    3fba:	00 04 c7             	add    %al,(%edi,%eax,8)
    3fbd:	37                   	aaa    
    3fbe:	00 00                	add    %al,(%eax)
    3fc0:	00 02                	add    %al,(%edx)
    3fc2:	01 0f                	add    %ecx,(%edi)
    3fc4:	00 10                	add    %dl,(%eax)
    3fc6:	70 61                	jo     4029 <mbh-0x2fbfd7>
    3fc8:	64 00 04 c8          	add    %al,%fs:(%eax,%ecx,8)
    3fcc:	37                   	aaa    
    3fcd:	00 00                	add    %al,(%eax)
    3fcf:	00 02                	add    %al,(%edx)
    3fd1:	0f 00 00             	sldt   (%eax)
    3fd4:	00 07                	add    %al,(%edi)
    3fd6:	02 0b                	add    (%ebx),%cl
    3fd8:	00 00                	add    %al,(%eax)
    3fda:	02 04 c3             	add    (%ebx,%eax,8),%al
    3fdd:	25 07 00 00 0a       	and    $0xa000007,%eax
    3fe2:	e2 06                	loop   3fea <mbh-0x2fc016>
    3fe4:	00 00                	add    %al,(%eax)
    3fe6:	08 72 61             	or     %dh,0x61(%edx)
    3fe9:	77 00                	ja     3feb <mbh-0x2fc015>
    3feb:	04 cc                	add    $0xcc,%al
    3fed:	37                   	aaa    
    3fee:	00 00                	add    %al,(%eax)
    3ff0:	00 00                	add    %al,(%eax)
    3ff2:	02 d6                	add    %dh,%dl
    3ff4:	0c 00                	or     $0x0,%al
    3ff6:	00 04 ce             	add    %al,(%esi,%ecx,8)
    3ff9:	08 07                	or     %al,(%edi)
    3ffb:	00 00                	add    %al,(%eax)
    3ffd:	14 7d                	adc    $0x7d,%al
    3fff:	0a 00                	or     (%eax),%al
    4001:	00 89 20 04 d3 5b    	add    %cl,0x5bd30420(%ecx)
    4007:	08 00                	or     %al,(%eax)
    4009:	00 06                	add    %al,(%esi)
    400b:	ec                   	in     (%dx),%al
    400c:	0b 00                	or     (%eax),%eax
    400e:	00 04 d5 37 00 00 00 	add    %al,0x37(,%edx,8)
    4015:	00 12                	add    %dl,(%edx)
    4017:	72 31                	jb     404a <mbh-0x2fbfb6>
    4019:	00 04 d5 37 00 00 00 	add    %al,0x37(,%edx,8)
    4020:	02 12                	add    (%edx),%dl
    4022:	73 30                	jae    4054 <mbh-0x2fbfac>
    4024:	00 04 d7             	add    %al,(%edi,%edx,8)
    4027:	6d                   	insl   (%dx),%es:(%edi)
    4028:	06                   	push   %es
    4029:	00 00                	add    %al,(%eax)
    402b:	04 12                	add    $0x12,%al
    402d:	73 31                	jae    4060 <mbh-0x2fbfa0>
    402f:	00 04 d8             	add    %al,(%eax,%ebx,8)
    4032:	6d                   	insl   (%dx),%es:(%edi)
    4033:	06                   	push   %es
    4034:	00 00                	add    %al,(%eax)
    4036:	0c 12                	or     $0x12,%al
    4038:	73 32                	jae    406c <mbh-0x2fbf94>
    403a:	00 04 d9             	add    %al,(%ecx,%ebx,8)
    403d:	6d                   	insl   (%dx),%es:(%edi)
    403e:	06                   	push   %es
    403f:	00 00                	add    %al,(%eax)
    4041:	14 12                	adc    $0x12,%al
    4043:	63 72 33             	arpl   %si,0x33(%edx)
    4046:	00 04 db             	add    %al,(%ebx,%ebx,8)
    4049:	49                   	dec    %ecx
    404a:	00 00                	add    %al,(%eax)
    404c:	00 1c 12             	add    %bl,(%edx,%edx,1)
    404f:	65 69 70 00 04 dc 49 	imul   $0x49dc04,%gs:0x0(%eax),%esi
    4056:	00 
    4057:	00 00                	add    %al,(%eax)
    4059:	20 06                	and    %al,(%esi)
    405b:	4b                   	dec    %ebx
    405c:	0c 00                	or     $0x0,%al
    405e:	00 04 dd 5e 04 00 00 	add    %al,0x45e(,%ebx,8)
    4065:	24 12                	and    $0x12,%al
    4067:	67 70 72             	addr16 jo 40dc <mbh-0x2fbf24>
    406a:	00 04 de             	add    %al,(%esi,%ebx,8)
    406d:	ff 04 00             	incl   (%eax,%eax,1)
    4070:	00 28                	add    %ch,(%eax)
    4072:	12 65 73             	adc    0x73(%ebp),%ah
    4075:	00 04 df             	add    %al,(%edi,%ebx,8)
    4078:	37                   	aaa    
    4079:	00 00                	add    %al,(%eax)
    407b:	00 48 12             	add    %cl,0x12(%eax)
    407e:	72 35                	jb     40b5 <mbh-0x2fbf4b>
    4080:	00 04 df             	add    %al,(%edi,%ebx,8)
    4083:	37                   	aaa    
    4084:	00 00                	add    %al,(%eax)
    4086:	00 4a 12             	add    %cl,0x12(%edx)
    4089:	63 73 00             	arpl   %si,0x0(%ebx)
    408c:	04 e0                	add    $0xe0,%al
    408e:	37                   	aaa    
    408f:	00 00                	add    %al,(%eax)
    4091:	00 4c 12 72          	add    %cl,0x72(%edx,%edx,1)
    4095:	36 00 04 e0          	add    %al,%ss:(%eax,%eiz,8)
    4099:	37                   	aaa    
    409a:	00 00                	add    %al,(%eax)
    409c:	00 4e 12             	add    %cl,0x12(%esi)
    409f:	73 73                	jae    4114 <mbh-0x2fbeec>
    40a1:	00 04 e1             	add    %al,(%ecx,%eiz,8)
    40a4:	37                   	aaa    
    40a5:	00 00                	add    %al,(%eax)
    40a7:	00 50 12             	add    %dl,0x12(%eax)
    40aa:	72 37                	jb     40e3 <mbh-0x2fbf1d>
    40ac:	00 04 e1             	add    %al,(%ecx,%eiz,8)
    40af:	37                   	aaa    
    40b0:	00 00                	add    %al,(%eax)
    40b2:	00 52 12             	add    %dl,0x12(%edx)
    40b5:	64 73 00             	fs jae 40b8 <mbh-0x2fbf48>
    40b8:	04 e2                	add    $0xe2,%al
    40ba:	37                   	aaa    
    40bb:	00 00                	add    %al,(%eax)
    40bd:	00 54 12 72          	add    %dl,0x72(%edx,%edx,1)
    40c1:	38 00                	cmp    %al,(%eax)
    40c3:	04 e2                	add    $0xe2,%al
    40c5:	37                   	aaa    
    40c6:	00 00                	add    %al,(%eax)
    40c8:	00 56 12             	add    %dl,0x12(%esi)
    40cb:	66 73 00             	data16 jae 40ce <mbh-0x2fbf32>
    40ce:	04 e3                	add    $0xe3,%al
    40d0:	37                   	aaa    
    40d1:	00 00                	add    %al,(%eax)
    40d3:	00 58 12             	add    %bl,0x12(%eax)
    40d6:	72 39                	jb     4111 <mbh-0x2fbeef>
    40d8:	00 04 e3             	add    %al,(%ebx,%eiz,8)
    40db:	37                   	aaa    
    40dc:	00 00                	add    %al,(%eax)
    40de:	00 5a 12             	add    %bl,0x12(%edx)
    40e1:	67 73 00             	addr16 jae 40e4 <mbh-0x2fbf1c>
    40e4:	04 e4                	add    $0xe4,%al
    40e6:	37                   	aaa    
    40e7:	00 00                	add    %al,(%eax)
    40e9:	00 5c 12 72          	add    %bl,0x72(%edx,%edx,1)
    40ed:	31 30                	xor    %esi,(%eax)
    40ef:	00 04 e4             	add    %al,(%esp,%eiz,8)
    40f2:	37                   	aaa    
    40f3:	00 00                	add    %al,(%eax)
    40f5:	00 5e 12             	add    %bl,0x12(%esi)
    40f8:	6c                   	insb   (%dx),%es:(%edi)
    40f9:	64 74 00             	fs je  40fc <mbh-0x2fbf04>
    40fc:	04 e5                	add    $0xe5,%al
    40fe:	37                   	aaa    
    40ff:	00 00                	add    %al,(%eax)
    4101:	00 60 12             	add    %ah,0x12(%eax)
    4104:	72 31                	jb     4137 <mbh-0x2fbec9>
    4106:	31 00                	xor    %eax,(%eax)
    4108:	04 e5                	add    $0xe5,%al
    410a:	37                   	aaa    
    410b:	00 00                	add    %al,(%eax)
    410d:	00 62 06             	add    %ah,0x6(%edx)
    4110:	15 0b 00 00 04       	adc    $0x400000b,%eax
    4115:	e7 25                	out    %eax,$0x25
    4117:	07                   	pop    %es
    4118:	00 00                	add    %al,(%eax)
    411a:	64 06                	fs push %es
    411c:	78 0a                	js     4128 <mbh-0x2fbed8>
    411e:	00 00                	add    %al,(%eax)
    4120:	04 e8                	add    $0xe8,%al
    4122:	d7                   	xlat   %ds:(%ebx)
    4123:	06                   	push   %es
    4124:	00 00                	add    %al,(%eax)
    4126:	66 00 02             	data16 add %al,(%edx)
    4129:	64 0d 00 00 04 ea    	fs or  $0xea040000,%eax
    412f:	30 07                	xor    %al,(%edi)
    4131:	00 00                	add    %al,(%eax)
    4133:	0b e3                	or     %ebx,%esp
    4135:	05 00 00 76 08       	add    $0x8760000,%eax
    413a:	00 00                	add    %al,(%eax)
    413c:	0c 54                	or     $0x54,%al
    413e:	00 00                	add    %al,(%eax)
    4140:	00 05 00 17 47 44    	add    %al,0x44471700
    4146:	54                   	push   %esp
    4147:	00 05 0e 66 08 00    	add    %al,0x8660e
    414d:	00 17                	add    %dl,(%edi)
    414f:	54                   	push   %esp
    4150:	53                   	push   %ebx
    4151:	53                   	push   %ebx
    4152:	00 05 0f 5b 08 00    	add    %al,0x85b0f
    4158:	00 18                	add    %bl,(%eax)
    415a:	76 08                	jbe    4164 <mbh-0x2fbe9c>
    415c:	00 00                	add    %al,(%eax)
    415e:	01 06                	add    %eax,(%esi)
    4160:	05 03 e0 7f 30       	add    $0x307fe003,%eax
    4165:	00 18                	add    %bl,(%eax)
    4167:	81 08 00 00 01 07    	orl    $0x7010000,(%eax)
    416d:	05 03 40 5f 30       	add    $0x305f4003,%eax
    4172:	00 19                	add    %bl,(%ecx)
    4174:	85 0e                	test   %ecx,(%esi)
    4176:	00 00                	add    %al,(%eax)
    4178:	01 41 56             	add    %eax,0x56(%ecx)
    417b:	44                   	inc    %esp
    417c:	30 00                	xor    %al,(%eax)
    417e:	e9 00 00 00 01       	jmp    1004183 <user2+0x804183>
    4183:	9c                   	pushf  
    4184:	ca 08 00             	lret   $0x8
    4187:	00 1a                	add    %bl,(%edx)
    4189:	4e                   	dec    %esi
    418a:	0e                   	push   %cs
    418b:	00 00                	add    %al,(%eax)
    418d:	01 45 32             	add    %eax,0x32(%ebp)
    4190:	06                   	push   %es
    4191:	00 00                	add    %al,(%eax)
    4193:	02 91 6a 00 19 98    	add    -0x67e6ff96(%ecx),%dl
    4199:	0e                   	push   %cs
    419a:	00 00                	add    %al,(%eax)
    419c:	01 34 ea             	add    %esi,(%edx,%ebp,8)
    419f:	43                   	inc    %ebx
    41a0:	30 00                	xor    %al,(%eax)
    41a2:	6c                   	insb   (%dx),%es:(%edi)
    41a3:	00 00                	add    %al,(%eax)
    41a5:	00 01                	add    %al,(%ecx)
    41a7:	9c                   	pushf  
    41a8:	12 09                	adc    (%ecx),%cl
    41aa:	00 00                	add    %al,(%eax)
    41ac:	1a d4                	sbb    %ah,%dl
    41ae:	09 00                	or     %eax,(%eax)
    41b0:	00 01                	add    %al,(%ecx)
    41b2:	37                   	aaa    
    41b3:	b8 00 00 00 02       	mov    $0x2000000,%eax
    41b8:	91                   	xchg   %eax,%ecx
    41b9:	6c                   	insb   (%dx),%es:(%edi)
    41ba:	1a e6                	sbb    %dh,%ah
    41bc:	0b 00                	or     (%eax),%eax
    41be:	00 01                	add    %al,(%ecx)
    41c0:	38 49 00             	cmp    %cl,0x0(%ecx)
    41c3:	00 00                	add    %al,(%eax)
    41c5:	02 91 68 1b 17 44    	add    0x44171b68(%ecx),%dl
    41cb:	30 00                	xor    %al,(%eax)
    41cd:	06                   	push   %es
    41ce:	00 00                	add    %al,(%eax)
    41d0:	00 1c 76             	add    %bl,(%esi,%esi,2)
    41d3:	00 01                	add    %al,(%ecx)
    41d5:	3b 49 00             	cmp    0x0(%ecx),%ecx
    41d8:	00 00                	add    %al,(%eax)
    41da:	02 91 64 00 00 1d    	add    0x1d000064(%ecx),%dl
    41e0:	53                   	push   %ebx
    41e1:	0e                   	push   %cs
    41e2:	00 00                	add    %al,(%eax)
    41e4:	01 23                	add    %esp,(%ebx)
    41e6:	b4 42                	mov    $0x42,%ah
    41e8:	30 00                	xor    %al,(%eax)
    41ea:	36 01 00             	add    %eax,%ss:(%eax)
    41ed:	00 01                	add    %al,(%ecx)
    41ef:	9c                   	pushf  
    41f0:	6e                   	outsb  %ds:(%esi),(%dx)
    41f1:	09 00                	or     %eax,(%eax)
    41f3:	00 1e                	add    %bl,(%esi)
    41f5:	73 65                	jae    425c <mbh-0x2fbda4>
    41f7:	67 00 01             	add    %al,(%bx,%di)
    41fa:	23 0d 06 00 00 02    	and    0x2000006,%ecx
    4200:	91                   	xchg   %eax,%ecx
    4201:	00 1f                	add    %bl,(%edi)
    4203:	75 04                	jne    4209 <mbh-0x2fbdf7>
    4205:	00 00                	add    %al,(%eax)
    4207:	01 23                	add    %esp,(%ebx)
    4209:	25 00 00 00 02       	and    $0x2000000,%eax
    420e:	91                   	xchg   %eax,%ecx
    420f:	70 1e                	jo     422f <mbh-0x2fbdd1>
    4211:	64 70 6c             	fs jo  4280 <mbh-0x2fbd80>
    4214:	00 01                	add    %al,(%ecx)
    4216:	23 25 00 00 00 02    	and    0x2000000,%esp
    421c:	91                   	xchg   %eax,%ecx
    421d:	6c                   	insb   (%dx),%es:(%edi)
    421e:	1f                   	pop    %ds
    421f:	d4 09                	aam    $0x9
    4221:	00 00                	add    %al,(%eax)
    4223:	01 23                	add    %esp,(%ebx)
    4225:	49                   	dec    %ecx
    4226:	00 00                	add    %al,(%eax)
    4228:	00 02                	add    %al,(%edx)
    422a:	91                   	xchg   %eax,%ecx
    422b:	0c 1f                	or     $0x1f,%al
    422d:	e6 0b                	out    %al,$0xb
    422f:	00 00                	add    %al,(%eax)
    4231:	01 23                	add    %esp,(%ebx)
    4233:	49                   	dec    %ecx
    4234:	00 00                	add    %al,(%eax)
    4236:	00 02                	add    %al,(%edx)
    4238:	91                   	xchg   %eax,%ecx
    4239:	10 00                	adc    %al,(%eax)
    423b:	20 44 0e 00          	and    %al,0x0(%esi,%ecx,1)
    423f:	00 01                	add    %al,(%ecx)
    4241:	09 f4                	or     %esi,%esp
    4243:	40                   	inc    %eax
    4244:	30 00                	xor    %al,(%eax)
    4246:	c0 01 00             	rolb   $0x0,(%ecx)
    4249:	00 01                	add    %al,(%ecx)
    424b:	9c                   	pushf  
    424c:	1a 4e 0e             	sbb    0xe(%esi),%cl
    424f:	00 00                	add    %al,(%eax)
    4251:	01 0b                	add    %ecx,(%ebx)
    4253:	32 06                	xor    (%esi),%al
    4255:	00 00                	add    %al,(%eax)
    4257:	02 91 48 1c 6e 00    	add    0x6e1c48(%ecx),%dl
    425d:	01 14 91             	add    %edx,(%ecx,%edx,4)
    4260:	00 00                	add    %al,(%eax)
    4262:	00 02                	add    %al,(%edx)
    4264:	91                   	xchg   %eax,%ecx
    4265:	5c                   	pop    %esp
    4266:	21 26                	and    %esp,(%esi)
    4268:	41                   	inc    %ecx
    4269:	30 00                	xor    %al,(%eax)
    426b:	0b 00                	or     (%eax),%eax
    426d:	00 00                	add    %al,(%eax)
    426f:	b5 09                	mov    $0x9,%ch
    4271:	00 00                	add    %al,(%eax)
    4273:	1c 73                	sbb    $0x73,%al
    4275:	65 67 00 01          	add    %al,%gs:(%bx,%di)
    4279:	0f 37                	getsec 
    427b:	00 00                	add    %al,(%eax)
    427d:	00 02                	add    %al,(%edx)
    427f:	91                   	xchg   %eax,%ecx
    4280:	6a 00                	push   $0x0
    4282:	21 45 41             	and    %eax,0x41(%ebp)
    4285:	30 00                	xor    %al,(%eax)
    4287:	0b 00                	or     (%eax),%eax
    4289:	00 00                	add    %al,(%eax)
    428b:	d1 09                	rorl   (%ecx)
    428d:	00 00                	add    %al,(%eax)
    428f:	1c 73                	sbb    $0x73,%al
    4291:	65 67 00 01          	add    %al,%gs:(%bx,%di)
    4295:	10 37                	adc    %dh,(%edi)
    4297:	00 00                	add    %al,(%eax)
    4299:	00 02                	add    %al,(%edx)
    429b:	91                   	xchg   %eax,%ecx
    429c:	68 00 21 64 41       	push   $0x41642100
    42a1:	30 00                	xor    %al,(%eax)
    42a3:	0b 00                	or     (%eax),%eax
    42a5:	00 00                	add    %al,(%eax)
    42a7:	ed                   	in     (%dx),%eax
    42a8:	09 00                	or     %eax,(%eax)
    42aa:	00 1c 73             	add    %bl,(%ebx,%esi,2)
    42ad:	65 67 00 01          	add    %al,%gs:(%bx,%di)
    42b1:	11 37                	adc    %esi,(%edi)
    42b3:	00 00                	add    %al,(%eax)
    42b5:	00 02                	add    %al,(%edx)
    42b7:	91                   	xchg   %eax,%ecx
    42b8:	66 00 21             	data16 add %ah,(%ecx)
    42bb:	83 41 30 00          	addl   $0x0,0x30(%ecx)
    42bf:	0b 00                	or     (%eax),%eax
    42c1:	00 00                	add    %al,(%eax)
    42c3:	09 0a                	or     %ecx,(%edx)
    42c5:	00 00                	add    %al,(%eax)
    42c7:	1c 73                	sbb    $0x73,%al
    42c9:	65 67 00 01          	add    %al,%gs:(%bx,%di)
    42cd:	12 37                	adc    (%edi),%dh
    42cf:	00 00                	add    %al,(%eax)
    42d1:	00 02                	add    %al,(%edx)
    42d3:	91                   	xchg   %eax,%ecx
    42d4:	64 00 21             	add    %ah,%fs:(%ecx)
    42d7:	a2 41 30 00 0b       	mov    %al,0xb003041
    42dc:	00 00                	add    %al,(%eax)
    42de:	00 25 0a 00 00 1c    	add    %ah,0x1c00000a
    42e4:	73 65                	jae    434b <mbh-0x2fbcb5>
    42e6:	67 00 01             	add    %al,(%bx,%di)
    42e9:	13 37                	adc    (%edi),%esi
    42eb:	00 00                	add    %al,(%eax)
    42ed:	00 02                	add    %al,(%edx)
    42ef:	91                   	xchg   %eax,%ecx
    42f0:	62 00                	bound  %eax,(%eax)
    42f2:	1b d1                	sbb    %ecx,%edx
    42f4:	41                   	inc    %ecx
    42f5:	30 00                	xor    %al,(%eax)
    42f7:	e0 00                	loopne 42f9 <mbh-0x2fbd07>
    42f9:	00 00                	add    %al,(%eax)
    42fb:	1c 69                	sbb    $0x69,%al
    42fd:	00 01                	add    %al,(%ecx)
    42ff:	16                   	push   %ss
    4300:	91                   	xchg   %eax,%ecx
    4301:	00 00                	add    %al,(%eax)
    4303:	00 02                	add    %al,(%edx)
    4305:	91                   	xchg   %eax,%ecx
    4306:	6c                   	insb   (%dx),%es:(%edi)
    4307:	1b dd                	sbb    %ebp,%ebx
    4309:	41                   	inc    %ecx
    430a:	30 00                	xor    %al,(%eax)
    430c:	c4 00                	les    (%eax),%eax
    430e:	00 00                	add    %al,(%eax)
    4310:	1a 46 0c             	sbb    0xc(%esi),%al
    4313:	00 00                	add    %al,(%eax)
    4315:	01 18                	add    %ebx,(%eax)
    4317:	0d 06 00 00 02       	or     $0x2000006,%eax
    431c:	91                   	xchg   %eax,%ecx
    431d:	58                   	pop    %eax
    431e:	1a d4                	sbb    %ah,%dl
    4320:	09 00                	or     %eax,(%eax)
    4322:	00 01                	add    %al,(%ecx)
    4324:	19 5b 00             	sbb    %ebx,0x0(%ebx)
    4327:	00 00                	add    %al,(%eax)
    4329:	02 91 50 1a e6 0b    	add    0xbe61a50(%ecx),%dl
    432f:	00 00                	add    %al,(%eax)
    4331:	01 1a                	add    %ebx,(%edx)
    4333:	37                   	aaa    
    4334:	00 00                	add    %al,(%eax)
    4336:	00 02                	add    %al,(%edx)
    4338:	91                   	xchg   %eax,%ecx
    4339:	4e                   	dec    %esi
    433a:	00 00                	add    %al,(%eax)
    433c:	00 00                	add    %al,(%eax)
    433e:	2b 0f                	sub    (%edi),%ecx
    4340:	00 00                	add    %al,(%eax)
    4342:	04 00                	add    $0x0,%al
    4344:	ab                   	stos   %eax,%es:(%edi)
    4345:	0b 00                	or     (%eax),%eax
    4347:	00 04 01             	add    %al,(%ecx,%eax,1)
    434a:	2d 01 00 00 0c       	sub    $0xc000001,%eax
    434f:	cf                   	iret   
    4350:	0e                   	push   %cs
    4351:	00 00                	add    %al,(%eax)
    4353:	17                   	pop    %ss
    4354:	00 00                	add    %al,(%eax)
    4356:	00 3f                	add    %bh,(%edi)
    4358:	45                   	inc    %ebp
    4359:	30 00                	xor    %al,(%eax)
    435b:	de 01                	fiadds (%ecx)
    435d:	00 00                	add    %al,(%eax)
    435f:	6a 08                	push   $0x8
    4361:	00 00                	add    %al,(%eax)
    4363:	02 62 05             	add    0x5(%edx),%ah
    4366:	00 00                	add    %al,(%eax)
    4368:	03 1a                	add    (%edx),%ebx
    436a:	30 00                	xor    %al,(%eax)
    436c:	00 00                	add    %al,(%eax)
    436e:	03 01                	add    (%ecx),%eax
    4370:	08 51 03             	or     %dl,0x3(%ecx)
    4373:	00 00                	add    %al,(%eax)
    4375:	02 b7 00 00 00 03    	add    0x3000000(%edi),%dh
    437b:	1b 42 00             	sbb    0x0(%edx),%eax
    437e:	00 00                	add    %al,(%eax)
    4380:	03 02                	add    (%edx),%eax
    4382:	07                   	pop    %es
    4383:	f3 03 00             	repz add (%eax),%eax
    4386:	00 02                	add    %al,(%edx)
    4388:	9a 00 00 00 03 1c 54 	lcall  $0x541c,$0x3000000
    438f:	00 00                	add    %al,(%eax)
    4391:	00 03                	add    %al,(%ebx)
    4393:	04 07                	add    $0x7,%al
    4395:	95                   	xchg   %eax,%ebp
    4396:	03 00                	add    (%eax),%eax
    4398:	00 02                	add    %al,(%edx)
    439a:	10 04 00             	adc    %al,(%eax,%eax,1)
    439d:	00 03                	add    %al,(%ebx)
    439f:	1d 66 00 00 00       	sbb    $0x66,%eax
    43a4:	03 08                	add    (%eax),%ecx
    43a6:	07                   	pop    %es
    43a7:	8b 03                	mov    (%ebx),%eax
    43a9:	00 00                	add    %al,(%eax)
    43ab:	03 01                	add    (%ecx),%eax
    43ad:	06                   	push   %es
    43ae:	53                   	push   %ebx
    43af:	03 00                	add    (%eax),%eax
    43b1:	00 02                	add    %al,(%edx)
    43b3:	0a 07                	or     (%edi),%al
    43b5:	00 00                	add    %al,(%eax)
    43b7:	03 20                	add    (%eax),%esp
    43b9:	7f 00                	jg     43bb <mbh-0x2fbc45>
    43bb:	00 00                	add    %al,(%eax)
    43bd:	03 02                	add    (%edx),%eax
    43bf:	05 a3 00 00 00       	add    $0xa3,%eax
    43c4:	02 b0 05 00 00 03    	add    0x3000005(%eax),%dh
    43ca:	21 91 00 00 00 04    	and    %edx,0x4000000(%ecx)
    43d0:	04 05                	add    $0x5,%al
    43d2:	69 6e 74 00 02 89 06 	imul   $0x6890200,0x74(%esi),%ebp
    43d9:	00 00                	add    %al,(%eax)
    43db:	03 22                	add    (%edx),%esp
    43dd:	a3 00 00 00 03       	mov    %eax,0x3000000
    43e2:	08 05 d8 02 00 00    	or     %al,0x2d8
    43e8:	02 b9 05 00 00 03    	add    0x3000005(%ecx),%bh
    43ee:	24 b5                	and    $0xb5,%al
    43f0:	00 00                	add    %al,(%eax)
    43f2:	00 05 04 bb 00 00    	add    %al,0xbb04
    43f8:	00 03                	add    %al,(%ebx)
    43fa:	01 06                	add    %eax,(%esi)
    43fc:	5a                   	pop    %edx
    43fd:	03 00                	add    (%eax),%eax
    43ff:	00 02                	add    %al,(%edx)
    4401:	a9 05 00 00 03       	test   $0x3000005,%eax
    4406:	25 cd 00 00 00       	and    $0xcd,%eax
    440b:	03 04 07             	add    (%edi,%eax,1),%eax
    440e:	90                   	nop
    440f:	03 00                	add    (%eax),%eax
    4411:	00 02                	add    %al,(%edx)
    4413:	6a 07                	push   $0x7
    4415:	00 00                	add    %al,(%eax)
    4417:	03 26                	add    (%esi),%esp
    4419:	cd 00                	int    $0x0
    441b:	00 00                	add    %al,(%eax)
    441d:	06                   	push   %es
    441e:	02 03                	add    (%ebx),%al
    4420:	4c                   	dec    %esp
    4421:	00 01                	add    %al,(%ecx)
    4423:	00 00                	add    %al,(%eax)
    4425:	07                   	pop    %es
    4426:	9e                   	sahf   
    4427:	05 00 00 03 4e       	add    $0x4e030000,%eax
    442c:	25 00 00 00 00       	and    $0x0,%eax
    4431:	07                   	pop    %es
    4432:	92                   	xchg   %eax,%edx
    4433:	06                   	push   %es
    4434:	00 00                	add    %al,(%eax)
    4436:	03 4f 25             	add    0x25(%edi),%ecx
    4439:	00 00                	add    %al,(%eax)
    443b:	00 01                	add    %al,(%ecx)
    443d:	00 08                	add    %cl,(%eax)
    443f:	d8 05 00 00 02 03    	fadds  0x3020000
    4445:	45                   	inc    %ebp
    4446:	33 01                	xor    (%ecx),%eax
    4448:	00 00                	add    %al,(%eax)
    444a:	09 72 61             	or     %esi,0x61(%edx)
    444d:	77 00                	ja     444f <mbh-0x2fbbb1>
    444f:	03 47 37             	add    0x37(%edi),%eax
    4452:	00 00                	add    %al,(%eax)
    4454:	00 0a                	add    %cl,(%edx)
    4456:	f4                   	hlt    
    4457:	06                   	push   %es
    4458:	00 00                	add    %al,(%eax)
    445a:	03 48 74             	add    0x74(%eax),%ecx
    445d:	00 00                	add    %al,(%eax)
    445f:	00 0a                	add    %cl,(%edx)
    4461:	64 06                	fs push %es
    4463:	00 00                	add    %al,(%eax)
    4465:	03 49 33             	add    0x33(%ecx),%ecx
    4468:	01 00                	add    %eax,(%eax)
    446a:	00 0b                	add    %cl,(%ebx)
    446c:	df 00                	filds  (%eax)
    446e:	00 00                	add    %al,(%eax)
    4470:	00 0c 25 00 00 00 43 	add    %cl,0x43000000(,%eiz,1)
    4477:	01 00                	add    %eax,(%eax)
    4479:	00 0d 54 00 00 00    	add    %cl,0x54
    447f:	01 00                	add    %eax,(%eax)
    4481:	02 06                	add    (%esi),%al
    4483:	06                   	push   %es
    4484:	00 00                	add    %al,(%eax)
    4486:	03 53 00             	add    0x0(%ebx),%edx
    4489:	01 00                	add    %eax,(%eax)
    448b:	00 06                	add    %al,(%esi)
    448d:	04 03                	add    $0x3,%al
    448f:	5f                   	pop    %edi
    4490:	6f                   	outsl  %ds:(%esi),(%dx)
    4491:	01 00                	add    %eax,(%eax)
    4493:	00 07                	add    %al,(%edi)
    4495:	98                   	cwtl   
    4496:	06                   	push   %es
    4497:	00 00                	add    %al,(%eax)
    4499:	03 61 43             	add    0x43(%ecx),%esp
    449c:	01 00                	add    %eax,(%eax)
    449e:	00 00                	add    %al,(%eax)
    44a0:	07                   	pop    %es
    44a1:	b6 07                	mov    $0x7,%dh
    44a3:	00 00                	add    %al,(%eax)
    44a5:	03 62 43             	add    0x43(%edx),%esp
    44a8:	01 00                	add    %eax,(%eax)
    44aa:	00 02                	add    %al,(%edx)
    44ac:	00 06                	add    %al,(%esi)
    44ae:	02 03                	add    (%ebx),%al
    44b0:	6b 90 01 00 00 07 9e 	imul   $0xffffff9e,0x7000001(%eax),%edx
    44b7:	05 00 00 03 6d       	add    $0x6d030000,%eax
    44bc:	25 00 00 00 00       	and    $0x0,%eax
    44c1:	07                   	pop    %es
    44c2:	92                   	xchg   %eax,%edx
    44c3:	06                   	push   %es
    44c4:	00 00                	add    %al,(%eax)
    44c6:	03 6e 25             	add    0x25(%esi),%ebp
    44c9:	00 00                	add    %al,(%eax)
    44cb:	00 01                	add    %al,(%ecx)
    44cd:	00 0e                	add    %cl,(%esi)
    44cf:	02 03                	add    (%ebx),%al
    44d1:	69 a9 01 00 00 0b 6f 	imul   $0x16f,0xb000001(%ecx),%ebp
    44d8:	01 00 00 
    44db:	0a 99 06 00 00 03    	or     0x3000006(%ecx),%bl
    44e1:	72 37                	jb     451a <mbh-0x2fbae6>
    44e3:	00 00                	add    %al,(%eax)
    44e5:	00 00                	add    %al,(%eax)
    44e7:	06                   	push   %es
    44e8:	04 03                	add    $0x3,%al
    44ea:	67 c4 01             	les    (%bx,%di),%eax
    44ed:	00 00                	add    %al,(%eax)
    44ef:	0f 90 01             	seto   (%ecx)
    44f2:	00 00                	add    %al,(%eax)
    44f4:	00 07                	add    %al,(%edi)
    44f6:	b7 07                	mov    $0x7,%bh
    44f8:	00 00                	add    %al,(%eax)
    44fa:	03 76 37             	add    0x37(%esi),%esi
    44fd:	00 00                	add    %al,(%eax)
    44ff:	00 02                	add    %al,(%edx)
    4501:	00 08                	add    %cl,(%eax)
    4503:	ce                   	into   
    4504:	06                   	push   %es
    4505:	00 00                	add    %al,(%eax)
    4507:	04 03                	add    $0x3,%al
    4509:	58                   	pop    %eax
    450a:	fc                   	cld    
    450b:	01 00                	add    %eax,(%eax)
    450d:	00 09                	add    %cl,(%ecx)
    450f:	72 61                	jb     4572 <mbh-0x2fba8e>
    4511:	77 00                	ja     4513 <mbh-0x2fbaed>
    4513:	03 5a 49             	add    0x49(%edx),%ebx
    4516:	00 00                	add    %al,(%eax)
    4518:	00 0a                	add    %cl,(%edx)
    451a:	f4                   	hlt    
    451b:	06                   	push   %es
    451c:	00 00                	add    %al,(%eax)
    451e:	03 5b 86             	add    -0x7a(%ebx),%ebx
    4521:	00 00                	add    %al,(%eax)
    4523:	00 0a                	add    %cl,(%edx)
    4525:	64 06                	fs push %es
    4527:	00 00                	add    %al,(%eax)
    4529:	03 5c fc 01          	add    0x1(%esp,%edi,8),%ebx
    452d:	00 00                	add    %al,(%eax)
    452f:	0b 4e 01             	or     0x1(%esi),%ecx
    4532:	00 00                	add    %al,(%eax)
    4534:	0b a9 01 00 00 00    	or     0x1(%ecx),%ebp
    453a:	0c 25                	or     $0x25,%al
    453c:	00 00                	add    %al,(%eax)
    453e:	00 0c 02             	add    %cl,(%edx,%eax,1)
    4541:	00 00                	add    %al,(%eax)
    4543:	0d 54 00 00 00       	or     $0x54,%eax
    4548:	03 00                	add    (%eax),%eax
    454a:	02 38                	add    (%eax),%bh
    454c:	07                   	pop    %es
    454d:	00 00                	add    %al,(%eax)
    454f:	03 7a c4             	add    -0x3c(%edx),%edi
    4552:	01 00                	add    %eax,(%eax)
    4554:	00 06                	add    %al,(%esi)
    4556:	08 03                	or     %al,(%ebx)
    4558:	86 38                	xchg   %bh,(%eax)
    455a:	02 00                	add    (%eax),%al
    455c:	00 07                	add    %al,(%edi)
    455e:	84 06                	test   %al,(%esi)
    4560:	00 00                	add    %al,(%eax)
    4562:	03 88 0c 02 00 00    	add    0x20c(%eax),%ecx
    4568:	00 07                	add    %al,(%edi)
    456a:	ee                   	out    %al,(%dx)
    456b:	06                   	push   %es
    456c:	00 00                	add    %al,(%eax)
    456e:	03 89 0c 02 00 00    	add    0x20c(%ecx),%ecx
    4574:	04 00                	add    $0x0,%al
    4576:	06                   	push   %es
    4577:	02 03                	add    (%ebx),%al
    4579:	96                   	xchg   %eax,%esi
    457a:	59                   	pop    %ecx
    457b:	02 00                	add    (%eax),%al
    457d:	00 07                	add    %al,(%edi)
    457f:	9e                   	sahf   
    4580:	05 00 00 03 98       	add    $0x98030000,%eax
    4585:	25 00 00 00 00       	and    $0x0,%eax
    458a:	07                   	pop    %es
    458b:	92                   	xchg   %eax,%edx
    458c:	06                   	push   %es
    458d:	00 00                	add    %al,(%eax)
    458f:	03 99 25 00 00 00    	add    0x25(%ecx),%ebx
    4595:	01 00                	add    %eax,(%eax)
    4597:	0e                   	push   %cs
    4598:	02 03                	add    (%ebx),%al
    459a:	94                   	xchg   %eax,%esp
    459b:	72 02                	jb     459f <mbh-0x2fba61>
    459d:	00 00                	add    %al,(%eax)
    459f:	0b 38                	or     (%eax),%edi
    45a1:	02 00                	add    (%eax),%al
    45a3:	00 0a                	add    %cl,(%edx)
    45a5:	99                   	cltd   
    45a6:	06                   	push   %es
    45a7:	00 00                	add    %al,(%eax)
    45a9:	03 9d 37 00 00 00    	add    0x37(%ebp),%ebx
    45af:	00 06                	add    %al,(%esi)
    45b1:	04 03                	add    $0x3,%al
    45b3:	92                   	xchg   %eax,%edx
    45b4:	8d 02                	lea    (%edx),%eax
    45b6:	00 00                	add    %al,(%eax)
    45b8:	0f 59 02             	mulps  (%edx),%xmm0
    45bb:	00 00                	add    %al,(%eax)
    45bd:	00 07                	add    %al,(%edi)
    45bf:	b7 07                	mov    $0x7,%bh
    45c1:	00 00                	add    %al,(%eax)
    45c3:	03 a1 37 00 00 00    	add    0x37(%ecx),%esp
    45c9:	02 00                	add    (%eax),%al
    45cb:	0e                   	push   %cs
    45cc:	04 03                	add    $0x3,%al
    45ce:	90                   	nop
    45cf:	a6                   	cmpsb  %es:(%edi),%ds:(%esi)
    45d0:	02 00                	add    (%eax),%al
    45d2:	00 0b                	add    %cl,(%ebx)
    45d4:	72 02                	jb     45d8 <mbh-0x2fba28>
    45d6:	00 00                	add    %al,(%eax)
    45d8:	09 6c 6f 77          	or     %ebp,0x77(%edi,%ebp,2)
    45dc:	00 03                	add    %al,(%ebx)
    45de:	a5                   	movsl  %ds:(%esi),%es:(%edi)
    45df:	49                   	dec    %ecx
    45e0:	00 00                	add    %al,(%eax)
    45e2:	00 00                	add    %al,(%eax)
    45e4:	06                   	push   %es
    45e5:	08 03                	or     %al,(%ebx)
    45e7:	8e c1                	mov    %ecx,%es
    45e9:	02 00                	add    (%eax),%al
    45eb:	00 0f                	add    %cl,(%edi)
    45ed:	8d 02                	lea    (%edx),%eax
    45ef:	00 00                	add    %al,(%eax)
    45f1:	00 07                	add    %al,(%edi)
    45f3:	ef                   	out    %eax,(%dx)
    45f4:	06                   	push   %es
    45f5:	00 00                	add    %al,(%eax)
    45f7:	03 a9 49 00 00 00    	add    0x49(%ecx),%ebp
    45fd:	04 00                	add    $0x0,%al
    45ff:	08 2d 06 00 00 08    	or     %ch,0x8000006
    4605:	03 7f f9             	add    -0x7(%edi),%edi
    4608:	02 00                	add    (%eax),%al
    460a:	00 09                	add    %cl,(%ecx)
    460c:	72 61                	jb     466f <mbh-0x2fb991>
    460e:	77 00                	ja     4610 <mbh-0x2fb9f0>
    4610:	03 81 5b 00 00 00    	add    0x5b(%ecx),%eax
    4616:	0a f4                	or     %ah,%dh
    4618:	06                   	push   %es
    4619:	00 00                	add    %al,(%eax)
    461b:	03 82 98 00 00 00    	add    0x98(%edx),%eax
    4621:	0a 64 06 00          	or     0x0(%esi,%eax,1),%ah
    4625:	00 03                	add    %al,(%ebx)
    4627:	83 f9 02             	cmp    $0x2,%ecx
    462a:	00 00                	add    %al,(%eax)
    462c:	0b 17                	or     (%edi),%edx
    462e:	02 00                	add    (%eax),%al
    4630:	00 0b                	add    %cl,(%ebx)
    4632:	a6                   	cmpsb  %es:(%edi),%ds:(%esi)
    4633:	02 00                	add    (%eax),%al
    4635:	00 00                	add    %al,(%eax)
    4637:	0c 25                	or     $0x25,%al
    4639:	00 00                	add    %al,(%eax)
    463b:	00 09                	add    %cl,(%ecx)
    463d:	03 00                	add    (%eax),%eax
    463f:	00 0d 54 00 00 00    	add    %cl,0x54
    4645:	07                   	pop    %es
    4646:	00 02                	add    %al,(%edx)
    4648:	cb                   	lret   
    4649:	07                   	pop    %es
    464a:	00 00                	add    %al,(%eax)
    464c:	03 ad c1 02 00 00    	add    0x2c1(%ebp),%ebp
    4652:	10 ba 06 00 00 04    	adc    %bh,0x4000006(%edx)
    4658:	03 b9 39 03 00 00    	add    0x339(%ecx),%edi
    465e:	07                   	pop    %es
    465f:	84 07                	test   %al,(%edi)
    4661:	00 00                	add    %al,(%eax)
    4663:	03 bb 37 00 00 00    	add    0x37(%ebx),%edi
    4669:	00 07                	add    %al,(%edi)
    466b:	88 0a                	mov    %cl,(%edx)
    466d:	00 00                	add    %al,(%eax)
    466f:	03 bc 37 00 00 00 02 	add    0x2000000(%edi,%esi,1),%edi
    4676:	00 02                	add    %al,(%edx)
    4678:	ad                   	lods   %ds:(%esi),%eax
    4679:	07                   	pop    %es
    467a:	00 00                	add    %al,(%eax)
    467c:	03 be 14 03 00 00    	add    0x314(%esi),%edi
    4682:	10 40 07             	adc    %al,0x7(%eax)
    4685:	00 00                	add    %al,(%eax)
    4687:	06                   	push   %es
    4688:	03 c0                	add    %eax,%eax
    468a:	69 03 00 00 07 84    	imul   $0x84070000,(%ebx),%eax
    4690:	07                   	pop    %es
    4691:	00 00                	add    %al,(%eax)
    4693:	03 c2                	add    %edx,%eax
    4695:	49                   	dec    %ecx
    4696:	00 00                	add    %al,(%eax)
    4698:	00 00                	add    %al,(%eax)
    469a:	07                   	pop    %es
    469b:	88 0a                	mov    %cl,(%edx)
    469d:	00 00                	add    %al,(%eax)
    469f:	03 c3                	add    %ebx,%eax
    46a1:	37                   	aaa    
    46a2:	00 00                	add    %al,(%eax)
    46a4:	00 04 00             	add    %al,(%eax,%eax,1)
    46a7:	02 ea                	add    %dl,%ch
    46a9:	05 00 00 03 c5       	add    $0xc5030000,%eax
    46ae:	44                   	inc    %esp
    46af:	03 00                	add    (%eax),%eax
    46b1:	00 10                	add    %dl,(%eax)
    46b3:	ce                   	into   
    46b4:	05 00 00 0a 03       	add    $0x30a0000,%eax
    46b9:	c7                   	(bad)  
    46ba:	99                   	cltd   
    46bb:	03 00                	add    (%eax),%eax
    46bd:	00 07                	add    %al,(%edi)
    46bf:	84 07                	test   %al,(%edi)
    46c1:	00 00                	add    %al,(%eax)
    46c3:	03 c9                	add    %ecx,%ecx
    46c5:	5b                   	pop    %ebx
    46c6:	00 00                	add    %al,(%eax)
    46c8:	00 00                	add    %al,(%eax)
    46ca:	07                   	pop    %es
    46cb:	88 0a                	mov    %cl,(%edx)
    46cd:	00 00                	add    %al,(%eax)
    46cf:	03 ca                	add    %edx,%ecx
    46d1:	37                   	aaa    
    46d2:	00 00                	add    %al,(%eax)
    46d4:	00 08                	add    %cl,(%eax)
    46d6:	00 02                	add    %al,(%edx)
    46d8:	2f                   	das    
    46d9:	07                   	pop    %es
    46da:	00 00                	add    %al,(%eax)
    46dc:	03 cc                	add    %esp,%ecx
    46de:	74 03                	je     46e3 <mbh-0x2fb91d>
    46e0:	00 00                	add    %al,(%eax)
    46e2:	08 61 07             	or     %ah,0x7(%ecx)
    46e5:	00 00                	add    %al,(%eax)
    46e7:	08 03                	or     %al,(%ebx)
    46e9:	d1 23                	shll   (%ebx)
    46eb:	04 00                	add    $0x0,%al
    46ed:	00 0a                	add    %cl,(%edx)
    46ef:	f3 05 00 00 03 d3    	repz add $0xd3030000,%eax
    46f5:	d4 00                	aam    $0x0
    46f7:	00 00                	add    %al,(%eax)
    46f9:	0a 99 05 00 00 03    	or     0x3000005(%ecx),%bl
    46ff:	d5 23                	aad    $0x23
    4701:	04 00                	add    $0x0,%al
    4703:	00 09                	add    %cl,(%ecx)
    4705:	75 38                	jne    473f <mbh-0x2fb8c1>
    4707:	00 03                	add    %al,(%ebx)
    4709:	d6                   	(bad)  
    470a:	25 04 00 00 09       	and    $0x9000004,%eax
    470f:	75 31                	jne    4742 <mbh-0x2fb8be>
    4711:	36 00 03             	add    %al,%ss:(%ebx)
    4714:	d7                   	xlat   %ds:(%ebx)
    4715:	2b 04 00             	sub    (%eax,%eax,1),%eax
    4718:	00 09                	add    %cl,(%ecx)
    471a:	75 33                	jne    474f <mbh-0x2fb8b1>
    471c:	32 00                	xor    (%eax),%al
    471e:	03 d8                	add    %eax,%ebx
    4720:	31 04 00             	xor    %eax,(%eax,%eax,1)
    4723:	00 09                	add    %cl,(%ecx)
    4725:	75 36                	jne    475d <mbh-0x2fb8a3>
    4727:	34 00                	xor    $0x0,%al
    4729:	03 d9                	add    %ecx,%ebx
    472b:	37                   	aaa    
    472c:	04 00                	add    $0x0,%al
    472e:	00 09                	add    %cl,(%ecx)
    4730:	73 74                	jae    47a6 <mbh-0x2fb85a>
    4732:	72 00                	jb     4734 <mbh-0x2fb8cc>
    4734:	03 db                	add    %ebx,%ebx
    4736:	aa                   	stos   %al,%es:(%edi)
    4737:	00 00                	add    %al,(%eax)
    4739:	00 09                	add    %cl,(%ecx)
    473b:	66 31 36             	xor    %si,(%esi)
    473e:	00 03                	add    %al,(%ebx)
    4740:	dd 3d 04 00 00 09    	fnstsw 0x9000004
    4746:	66 33 32             	xor    (%edx),%si
    4749:	00 03                	add    %al,(%ebx)
    474b:	de 43 04             	fiadds 0x4(%ebx)
    474e:	00 00                	add    %al,(%eax)
    4750:	09 66 36             	or     %esp,0x36(%esi)
    4753:	34 00                	xor    $0x0,%al
    4755:	03 df                	add    %edi,%ebx
    4757:	49                   	dec    %ecx
    4758:	04 00                	add    $0x0,%al
    475a:	00 0b                	add    %cl,(%ebx)
    475c:	09 03                	or     %eax,(%ebx)
    475e:	00 00                	add    %al,(%eax)
    4760:	00 11                	add    %dl,(%ecx)
    4762:	04 05                	add    $0x5,%al
    4764:	04 25                	add    $0x25,%al
    4766:	00 00                	add    %al,(%eax)
    4768:	00 05 04 37 00 00    	add    %al,0x3704
    476e:	00 05 04 49 00 00    	add    %al,0x4904
    4774:	00 05 04 5b 00 00    	add    %al,0x5b04
    477a:	00 05 04 39 03 00    	add    %al,0x33904
    4780:	00 05 04 69 03 00    	add    %al,0x36904
    4786:	00 05 04 99 03 00    	add    %al,0x39904
    478c:	00 02                	add    %al,(%edx)
    478e:	c5 07                	lds    (%edi),%eax
    4790:	00 00                	add    %al,(%eax)
    4792:	03 e3                	add    %ebx,%esp
    4794:	a4                   	movsb  %ds:(%esi),%es:(%edi)
    4795:	03 00                	add    (%eax),%eax
    4797:	00 06                	add    %al,(%esi)
    4799:	04 04                	add    $0x4,%al
    479b:	2b e7                	sub    %edi,%esp
    479d:	04 00                	add    $0x0,%al
    479f:	00 12                	add    %dl,(%edx)
    47a1:	70 00                	jo     47a3 <mbh-0x2fb85d>
    47a3:	04 2d                	add    $0x2d,%al
    47a5:	49                   	dec    %ecx
    47a6:	00 00                	add    %al,(%eax)
    47a8:	00 04 01             	add    %al,(%ecx,%eax,1)
    47ab:	1f                   	pop    %ds
    47ac:	00 12                	add    %dl,(%edx)
    47ae:	72 77                	jb     4827 <mbh-0x2fb7d9>
    47b0:	00 04 2e             	add    %al,(%esi,%ebp,1)
    47b3:	49                   	dec    %ecx
    47b4:	00 00                	add    %al,(%eax)
    47b6:	00 04 01             	add    %al,(%ecx,%eax,1)
    47b9:	1e                   	push   %ds
    47ba:	00 12                	add    %dl,(%edx)
    47bc:	6c                   	insb   (%dx),%es:(%edi)
    47bd:	76 6c                	jbe    482b <mbh-0x2fb7d5>
    47bf:	00 04 2f             	add    %al,(%edi,%ebp,1)
    47c2:	49                   	dec    %ecx
    47c3:	00 00                	add    %al,(%eax)
    47c5:	00 04 01             	add    %al,(%ecx,%eax,1)
    47c8:	1d 00 12 70 77       	sbb    $0x77701200,%eax
    47cd:	74 00                	je     47cf <mbh-0x2fb831>
    47cf:	04 30                	add    $0x30,%al
    47d1:	49                   	dec    %ecx
    47d2:	00 00                	add    %al,(%eax)
    47d4:	00 04 01             	add    %al,(%ecx,%eax,1)
    47d7:	1c 00                	sbb    $0x0,%al
    47d9:	12 70 63             	adc    0x63(%eax),%dh
    47dc:	64 00 04 31          	add    %al,%fs:(%ecx,%esi,1)
    47e0:	49                   	dec    %ecx
    47e1:	00 00                	add    %al,(%eax)
    47e3:	00 04 01             	add    %al,(%ecx,%eax,1)
    47e6:	1b 00                	sbb    (%eax),%eax
    47e8:	12 61 63             	adc    0x63(%ecx),%ah
    47eb:	63 00                	arpl   %ax,(%eax)
    47ed:	04 32                	add    $0x32,%al
    47ef:	49                   	dec    %ecx
    47f0:	00 00                	add    %al,(%eax)
    47f2:	00 04 01             	add    %al,(%ecx,%eax,1)
    47f5:	1a 00                	sbb    (%eax),%al
    47f7:	12 6d 62             	adc    0x62(%ebp),%ch
    47fa:	7a 00                	jp     47fc <mbh-0x2fb804>
    47fc:	04 33                	add    $0x33,%al
    47fe:	49                   	dec    %ecx
    47ff:	00 00                	add    %al,(%eax)
    4801:	00 04 03             	add    %al,(%ebx,%eax,1)
    4804:	17                   	pop    %ss
    4805:	00 12                	add    %dl,(%edx)
    4807:	61                   	popa   
    4808:	76 6c                	jbe    4876 <mbh-0x2fb78a>
    480a:	00 04 34             	add    %al,(%esp,%esi,1)
    480d:	49                   	dec    %ecx
    480e:	00 00                	add    %al,(%eax)
    4810:	00 04 03             	add    %al,(%ebx,%eax,1)
    4813:	14 00                	adc    $0x0,%al
    4815:	13 99 05 00 00 04    	adc    0x4000005(%ecx),%ebx
    481b:	35 49 00 00 00       	xor    $0x49,%eax
    4820:	04 14                	add    $0x14,%al
    4822:	00 00                	add    %al,(%eax)
    4824:	00 06                	add    %al,(%esi)
    4826:	04 04                	add    $0x4,%al
    4828:	39 ab 05 00 00 12    	cmp    %ebp,0x12000005(%ebx)
    482e:	70 00                	jo     4830 <mbh-0x2fb7d0>
    4830:	04 3b                	add    $0x3b,%al
    4832:	49                   	dec    %ecx
    4833:	00 00                	add    %al,(%eax)
    4835:	00 04 01             	add    %al,(%ecx,%eax,1)
    4838:	1f                   	pop    %ds
    4839:	00 12                	add    %dl,(%edx)
    483b:	72 77                	jb     48b4 <mbh-0x2fb74c>
    483d:	00 04 3c             	add    %al,(%esp,%edi,1)
    4840:	49                   	dec    %ecx
    4841:	00 00                	add    %al,(%eax)
    4843:	00 04 01             	add    %al,(%ecx,%eax,1)
    4846:	1e                   	push   %ds
    4847:	00 12                	add    %dl,(%edx)
    4849:	6c                   	insb   (%dx),%es:(%edi)
    484a:	76 6c                	jbe    48b8 <mbh-0x2fb748>
    484c:	00 04 3d 49 00 00 00 	add    %al,0x49(,%edi,1)
    4853:	04 01                	add    $0x1,%al
    4855:	1d 00 12 70 77       	sbb    $0x77701200,%eax
    485a:	74 00                	je     485c <mbh-0x2fb7a4>
    485c:	04 3e                	add    $0x3e,%al
    485e:	49                   	dec    %ecx
    485f:	00 00                	add    %al,(%eax)
    4861:	00 04 01             	add    %al,(%ecx,%eax,1)
    4864:	1c 00                	sbb    $0x0,%al
    4866:	12 70 63             	adc    0x63(%eax),%dh
    4869:	64 00 04 3f          	add    %al,%fs:(%edi,%edi,1)
    486d:	49                   	dec    %ecx
    486e:	00 00                	add    %al,(%eax)
    4870:	00 04 01             	add    %al,(%ecx,%eax,1)
    4873:	1b 00                	sbb    (%eax),%eax
    4875:	12 61 63             	adc    0x63(%ecx),%ah
    4878:	63 00                	arpl   %ax,(%eax)
    487a:	04 40                	add    $0x40,%al
    487c:	49                   	dec    %ecx
    487d:	00 00                	add    %al,(%eax)
    487f:	00 04 01             	add    %al,(%ecx,%eax,1)
    4882:	1a 00                	sbb    (%eax),%al
    4884:	12 64 00 04          	adc    0x4(%eax,%eax,1),%ah
    4888:	41                   	inc    %ecx
    4889:	49                   	dec    %ecx
    488a:	00 00                	add    %al,(%eax)
    488c:	00 04 01             	add    %al,(%ecx,%eax,1)
    488f:	19 00                	sbb    %eax,(%eax)
    4891:	12 70 73             	adc    0x73(%eax),%dh
    4894:	00 04 42             	add    %al,(%edx,%eax,2)
    4897:	49                   	dec    %ecx
    4898:	00 00                	add    %al,(%eax)
    489a:	00 04 01             	add    %al,(%ecx,%eax,1)
    489d:	18 00                	sbb    %al,(%eax)
    489f:	12 67 00             	adc    0x0(%edi),%ah
    48a2:	04 43                	add    $0x43,%al
    48a4:	49                   	dec    %ecx
    48a5:	00 00                	add    %al,(%eax)
    48a7:	00 04 01             	add    %al,(%ecx,%eax,1)
    48aa:	17                   	pop    %ss
    48ab:	00 12                	add    %dl,(%edx)
    48ad:	61                   	popa   
    48ae:	76 6c                	jbe    491c <mbh-0x2fb6e4>
    48b0:	00 04 44             	add    %al,(%esp,%eax,2)
    48b3:	49                   	dec    %ecx
    48b4:	00 00                	add    %al,(%eax)
    48b6:	00 04 03             	add    %al,(%ebx,%eax,1)
    48b9:	14 00                	adc    $0x0,%al
    48bb:	12 70 61             	adc    0x61(%eax),%dh
    48be:	74 00                	je     48c0 <mbh-0x2fb740>
    48c0:	04 45                	add    $0x45,%al
    48c2:	49                   	dec    %ecx
    48c3:	00 00                	add    %al,(%eax)
    48c5:	00 04 01             	add    %al,(%ecx,%eax,1)
    48c8:	13 00                	adc    (%eax),%eax
    48ca:	12 72 73             	adc    0x73(%edx),%dh
    48cd:	76 00                	jbe    48cf <mbh-0x2fb731>
    48cf:	04 46                	add    $0x46,%al
    48d1:	49                   	dec    %ecx
    48d2:	00 00                	add    %al,(%eax)
    48d4:	00 04 09             	add    %al,(%ecx,%ecx,1)
    48d7:	0a 00                	or     (%eax),%al
    48d9:	13 99 05 00 00 04    	adc    0x4000005(%ecx),%ebx
    48df:	47                   	inc    %edi
    48e0:	49                   	dec    %ecx
    48e1:	00 00                	add    %al,(%eax)
    48e3:	00 04 0a             	add    %al,(%edx,%ecx,1)
    48e6:	00 00                	add    %al,(%eax)
    48e8:	00 08                	add    %cl,(%eax)
    48ea:	a1 0a 00 00 04       	mov    0x400000a,%eax
    48ef:	04 29                	add    $0x29,%al
    48f1:	cd 05                	int    $0x5
    48f3:	00 00                	add    %al,(%eax)
    48f5:	0b 5a 04             	or     0x4(%edx),%ebx
    48f8:	00 00                	add    %al,(%eax)
    48fa:	0a b5 0c 00 00 04    	or     0x400000c(%ebp),%dh
    4900:	49                   	dec    %ecx
    4901:	e7 04                	out    %eax,$0x4
    4903:	00 00                	add    %al,(%eax)
    4905:	0b 0c 02             	or     (%edx,%eax,1),%ecx
    4908:	00 00                	add    %al,(%eax)
    490a:	00 02                	add    %al,(%edx)
    490c:	ce                   	into   
    490d:	0c 00                	or     $0x0,%al
    490f:	00 04 4d ab 05 00 00 	add    %al,0x5ab(,%ecx,2)
    4916:	10 e1                	adc    %ah,%cl
    4918:	0c 00                	or     $0x0,%al
    491a:	00 04 05 26 1c 07 00 	add    %al,0x71c26(,%eax,1)
    4921:	00 12                	add    %dl,(%edx)
    4923:	63 66 00             	arpl   %sp,0x0(%esi)
    4926:	05 28 49 00 00       	add    $0x4928,%eax
    492b:	00 04 01             	add    %al,(%ecx,%eax,1)
    492e:	1f                   	pop    %ds
    492f:	00 12                	add    %dl,(%edx)
    4931:	72 31                	jb     4964 <mbh-0x2fb69c>
    4933:	00 05 29 49 00 00    	add    %al,0x4929
    4939:	00 04 01             	add    %al,(%ecx,%eax,1)
    493c:	1e                   	push   %ds
    493d:	00 12                	add    %dl,(%edx)
    493f:	70 66                	jo     49a7 <mbh-0x2fb659>
    4941:	00 05 2a 49 00 00    	add    %al,0x492a
    4947:	00 04 01             	add    %al,(%ecx,%eax,1)
    494a:	1d 00 12 72 32       	sbb    $0x32721200,%eax
    494f:	00 05 2b 49 00 00    	add    %al,0x492b
    4955:	00 04 01             	add    %al,(%ecx,%eax,1)
    4958:	1c 00                	sbb    $0x0,%al
    495a:	12 61 66             	adc    0x66(%ecx),%ah
    495d:	00 05 2c 49 00 00    	add    %al,0x492c
    4963:	00 04 01             	add    %al,(%ecx,%eax,1)
    4966:	1b 00                	sbb    (%eax),%eax
    4968:	12 72 33             	adc    0x33(%edx),%dh
    496b:	00 05 2d 49 00 00    	add    %al,0x492d
    4971:	00 04 01             	add    %al,(%ecx,%eax,1)
    4974:	1a 00                	sbb    (%eax),%al
    4976:	12 7a 66             	adc    0x66(%edx),%bh
    4979:	00 05 2e 49 00 00    	add    %al,0x492e
    497f:	00 04 01             	add    %al,(%ecx,%eax,1)
    4982:	19 00                	sbb    %eax,(%eax)
    4984:	12 73 66             	adc    0x66(%ebx),%dh
    4987:	00 05 2f 49 00 00    	add    %al,0x492f
    498d:	00 04 01             	add    %al,(%ecx,%eax,1)
    4990:	18 00                	sbb    %al,(%eax)
    4992:	12 74 66 00          	adc    0x0(%esi,%eiz,2),%dh
    4996:	05 31 49 00 00       	add    $0x4931,%eax
    499b:	00 04 01             	add    %al,(%ecx,%eax,1)
    499e:	17                   	pop    %ss
    499f:	00 12                	add    %dl,(%edx)
    49a1:	69 74 00 05 32 49 00 	imul   $0x4932,0x5(%eax,%eax,1),%esi
    49a8:	00 
    49a9:	00 04 01             	add    %al,(%ecx,%eax,1)
    49ac:	16                   	push   %ss
    49ad:	00 12                	add    %dl,(%edx)
    49af:	64 66 00 05 33 49 00 	data16 add %al,%fs:0x4933
    49b6:	00 
    49b7:	00 04 01             	add    %al,(%ecx,%eax,1)
    49ba:	15 00 12 6f 66       	adc    $0x666f1200,%eax
    49bf:	00 05 34 49 00 00    	add    %al,0x4934
    49c5:	00 04 01             	add    %al,(%ecx,%eax,1)
    49c8:	14 00                	adc    $0x0,%al
    49ca:	13 2b                	adc    (%ebx),%ebp
    49cc:	0d 00 00 05 35       	or     $0x35050000,%eax
    49d1:	49                   	dec    %ecx
    49d2:	00 00                	add    %al,(%eax)
    49d4:	00 04 02             	add    %al,(%edx,%eax,1)
    49d7:	12 00                	adc    (%eax),%al
    49d9:	12 6e 74             	adc    0x74(%esi),%ch
    49dc:	00 05 36 49 00 00    	add    %al,0x4936
    49e2:	00 04 01             	add    %al,(%ecx,%eax,1)
    49e5:	11 00                	adc    %eax,(%eax)
    49e7:	12 72 34             	adc    0x34(%edx),%dh
    49ea:	00 05 37 49 00 00    	add    %al,0x4937
    49f0:	00 04 01             	add    %al,(%ecx,%eax,1)
    49f3:	10 00                	adc    %al,(%eax)
    49f5:	12 72 66             	adc    0x66(%edx),%dh
    49f8:	00 05 39 49 00 00    	add    %al,0x4939
    49fe:	00 04 01             	add    %al,(%ecx,%eax,1)
    4a01:	0f 00 12             	lldt   (%edx)
    4a04:	76 6d                	jbe    4a73 <mbh-0x2fb58d>
    4a06:	00 05 3a 49 00 00    	add    %al,0x493a
    4a0c:	00 04 01             	add    %al,(%ecx,%eax,1)
    4a0f:	0e                   	push   %cs
    4a10:	00 12                	add    %dl,(%edx)
    4a12:	61                   	popa   
    4a13:	63 00                	arpl   %ax,(%eax)
    4a15:	05 3b 49 00 00       	add    $0x493b,%eax
    4a1a:	00 04 01             	add    %al,(%ecx,%eax,1)
    4a1d:	0d 00 12 76 69       	or     $0x69761200,%eax
    4a22:	74 00                	je     4a24 <mbh-0x2fb5dc>
    4a24:	05 3c 49 00 00       	add    $0x493c,%eax
    4a29:	00 04 01             	add    %al,(%ecx,%eax,1)
    4a2c:	0c 00                	or     $0x0,%al
    4a2e:	12 76 69             	adc    0x69(%esi),%dh
    4a31:	70 00                	jo     4a33 <mbh-0x2fb5cd>
    4a33:	05 3e 49 00 00       	add    $0x493e,%eax
    4a38:	00 04 01             	add    %al,(%ecx,%eax,1)
    4a3b:	0b 00                	or     (%eax),%eax
    4a3d:	12 69 64             	adc    0x64(%ecx),%ch
    4a40:	00 05 3f 49 00 00    	add    %al,0x493f
    4a46:	00 04 01             	add    %al,(%ecx,%eax,1)
    4a49:	0a 00                	or     (%eax),%al
    4a4b:	12 72 35             	adc    0x35(%edx),%dh
    4a4e:	00 05 40 49 00 00    	add    %al,0x4940
    4a54:	00 04 0a             	add    %al,(%edx,%ecx,1)
    4a57:	00 00                	add    %al,(%eax)
    4a59:	00 02                	add    %al,(%edx)
    4a5b:	7b 0c                	jnp    4a69 <mbh-0x2fb597>
    4a5d:	00 00                	add    %al,(%eax)
    4a5f:	05 42 d8 05 00       	add    $0x5d842,%eax
    4a64:	00 08                	add    %cl,(%eax)
    4a66:	ba 0c 00 00 04       	mov    $0x400000c,%edx
    4a6b:	05 44 3e 07 00       	add    $0x73e44,%eax
    4a70:	00 0b                	add    %cl,(%ebx)
    4a72:	1c 07                	sbb    $0x7,%al
    4a74:	00 00                	add    %al,(%eax)
    4a76:	0b 0c 02             	or     (%edx,%eax,1),%ecx
    4a79:	00 00                	add    %al,(%eax)
    4a7b:	00 02                	add    %al,(%edx)
    4a7d:	e2 0a                	loop   4a89 <mbh-0x2fb577>
    4a7f:	00 00                	add    %al,(%eax)
    4a81:	05 49 27 07 00       	add    $0x72749,%eax
    4a86:	00 06                	add    %al,(%esi)
    4a88:	20 05 5a b2 07 00    	and    %al,0x7b25a
    4a8e:	00 14 65 61 78 00 05 	add    %dl,0x5007861(,%eiz,2)
    4a95:	5c                   	pop    %esp
    4a96:	0c 02                	or     $0x2,%al
    4a98:	00 00                	add    %al,(%eax)
    4a9a:	00 14 65 63 78 00 05 	add    %dl,0x5007863(,%eiz,2)
    4aa1:	5d                   	pop    %ebp
    4aa2:	0c 02                	or     $0x2,%al
    4aa4:	00 00                	add    %al,(%eax)
    4aa6:	04 14                	add    $0x14,%al
    4aa8:	65 64 78 00          	gs fs js 4aac <mbh-0x2fb554>
    4aac:	05 5e 0c 02 00       	add    $0x20c5e,%eax
    4ab1:	00 08                	add    %cl,(%eax)
    4ab3:	14 65                	adc    $0x65,%al
    4ab5:	62 78 00             	bound  %edi,0x0(%eax)
    4ab8:	05 5f 0c 02 00       	add    $0x20c5f,%eax
    4abd:	00 0c 14             	add    %cl,(%esp,%edx,1)
    4ac0:	65 73 70             	gs jae 4b33 <mbh-0x2fb4cd>
    4ac3:	00 05 60 0c 02 00    	add    %al,0x20c60
    4ac9:	00 10                	add    %dl,(%eax)
    4acb:	14 65                	adc    $0x65,%al
    4acd:	62 70 00             	bound  %esi,0x0(%eax)
    4ad0:	05 61 0c 02 00       	add    $0x20c61,%eax
    4ad5:	00 14 14             	add    %dl,(%esp,%edx,1)
    4ad8:	65 73 69             	gs jae 4b44 <mbh-0x2fb4bc>
    4adb:	00 05 62 0c 02 00    	add    %al,0x20c62
    4ae1:	00 18                	add    %bl,(%eax)
    4ae3:	14 65                	adc    $0x65,%al
    4ae5:	64 69 00 05 63 0c 02 	imul   $0x20c6305,%fs:(%eax),%eax
    4aec:	00 00                	add    %al,(%eax)
    4aee:	1c 00                	sbb    $0x0,%al
    4af0:	08 1a                	or     %bl,(%edx)
    4af2:	0b 00                	or     (%eax),%eax
    4af4:	00 20                	add    %ah,(%eax)
    4af6:	05 58 cf 07 00       	add    $0x7cf58,%eax
    4afb:	00 0b                	add    %cl,(%ebx)
    4afd:	49                   	dec    %ecx
    4afe:	07                   	pop    %es
    4aff:	00 00                	add    %al,(%eax)
    4b01:	09 72 61             	or     %esi,0x61(%edx)
    4b04:	77 00                	ja     4b06 <mbh-0x2fb4fa>
    4b06:	05 67 cf 07 00       	add    $0x7cf67,%eax
    4b0b:	00 00                	add    %al,(%eax)
    4b0d:	0c 0c                	or     $0xc,%al
    4b0f:	02 00                	add    (%eax),%al
    4b11:	00 df                	add    %bl,%bh
    4b13:	07                   	pop    %es
    4b14:	00 00                	add    %al,(%eax)
    4b16:	0d 54 00 00 00       	or     $0x54,%eax
    4b1b:	07                   	pop    %es
    4b1c:	00 02                	add    %al,(%edx)
    4b1e:	73 0d                	jae    4b2d <mbh-0x2fb4d3>
    4b20:	00 00                	add    %al,(%eax)
    4b22:	05 69 b2 07 00       	add    $0x7b269,%eax
    4b27:	00 06                	add    %al,(%esi)
    4b29:	20 05 70 53 08 00    	and    %al,0x85370
    4b2f:	00 14 65 64 69 00 05 	add    %dl,0x5006964(,%eiz,2)
    4b36:	72 0c                	jb     4b44 <mbh-0x2fb4bc>
    4b38:	02 00                	add    (%eax),%al
    4b3a:	00 00                	add    %al,(%eax)
    4b3c:	14 65                	adc    $0x65,%al
    4b3e:	73 69                	jae    4ba9 <mbh-0x2fb457>
    4b40:	00 05 73 0c 02 00    	add    %al,0x20c73
    4b46:	00 04 14             	add    %al,(%esp,%edx,1)
    4b49:	65 62 70 00          	bound  %esi,%gs:0x0(%eax)
    4b4d:	05 74 0c 02 00       	add    $0x20c74,%eax
    4b52:	00 08                	add    %cl,(%eax)
    4b54:	14 65                	adc    $0x65,%al
    4b56:	73 70                	jae    4bc8 <mbh-0x2fb438>
    4b58:	00 05 75 0c 02 00    	add    %al,0x20c75
    4b5e:	00 0c 14             	add    %cl,(%esp,%edx,1)
    4b61:	65 62 78 00          	bound  %edi,%gs:0x0(%eax)
    4b65:	05 76 0c 02 00       	add    $0x20c76,%eax
    4b6a:	00 10                	add    %dl,(%eax)
    4b6c:	14 65                	adc    $0x65,%al
    4b6e:	64 78 00             	fs js  4b71 <mbh-0x2fb48f>
    4b71:	05 77 0c 02 00       	add    $0x20c77,%eax
    4b76:	00 14 14             	add    %dl,(%esp,%edx,1)
    4b79:	65 63 78 00          	arpl   %di,%gs:0x0(%eax)
    4b7d:	05 78 0c 02 00       	add    $0x20c78,%eax
    4b82:	00 18                	add    %bl,(%eax)
    4b84:	14 65                	adc    $0x65,%al
    4b86:	61                   	popa   
    4b87:	78 00                	js     4b89 <mbh-0x2fb477>
    4b89:	05 79 0c 02 00       	add    $0x20c79,%eax
    4b8e:	00 1c 00             	add    %bl,(%eax,%eax,1)
    4b91:	08 5f 0b             	or     %bl,0xb(%edi)
    4b94:	00 00                	add    %al,(%eax)
    4b96:	20 05 6e 70 08 00    	and    %al,0x8706e
    4b9c:	00 0b                	add    %cl,(%ebx)
    4b9e:	ea 07 00 00 09 72 61 	ljmp   $0x6172,$0x9000007
    4ba5:	77 00                	ja     4ba7 <mbh-0x2fb459>
    4ba7:	05 7d cf 07 00       	add    $0x7cf7d,%eax
    4bac:	00 00                	add    %al,(%eax)
    4bae:	02 52 0c             	add    0xc(%edx),%dl
    4bb1:	00 00                	add    %al,(%eax)
    4bb3:	05 7f 53 08 00       	add    $0x8537f,%eax
    4bb8:	00 06                	add    %al,(%esi)
    4bba:	08 06                	or     %al,(%esi)
    4bbc:	57                   	push   %edi
    4bbd:	3d 09 00 00 13       	cmp    $0x13000009,%eax
    4bc2:	a1 0e 00 00 06       	mov    0x600000e,%eax
    4bc7:	59                   	pop    %ecx
    4bc8:	5b                   	pop    %ebx
    4bc9:	00 00                	add    %al,(%eax)
    4bcb:	00 08                	add    %cl,(%eax)
    4bcd:	10 30                	adc    %dh,(%eax)
    4bcf:	00 13                	add    %dl,(%ebx)
    4bd1:	15 0e 00 00 06       	adc    $0x600000e,%eax
    4bd6:	5a                   	pop    %edx
    4bd7:	5b                   	pop    %ebx
    4bd8:	00 00                	add    %al,(%eax)
    4bda:	00 08                	add    %cl,(%eax)
    4bdc:	10 20                	adc    %ah,(%eax)
    4bde:	00 13                	add    %dl,(%ebx)
    4be0:	1c 0e                	sbb    $0xe,%al
    4be2:	00 00                	add    %al,(%eax)
    4be4:	06                   	push   %es
    4be5:	5b                   	pop    %ebx
    4be6:	5b                   	pop    %ebx
    4be7:	00 00                	add    %al,(%eax)
    4be9:	00 08                	add    %cl,(%eax)
    4beb:	08 18                	or     %bl,(%eax)
    4bed:	00 13                	add    %dl,(%ebx)
    4bef:	75 04                	jne    4bf5 <mbh-0x2fb40b>
    4bf1:	00 00                	add    %al,(%eax)
    4bf3:	06                   	push   %es
    4bf4:	5c                   	pop    %esp
    4bf5:	5b                   	pop    %ebx
    4bf6:	00 00                	add    %al,(%eax)
    4bf8:	00 08                	add    %cl,(%eax)
    4bfa:	04 14                	add    $0x14,%al
    4bfc:	00 12                	add    %dl,(%edx)
    4bfe:	73 00                	jae    4c00 <mbh-0x2fb400>
    4c00:	06                   	push   %es
    4c01:	5d                   	pop    %ebp
    4c02:	5b                   	pop    %ebx
    4c03:	00 00                	add    %al,(%eax)
    4c05:	00 08                	add    %cl,(%eax)
    4c07:	01 13                	add    %edx,(%ebx)
    4c09:	00 12                	add    %dl,(%edx)
    4c0b:	64 70 6c             	fs jo  4c7a <mbh-0x2fb386>
    4c0e:	00 06                	add    %al,(%esi)
    4c10:	5e                   	pop    %esi
    4c11:	5b                   	pop    %ebx
    4c12:	00 00                	add    %al,(%eax)
    4c14:	00 08                	add    %cl,(%eax)
    4c16:	02 11                	add    (%ecx),%dl
    4c18:	00 12                	add    %dl,(%edx)
    4c1a:	70 00                	jo     4c1c <mbh-0x2fb3e4>
    4c1c:	06                   	push   %es
    4c1d:	5f                   	pop    %edi
    4c1e:	5b                   	pop    %ebx
    4c1f:	00 00                	add    %al,(%eax)
    4c21:	00 08                	add    %cl,(%eax)
    4c23:	01 10                	add    %edx,(%eax)
    4c25:	00 13                	add    %dl,(%ebx)
    4c27:	2a 0e                	sub    (%esi),%cl
    4c29:	00 00                	add    %al,(%eax)
    4c2b:	06                   	push   %es
    4c2c:	60                   	pusha  
    4c2d:	5b                   	pop    %ebx
    4c2e:	00 00                	add    %al,(%eax)
    4c30:	00 08                	add    %cl,(%eax)
    4c32:	04 0c                	add    $0xc,%al
    4c34:	00 12                	add    %dl,(%edx)
    4c36:	61                   	popa   
    4c37:	76 6c                	jbe    4ca5 <mbh-0x2fb35b>
    4c39:	00 06                	add    %al,(%esi)
    4c3b:	61                   	popa   
    4c3c:	5b                   	pop    %ebx
    4c3d:	00 00                	add    %al,(%eax)
    4c3f:	00 08                	add    %cl,(%eax)
    4c41:	01 0b                	add    %ecx,(%ebx)
    4c43:	00 12                	add    %dl,(%edx)
    4c45:	6c                   	insb   (%dx),%es:(%edi)
    4c46:	00 06                	add    %al,(%esi)
    4c48:	62 5b 00             	bound  %ebx,0x0(%ebx)
    4c4b:	00 00                	add    %al,(%eax)
    4c4d:	08 01                	or     %al,(%ecx)
    4c4f:	0a 00                	or     (%eax),%al
    4c51:	12 64 00 06          	adc    0x6(%eax,%eax,1),%ah
    4c55:	63 5b 00             	arpl   %bx,0x0(%ebx)
    4c58:	00 00                	add    %al,(%eax)
    4c5a:	08 01                	or     %al,(%ecx)
    4c5c:	09 00                	or     %eax,(%eax)
    4c5e:	12 67 00             	adc    0x0(%edi),%ah
    4c61:	06                   	push   %es
    4c62:	64 5b                	fs pop %ebx
    4c64:	00 00                	add    %al,(%eax)
    4c66:	00 08                	add    %cl,(%eax)
    4c68:	01 08                	add    %ecx,(%eax)
    4c6a:	00 13                	add    %dl,(%ebx)
    4c6c:	23 0e                	and    (%esi),%ecx
    4c6e:	00 00                	add    %al,(%eax)
    4c70:	06                   	push   %es
    4c71:	65 5b                	gs pop %ebx
    4c73:	00 00                	add    %al,(%eax)
    4c75:	00 08                	add    %cl,(%eax)
    4c77:	08 00                	or     %al,(%eax)
    4c79:	00 00                	add    %al,(%eax)
    4c7b:	08 72 0e             	or     %dh,0xe(%edx)
    4c7e:	00 00                	add    %al,(%eax)
    4c80:	08 06                	or     %al,(%esi)
    4c82:	55                   	push   %ebp
    4c83:	54                   	push   %esp
    4c84:	09 00                	or     %eax,(%eax)
    4c86:	00 0b                	add    %cl,(%ebx)
    4c88:	7b 08                	jnp    4c92 <mbh-0x2fb36e>
    4c8a:	00 00                	add    %al,(%eax)
    4c8c:	0b 09                	or     (%ecx),%ecx
    4c8e:	03 00                	add    (%eax),%eax
    4c90:	00 00                	add    %al,(%eax)
    4c92:	02 67 0e             	add    0xe(%edi),%ah
    4c95:	00 00                	add    %al,(%eax)
    4c97:	06                   	push   %es
    4c98:	6b 3d 09 00 00 10 9f 	imul   $0xffffff9f,0x10000009,%edi
    4c9f:	0b 00                	or     (%eax),%eax
    4ca1:	00 08                	add    %cl,(%eax)
    4ca3:	06                   	push   %es
    4ca4:	b2 8f                	mov    $0x8f,%dl
    4ca6:	09 00                	or     %eax,(%eax)
    4ca8:	00 14 65 73 70 00 06 	add    %dl,0x6007073(,%eiz,2)
    4caf:	b4 49                	mov    $0x49,%ah
    4cb1:	00 00                	add    %al,(%eax)
    4cb3:	00 00                	add    %al,(%eax)
    4cb5:	14 73                	adc    $0x73,%al
    4cb7:	73 00                	jae    4cb9 <mbh-0x2fb347>
    4cb9:	06                   	push   %es
    4cba:	b5 37                	mov    $0x37,%ch
    4cbc:	00 00                	add    %al,(%eax)
    4cbe:	00 04 14             	add    %al,(%esp,%edx,1)
    4cc1:	70 61                	jo     4d24 <mbh-0x2fb2dc>
    4cc3:	64 00 06             	add    %al,%fs:(%esi)
    4cc6:	b6 37                	mov    $0x37,%dh
    4cc8:	00 00                	add    %al,(%eax)
    4cca:	00 06                	add    %al,(%esi)
    4ccc:	00 02                	add    %al,(%edx)
    4cce:	da 0b                	fimull (%ebx)
    4cd0:	00 00                	add    %al,(%eax)
    4cd2:	06                   	push   %es
    4cd3:	b8 5f 09 00 00       	mov    $0x95f,%eax
    4cd8:	15 65 0a 00 00       	adc    $0xa65,%eax
    4cdd:	23 20                	and    (%eax),%esp
    4cdf:	06                   	push   %es
    4ce0:	ba d8 09 00 00       	mov    $0x9d8,%edx
    4ce5:	07                   	pop    %es
    4ce6:	99                   	cltd   
    4ce7:	05 00 00 06 bc       	add    $0xbc060000,%eax
    4cec:	37                   	aaa    
    4ced:	00 00                	add    %al,(%eax)
    4cef:	00 00                	add    %al,(%eax)
    4cf1:	07                   	pop    %es
    4cf2:	76 0c                	jbe    4d00 <mbh-0x2fb300>
    4cf4:	00 00                	add    %al,(%eax)
    4cf6:	06                   	push   %es
    4cf7:	bd d8 09 00 00       	mov    $0x9d8,%ebp
    4cfc:	02 14 69             	add    (%ecx,%ebp,2),%dl
    4cff:	6f                   	outsl  %ds:(%esi),(%dx)
    4d00:	00 06                	add    %al,(%esi)
    4d02:	be e8 09 00 00       	mov    $0x9e8,%esi
    4d07:	22 16                	and    (%esi),%dl
    4d09:	96                   	xchg   %eax,%esi
    4d0a:	0b 00                	or     (%eax),%eax
    4d0c:	00 06                	add    %al,(%esi)
    4d0e:	bf 25 00 00 00       	mov    $0x25,%edi
    4d13:	22 20                	and    (%eax),%ah
    4d15:	00 0c 25 00 00 00 e8 	add    %cl,-0x18000000(,%eiz,1)
    4d1c:	09 00                	or     %eax,(%eax)
    4d1e:	00 0d 54 00 00 00    	add    %cl,0x54
    4d24:	1f                   	pop    %ds
    4d25:	00 0c 25 00 00 00 f9 	add    %cl,-0x7000000(,%eiz,1)
    4d2c:	09 00                	or     %eax,(%eax)
    4d2e:	00 17                	add    %dl,(%edi)
    4d30:	54                   	push   %esp
    4d31:	00 00                	add    %al,(%eax)
    4d33:	00 ff                	add    %bh,%bh
    4d35:	1f                   	pop    %ds
    4d36:	00 02                	add    %al,(%edx)
    4d38:	cf                   	iret   
    4d39:	0b 00                	or     (%eax),%eax
    4d3b:	00 06                	add    %al,(%esi)
    4d3d:	c1 9a 09 00 00 06 02 	rcrl   $0x2,0x6000009(%edx)
    4d44:	06                   	push   %es
    4d45:	c5 2a                	lds    (%edx),%ebp
    4d47:	0a 00                	or     (%eax),%al
    4d49:	00 12                	add    %dl,(%edx)
    4d4b:	6f                   	outsl  %ds:(%esi),(%dx)
    4d4c:	6e                   	outsb  %ds:(%esi),(%dx)
    4d4d:	00 06                	add    %al,(%esi)
    4d4f:	c7                   	(bad)  
    4d50:	37                   	aaa    
    4d51:	00 00                	add    %al,(%eax)
    4d53:	00 02                	add    %al,(%edx)
    4d55:	01 0f                	add    %ecx,(%edi)
    4d57:	00 12                	add    %dl,(%edx)
    4d59:	70 61                	jo     4dbc <mbh-0x2fb244>
    4d5b:	64 00 06             	add    %al,%fs:(%esi)
    4d5e:	c8 37 00 00          	enter  $0x37,$0x0
    4d62:	00 02                	add    %al,(%edx)
    4d64:	0f 00 00             	sldt   (%eax)
    4d67:	00 08                	add    %cl,(%eax)
    4d69:	02 0b                	add    (%ebx),%cl
    4d6b:	00 00                	add    %al,(%eax)
    4d6d:	02 06                	add    (%esi),%al
    4d6f:	c3                   	ret    
    4d70:	47                   	inc    %edi
    4d71:	0a 00                	or     (%eax),%al
    4d73:	00 0b                	add    %cl,(%ebx)
    4d75:	04 0a                	add    $0xa,%al
    4d77:	00 00                	add    %al,(%eax)
    4d79:	09 72 61             	or     %esi,0x61(%edx)
    4d7c:	77 00                	ja     4d7e <mbh-0x2fb282>
    4d7e:	06                   	push   %es
    4d7f:	cc                   	int3   
    4d80:	37                   	aaa    
    4d81:	00 00                	add    %al,(%eax)
    4d83:	00 00                	add    %al,(%eax)
    4d85:	02 d6                	add    %dh,%dl
    4d87:	0c 00                	or     $0x0,%al
    4d89:	00 06                	add    %al,(%esi)
    4d8b:	ce                   	into   
    4d8c:	2a 0a                	sub    (%edx),%cl
    4d8e:	00 00                	add    %al,(%eax)
    4d90:	15 7d 0a 00 00       	adc    $0xa7d,%eax
    4d95:	89 20                	mov    %esp,(%eax)
    4d97:	06                   	push   %es
    4d98:	d3 7d 0b             	sarl   %cl,0xb(%ebp)
    4d9b:	00 00                	add    %al,(%eax)
    4d9d:	07                   	pop    %es
    4d9e:	ec                   	in     (%dx),%al
    4d9f:	0b 00                	or     (%eax),%eax
    4da1:	00 06                	add    %al,(%esi)
    4da3:	d5 37                	aad    $0x37
    4da5:	00 00                	add    %al,(%eax)
    4da7:	00 00                	add    %al,(%eax)
    4da9:	14 72                	adc    $0x72,%al
    4dab:	31 00                	xor    %eax,(%eax)
    4dad:	06                   	push   %es
    4dae:	d5 37                	aad    $0x37
    4db0:	00 00                	add    %al,(%eax)
    4db2:	00 02                	add    %al,(%edx)
    4db4:	14 73                	adc    $0x73,%al
    4db6:	30 00                	xor    %al,(%eax)
    4db8:	06                   	push   %es
    4db9:	d7                   	xlat   %ds:(%ebx)
    4dba:	8f 09 00 00          	(bad)  
    4dbe:	04 14                	add    $0x14,%al
    4dc0:	73 31                	jae    4df3 <mbh-0x2fb20d>
    4dc2:	00 06                	add    %al,(%esi)
    4dc4:	d8 8f 09 00 00 0c    	fmuls  0xc000009(%edi)
    4dca:	14 73                	adc    $0x73,%al
    4dcc:	32 00                	xor    (%eax),%al
    4dce:	06                   	push   %es
    4dcf:	d9 8f 09 00 00 14    	(bad)  0x14000009(%edi)
    4dd5:	14 63                	adc    $0x63,%al
    4dd7:	72 33                	jb     4e0c <mbh-0x2fb1f4>
    4dd9:	00 06                	add    %al,(%esi)
    4ddb:	db 49 00             	fisttpl 0x0(%ecx)
    4dde:	00 00                	add    %al,(%eax)
    4de0:	1c 14                	sbb    $0x14,%al
    4de2:	65 69 70 00 06 dc 49 	imul   $0x49dc06,%gs:0x0(%eax),%esi
    4de9:	00 
    4dea:	00 00                	add    %al,(%eax)
    4dec:	20 07                	and    %al,(%edi)
    4dee:	4b                   	dec    %ebx
    4def:	0c 00                	or     $0x0,%al
    4df1:	00 06                	add    %al,(%esi)
    4df3:	dd 3e                	fnstsw (%esi)
    4df5:	07                   	pop    %es
    4df6:	00 00                	add    %al,(%eax)
    4df8:	24 14                	and    $0x14,%al
    4dfa:	67 70 72             	addr16 jo 4e6f <mbh-0x2fb191>
    4dfd:	00 06                	add    %al,(%esi)
    4dff:	de df                	(bad)  
    4e01:	07                   	pop    %es
    4e02:	00 00                	add    %al,(%eax)
    4e04:	28 14 65 73 00 06 df 	sub    %dl,-0x20f9ff8d(,%eiz,2)
    4e0b:	37                   	aaa    
    4e0c:	00 00                	add    %al,(%eax)
    4e0e:	00 48 14             	add    %cl,0x14(%eax)
    4e11:	72 35                	jb     4e48 <mbh-0x2fb1b8>
    4e13:	00 06                	add    %al,(%esi)
    4e15:	df 37                	fbstp  (%edi)
    4e17:	00 00                	add    %al,(%eax)
    4e19:	00 4a 14             	add    %cl,0x14(%edx)
    4e1c:	63 73 00             	arpl   %si,0x0(%ebx)
    4e1f:	06                   	push   %es
    4e20:	e0 37                	loopne 4e59 <mbh-0x2fb1a7>
    4e22:	00 00                	add    %al,(%eax)
    4e24:	00 4c 14 72          	add    %cl,0x72(%esp,%edx,1)
    4e28:	36 00 06             	add    %al,%ss:(%esi)
    4e2b:	e0 37                	loopne 4e64 <mbh-0x2fb19c>
    4e2d:	00 00                	add    %al,(%eax)
    4e2f:	00 4e 14             	add    %cl,0x14(%esi)
    4e32:	73 73                	jae    4ea7 <mbh-0x2fb159>
    4e34:	00 06                	add    %al,(%esi)
    4e36:	e1 37                	loope  4e6f <mbh-0x2fb191>
    4e38:	00 00                	add    %al,(%eax)
    4e3a:	00 50 14             	add    %dl,0x14(%eax)
    4e3d:	72 37                	jb     4e76 <mbh-0x2fb18a>
    4e3f:	00 06                	add    %al,(%esi)
    4e41:	e1 37                	loope  4e7a <mbh-0x2fb186>
    4e43:	00 00                	add    %al,(%eax)
    4e45:	00 52 14             	add    %dl,0x14(%edx)
    4e48:	64 73 00             	fs jae 4e4b <mbh-0x2fb1b5>
    4e4b:	06                   	push   %es
    4e4c:	e2 37                	loop   4e85 <mbh-0x2fb17b>
    4e4e:	00 00                	add    %al,(%eax)
    4e50:	00 54 14 72          	add    %dl,0x72(%esp,%edx,1)
    4e54:	38 00                	cmp    %al,(%eax)
    4e56:	06                   	push   %es
    4e57:	e2 37                	loop   4e90 <mbh-0x2fb170>
    4e59:	00 00                	add    %al,(%eax)
    4e5b:	00 56 14             	add    %dl,0x14(%esi)
    4e5e:	66 73 00             	data16 jae 4e61 <mbh-0x2fb19f>
    4e61:	06                   	push   %es
    4e62:	e3 37                	jecxz  4e9b <mbh-0x2fb165>
    4e64:	00 00                	add    %al,(%eax)
    4e66:	00 58 14             	add    %bl,0x14(%eax)
    4e69:	72 39                	jb     4ea4 <mbh-0x2fb15c>
    4e6b:	00 06                	add    %al,(%esi)
    4e6d:	e3 37                	jecxz  4ea6 <mbh-0x2fb15a>
    4e6f:	00 00                	add    %al,(%eax)
    4e71:	00 5a 14             	add    %bl,0x14(%edx)
    4e74:	67 73 00             	addr16 jae 4e77 <mbh-0x2fb189>
    4e77:	06                   	push   %es
    4e78:	e4 37                	in     $0x37,%al
    4e7a:	00 00                	add    %al,(%eax)
    4e7c:	00 5c 14 72          	add    %bl,0x72(%esp,%edx,1)
    4e80:	31 30                	xor    %esi,(%eax)
    4e82:	00 06                	add    %al,(%esi)
    4e84:	e4 37                	in     $0x37,%al
    4e86:	00 00                	add    %al,(%eax)
    4e88:	00 5e 14             	add    %bl,0x14(%esi)
    4e8b:	6c                   	insb   (%dx),%es:(%edi)
    4e8c:	64 74 00             	fs je  4e8f <mbh-0x2fb171>
    4e8f:	06                   	push   %es
    4e90:	e5 37                	in     $0x37,%eax
    4e92:	00 00                	add    %al,(%eax)
    4e94:	00 60 14             	add    %ah,0x14(%eax)
    4e97:	72 31                	jb     4eca <mbh-0x2fb136>
    4e99:	31 00                	xor    %eax,(%eax)
    4e9b:	06                   	push   %es
    4e9c:	e5 37                	in     $0x37,%eax
    4e9e:	00 00                	add    %al,(%eax)
    4ea0:	00 62 07             	add    %ah,0x7(%edx)
    4ea3:	15 0b 00 00 06       	adc    $0x600000b,%eax
    4ea8:	e7 47                	out    %eax,$0x47
    4eaa:	0a 00                	or     (%eax),%al
    4eac:	00 64 07 78          	add    %ah,0x78(%edi,%eax,1)
    4eb0:	0a 00                	or     (%eax),%al
    4eb2:	00 06                	add    %al,(%esi)
    4eb4:	e8 f9 09 00 00       	call   58b2 <mbh-0x2fa74e>
    4eb9:	66 00 02             	data16 add %al,(%edx)
    4ebc:	64 0d 00 00 06 ea    	fs or  $0xea060000,%eax
    4ec2:	52                   	push   %edx
    4ec3:	0a 00                	or     (%eax),%al
    4ec5:	00 06                	add    %al,(%esi)
    4ec7:	04 07                	add    $0x7,%al
    4ec9:	44                   	inc    %esp
    4eca:	d9 0b                	(bad)  (%ebx)
    4ecc:	00 00                	add    %al,(%eax)
    4ece:	12 65 78             	adc    0x78(%ebp),%ah
    4ed1:	74 00                	je     4ed3 <mbh-0x2fb12d>
    4ed3:	07                   	pop    %es
    4ed4:	46                   	inc    %esi
    4ed5:	49                   	dec    %ecx
    4ed6:	00 00                	add    %al,(%eax)
    4ed8:	00 04 01             	add    %al,(%ecx,%eax,1)
    4edb:	1f                   	pop    %ds
    4edc:	00 12                	add    %dl,(%edx)
    4ede:	69 64 74 00 07 47 49 	imul   $0x494707,0x0(%esp,%esi,2),%esp
    4ee5:	00 
    4ee6:	00 00                	add    %al,(%eax)
    4ee8:	04 01                	add    $0x1,%al
    4eea:	1e                   	push   %ds
    4eeb:	00 12                	add    %dl,(%edx)
    4eed:	74 69                	je     4f58 <mbh-0x2fb0a8>
    4eef:	00 07                	add    %al,(%edi)
    4ef1:	48                   	dec    %eax
    4ef2:	49                   	dec    %ecx
    4ef3:	00 00                	add    %al,(%eax)
    4ef5:	00 04 01             	add    %al,(%ecx,%eax,1)
    4ef8:	1d 00 12 69 64       	sbb    $0x64691200,%eax
    4efd:	78 00                	js     4eff <mbh-0x2fb101>
    4eff:	07                   	pop    %es
    4f00:	49                   	dec    %ecx
    4f01:	49                   	dec    %ecx
    4f02:	00 00                	add    %al,(%eax)
    4f04:	00 04 0d 10 00 12 72 	add    %al,0x72120010(,%ecx,1)
    4f0b:	00 07                	add    %al,(%edi)
    4f0d:	4a                   	dec    %edx
    4f0e:	49                   	dec    %ecx
    4f0f:	00 00                	add    %al,(%eax)
    4f11:	00 04 10             	add    %al,(%eax,%edx,1)
    4f14:	00 00                	add    %al,(%eax)
    4f16:	00 08                	add    %cl,(%eax)
    4f18:	5c                   	pop    %esp
    4f19:	0c 00                	or     $0x0,%al
    4f1b:	00 04 07             	add    %al,(%edi,%eax,1)
    4f1e:	42                   	inc    %edx
    4f1f:	f0 0b 00             	lock or (%eax),%eax
    4f22:	00 0b                	add    %cl,(%ebx)
    4f24:	88 0b                	mov    %cl,(%ebx)
    4f26:	00 00                	add    %al,(%eax)
    4f28:	0b 0c 02             	or     (%edx,%eax,1),%ecx
    4f2b:	00 00                	add    %al,(%eax)
    4f2d:	00 02                	add    %al,(%edx)
    4f2f:	8f                   	(bad)  
    4f30:	0c 00                	or     $0x0,%al
    4f32:	00 07                	add    %al,(%edi)
    4f34:	50                   	push   %eax
    4f35:	d9 0b                	(bad)  (%ebx)
    4f37:	00 00                	add    %al,(%eax)
    4f39:	06                   	push   %es
    4f3a:	04 07                	add    $0x7,%al
    4f3c:	57                   	push   %edi
    4f3d:	57                   	push   %edi
    4f3e:	0c 00                	or     $0x0,%al
    4f40:	00 12                	add    %dl,(%edx)
    4f42:	70 00                	jo     4f44 <mbh-0x2fb0bc>
    4f44:	07                   	pop    %es
    4f45:	59                   	pop    %ecx
    4f46:	49                   	dec    %ecx
    4f47:	00 00                	add    %al,(%eax)
    4f49:	00 04 01             	add    %al,(%ecx,%eax,1)
    4f4c:	1f                   	pop    %ds
    4f4d:	00 12                	add    %dl,(%edx)
    4f4f:	77 72                	ja     4fc3 <mbh-0x2fb03d>
    4f51:	00 07                	add    %al,(%edi)
    4f53:	5a                   	pop    %edx
    4f54:	49                   	dec    %ecx
    4f55:	00 00                	add    %al,(%eax)
    4f57:	00 04 01             	add    %al,(%ecx,%eax,1)
    4f5a:	1e                   	push   %ds
    4f5b:	00 12                	add    %dl,(%edx)
    4f5d:	75 73                	jne    4fd2 <mbh-0x2fb02e>
    4f5f:	00 07                	add    %al,(%edi)
    4f61:	5b                   	pop    %ebx
    4f62:	49                   	dec    %ecx
    4f63:	00 00                	add    %al,(%eax)
    4f65:	00 04 01             	add    %al,(%ecx,%eax,1)
    4f68:	1d 00 12 72 73       	sbb    $0x73721200,%eax
    4f6d:	76 00                	jbe    4f6f <mbh-0x2fb091>
    4f6f:	07                   	pop    %es
    4f70:	5c                   	pop    %esp
    4f71:	49                   	dec    %ecx
    4f72:	00 00                	add    %al,(%eax)
    4f74:	00 04 01             	add    %al,(%ecx,%eax,1)
    4f77:	1c 00                	sbb    $0x0,%al
    4f79:	12 69 64             	adc    0x64(%ecx),%ch
    4f7c:	00 07                	add    %al,(%edi)
    4f7e:	5d                   	pop    %ebp
    4f7f:	49                   	dec    %ecx
    4f80:	00 00                	add    %al,(%eax)
    4f82:	00 04 01             	add    %al,(%ecx,%eax,1)
    4f85:	1b 00                	sbb    (%eax),%eax
    4f87:	12 72 00             	adc    0x0(%edx),%dh
    4f8a:	07                   	pop    %es
    4f8b:	5e                   	pop    %esi
    4f8c:	49                   	dec    %ecx
    4f8d:	00 00                	add    %al,(%eax)
    4f8f:	00 04 1b             	add    %al,(%ebx,%ebx,1)
    4f92:	00 00                	add    %al,(%eax)
    4f94:	00 08                	add    %cl,(%eax)
    4f96:	cc                   	int3   
    4f97:	0a 00                	or     (%eax),%al
    4f99:	00 04 07             	add    %al,(%edi,%eax,1)
    4f9c:	55                   	push   %ebp
    4f9d:	6e                   	outsb  %ds:(%esi),(%dx)
    4f9e:	0c 00                	or     $0x0,%al
    4fa0:	00 0b                	add    %cl,(%ebx)
    4fa2:	fb                   	sti    
    4fa3:	0b 00                	or     (%eax),%eax
    4fa5:	00 0b                	add    %cl,(%ebx)
    4fa7:	0c 02                	or     $0x2,%al
    4fa9:	00 00                	add    %al,(%eax)
    4fab:	00 02                	add    %al,(%edx)
    4fad:	ef                   	out    %eax,(%dx)
    4fae:	0a 00                	or     (%eax),%al
    4fb0:	00 07                	add    %al,(%edi)
    4fb2:	64 57                	fs push %edi
    4fb4:	0c 00                	or     $0x0,%al
    4fb6:	00 08                	add    %cl,(%eax)
    4fb8:	b8 0b 00 00 04       	mov    $0x400000b,%eax
    4fbd:	07                   	pop    %es
    4fbe:	69 9f 0c 00 00 0b 0c 	imul   $0x20c,0xb00000c(%edi),%ebx
    4fc5:	02 00 00 
    4fc8:	09 73 6c             	or     %esi,0x6c(%ebx)
    4fcb:	00 07                	add    %al,(%edi)
    4fcd:	6d                   	insl   (%dx),%es:(%edi)
    4fce:	f0 0b 00             	lock or (%eax),%eax
    4fd1:	00 09                	add    %cl,(%ecx)
    4fd3:	70 66                	jo     503b <mbh-0x2fafc5>
    4fd5:	00 07                	add    %al,(%edi)
    4fd7:	6e                   	outsb  %ds:(%esi),(%dx)
    4fd8:	6e                   	outsb  %ds:(%esi),(%dx)
    4fd9:	0c 00                	or     $0x0,%al
    4fdb:	00 00                	add    %al,(%eax)
    4fdd:	02 4f 0b             	add    0xb(%edi),%cl
    4fe0:	00 00                	add    %al,(%eax)
    4fe2:	07                   	pop    %es
    4fe3:	70 79                	jo     505e <mbh-0x2fafa2>
    4fe5:	0c 00                	or     $0x0,%al
    4fe7:	00 10                	add    %dl,(%eax)
    4fe9:	0d 0d 00 00 1c       	or     $0x1c00000d,%eax
    4fee:	08 29                	or     %ch,(%ecx)
    4ff0:	08 0d 00 00 14 6e    	or     %cl,0x6e140000
    4ff6:	72 00                	jb     4ff8 <mbh-0x2fb008>
    4ff8:	08 2b                	or     %ch,(%ebx)
    4ffa:	0c 02                	or     $0x2,%al
    4ffc:	00 00                	add    %al,(%eax)
    4ffe:	00 14 65 72 72 00 08 	add    %dl,0x8007272(,%eiz,2)
    5005:	2c 9f                	sub    $0x9f,%al
    5007:	0c 00                	or     $0x0,%al
    5009:	00 04 14             	add    %al,(%esp,%edx,1)
    500c:	65 69 70 00 08 2d 0c 	imul   $0x20c2d08,%gs:0x0(%eax),%esi
    5013:	02 
    5014:	00 00                	add    %al,(%eax)
    5016:	08 14 63             	or     %dl,(%ebx,%eiz,2)
    5019:	73 00                	jae    501b <mbh-0x2fafe5>
    501b:	08 2e                	or     %ch,(%esi)
    501d:	0c 02                	or     $0x2,%al
    501f:	00 00                	add    %al,(%eax)
    5021:	0c 07                	or     $0x7,%al
    5023:	4b                   	dec    %ebx
    5024:	0c 00                	or     $0x0,%al
    5026:	00 08                	add    %cl,(%eax)
    5028:	2f                   	das    
    5029:	3e 07                	ds pop %es
    502b:	00 00                	add    %al,(%eax)
    502d:	10 14 65 73 70 00 08 	adc    %dl,0x8007073(,%eiz,2)
    5034:	32 0c 02             	xor    (%edx,%eax,1),%cl
    5037:	00 00                	add    %al,(%eax)
    5039:	14 14                	adc    $0x14,%al
    503b:	73 73                	jae    50b0 <mbh-0x2faf50>
    503d:	00 08                	add    %cl,(%eax)
    503f:	33 0c 02             	xor    (%edx,%eax,1),%ecx
    5042:	00 00                	add    %al,(%eax)
    5044:	18 00                	sbb    %al,(%eax)
    5046:	02 3c 0c             	add    (%esp,%ecx,1),%bh
    5049:	00 00                	add    %al,(%eax)
    504b:	08 35 aa 0c 00 00    	or     %dh,0xcaa
    5051:	10 19                	adc    %bl,(%ecx)
    5053:	0d 00 00 3c 08       	or     $0x83c0000,%eax
    5058:	38 32                	cmp    %dh,(%edx)
    505a:	0d 00 00 14 67       	or     $0x67140000,%eax
    505f:	70 72                	jo     50d3 <mbh-0x2faf2d>
    5061:	00 08                	add    %cl,(%eax)
    5063:	3a 70 08             	cmp    0x8(%eax),%dh
    5066:	00 00                	add    %al,(%eax)
    5068:	00 0f                	add    %cl,(%edi)
    506a:	08 0d 00 00 20 00    	or     %cl,0x200000
    5070:	02 28                	add    (%eax),%ch
    5072:	0c 00                	or     $0x0,%al
    5074:	00 08                	add    %cl,(%eax)
    5076:	3d 13 0d 00 00       	cmp    $0xd13,%eax
    507b:	05 04 32 0d 00       	add    $0xd3204,%eax
    5080:	00 10                	add    %dl,(%eax)
    5082:	30 0f                	xor    %cl,(%edi)
    5084:	00 00                	add    %al,(%eax)
    5086:	10 09                	adc    %cl,(%ecx)
    5088:	09 80 0d 00 00 14    	or     %eax,0x1400000d(%eax)
    508e:	70 67                	jo     50f7 <mbh-0x2faf09>
    5090:	64 00 09             	add    %cl,%fs:(%ecx)
    5093:	0b 80 0d 00 00 00    	or     0xd(%eax),%eax
    5099:	07                   	pop    %es
    509a:	43                   	inc    %ebx
    509b:	0d 00 00 09 0c       	or     $0xc090000,%eax
    50a0:	86 0d 00 00 04 07    	xchg   %cl,0x7040000
    50a6:	41                   	inc    %ecx
    50a7:	0b 00                	or     (%eax),%eax
    50a9:	00 09                	add    %cl,(%ecx)
    50ab:	0d 31 04 00 00       	or     $0x431,%eax
    50b0:	08 07                	or     %al,(%edi)
    50b2:	f6 0b 00             	testb  $0x0,(%ebx)
    50b5:	00 09                	add    %cl,(%ecx)
    50b7:	0e                   	push   %cs
    50b8:	31 04 00             	xor    %eax,(%eax,%eax,1)
    50bb:	00 0c 00             	add    %cl,(%eax,%eax,1)
    50be:	05 04 cd 05 00       	add    $0x5cd04,%eax
    50c3:	00 05 04 43 0d 00    	add    %al,0xd4304
    50c9:	00 02                	add    %al,(%edx)
    50cb:	3c 0d                	cmp    $0xd,%al
    50cd:	00 00                	add    %al,(%eax)
    50cf:	09 0f                	or     %ecx,(%edi)
    50d1:	43                   	inc    %ebx
    50d2:	0d 00 00 0c 54       	or     $0x540c0000,%eax
    50d7:	09 00                	or     %eax,(%eax)
    50d9:	00 a7 0d 00 00 0d    	add    %ah,0xd00000d(%edi)
    50df:	54                   	push   %esp
    50e0:	00 00                	add    %al,(%eax)
    50e2:	00 05 00 18 47 44    	add    %al,0x44471800
    50e8:	54                   	push   %esp
    50e9:	00 0a                	add    %cl,(%edx)
    50eb:	0e                   	push   %cs
    50ec:	97                   	xchg   %eax,%edi
    50ed:	0d 00 00 18 54       	or     $0x54180000,%eax
    50f2:	53                   	push   %ebx
    50f3:	53                   	push   %ebx
    50f4:	00 0a                	add    %cl,(%edx)
    50f6:	0f 7d                	(bad)  
    50f8:	0b 00                	or     (%eax),%eax
    50fa:	00 19                	add    %bl,(%ecx)
    50fc:	f7 0e 00 00 02 27    	testl  $0x27020000,(%esi)
    5102:	bf 46 30 00 5e       	mov    $0x5e003046,%edi
    5107:	00 00                	add    %al,(%eax)
    5109:	00 01                	add    %al,(%ecx)
    510b:	9c                   	pushf  
    510c:	e1 0d                	loope  511b <mbh-0x2faee5>
    510e:	00 00                	add    %al,(%eax)
    5110:	1a 30                	sbb    (%eax),%dh
    5112:	0f 00 00             	sldt   (%eax)
    5115:	02 27                	add    (%edi),%ah
    5117:	e1 0d                	loope  5126 <mbh-0x2faeda>
    5119:	00 00                	add    %al,(%eax)
    511b:	02 91 00 00 05 04    	add    0x4050000(%ecx),%dl
    5121:	8c 0d 00 00 19 e7    	mov    %cs,0xe7190000
    5127:	0e                   	push   %cs
    5128:	00 00                	add    %al,(%eax)
    512a:	02 0d ec 45 30 00    	add    0x3045ec,%cl
    5130:	d3 00                	roll   %cl,(%eax)
    5132:	00 00                	add    %al,(%eax)
    5134:	01 9c 43 0e 00 00 1a 	add    %ebx,0x1a00000e(%ebx,%eax,2)
    513b:	30 0f                	xor    %cl,(%edi)
    513d:	00 00                	add    %al,(%eax)
    513f:	02 0d e1 0d 00 00    	add    0xde1,%cl
    5145:	02 91 00 1a 41 0b    	add    0xb411a00(%ecx),%dl
    514b:	00 00                	add    %al,(%eax)
    514d:	02 0d 31 04 00 00    	add    0x431,%cl
    5153:	02 91 04 1a 07 0f    	add    0xf071a04(%ecx),%dl
    5159:	00 00                	add    %al,(%eax)
    515b:	02 0d 31 04 00 00    	add    0x431,%cl
    5161:	02 91 08 1b 65 69    	add    0x69651b08(%ecx),%dl
    5167:	70 00                	jo     5169 <mbh-0x2fae97>
    5169:	02 0d 49 00 00 00    	add    0x49,%cl
    516f:	02 91 0c 1c 63 74    	add    0x74631c0c(%ecx),%dl
    5175:	78 00                	js     5177 <mbh-0x2fae89>
    5177:	02 13                	add    (%ebx),%dl
    5179:	3d 0d 00 00 02       	cmp    $0x200000d,%eax
    517e:	91                   	xchg   %eax,%ecx
    517f:	74 00                	je     5181 <mbh-0x2fae7f>
    5181:	1d 15 0f 00 00       	sbb    $0xf15,%eax
    5186:	02 07                	add    (%edi),%al
    5188:	d5 45                	aad    $0x45
    518a:	30 00                	xor    %al,(%eax)
    518c:	17                   	pop    %ss
    518d:	00 00                	add    %al,(%eax)
    518f:	00 01                	add    %al,(%ecx)
    5191:	9c                   	pushf  
    5192:	83 0e 00             	orl    $0x0,(%esi)
    5195:	00 1a                	add    %bl,(%edx)
    5197:	30 0f                	xor    %cl,(%edi)
    5199:	00 00                	add    %al,(%eax)
    519b:	02 07                	add    (%edi),%al
    519d:	e1 0d                	loope  51ac <mbh-0x2fae54>
    519f:	00 00                	add    %al,(%eax)
    51a1:	02 91 00 1a 43 0d    	add    0xd431a00(%ecx),%dl
    51a7:	00 00                	add    %al,(%eax)
    51a9:	02 07                	add    (%edi),%al
    51ab:	e1 0d                	loope  51ba <mbh-0x2fae46>
    51ad:	00 00                	add    %al,(%eax)
    51af:	02 91 04 1b 70 67    	add    0x67701b04(%ecx),%dl
    51b5:	64 00 02             	add    %al,%fs:(%edx)
    51b8:	07                   	pop    %es
    51b9:	80 0d 00 00 02 91 08 	orb    $0x8,0x91020000
    51c0:	00 1e                	add    %bl,(%esi)
    51c2:	1f                   	pop    %ds
    51c3:	0f 00 00             	sldt   (%eax)
    51c6:	01 49 23             	add    %ecx,0x23(%ecx)
    51c9:	04 00                	add    $0x0,%al
    51cb:	00 3f                	add    %bh,(%edi)
    51cd:	45                   	inc    %ebp
    51ce:	30 00                	xor    %al,(%eax)
    51d0:	96                   	xchg   %eax,%esi
    51d1:	00 00                	add    %al,(%eax)
    51d3:	00 01                	add    %al,(%ecx)
    51d5:	9c                   	pushf  
    51d6:	1b 64 73 74          	sbb    0x74(%ebx,%esi,2),%esp
    51da:	00 01                	add    %al,(%ecx)
    51dc:	49                   	dec    %ecx
    51dd:	23 04 00             	and    (%eax,%eax,1),%eax
    51e0:	00 02                	add    %al,(%edx)
    51e2:	91                   	xchg   %eax,%ecx
    51e3:	00 1b                	add    %bl,(%ebx)
    51e5:	73 72                	jae    5259 <mbh-0x2fada7>
    51e7:	63 00                	arpl   %ax,(%eax)
    51e9:	01 49 23             	add    %ecx,0x23(%ecx)
    51ec:	04 00                	add    $0x0,%al
    51ee:	00 02                	add    %al,(%edx)
    51f0:	91                   	xchg   %eax,%ecx
    51f1:	04 1a                	add    $0x1a,%al
    51f3:	c7 04 00 00 01 49 c2 	movl   $0xc2490100,(%eax,%eax,1)
    51fa:	00 00                	add    %al,(%eax)
    51fc:	00 02                	add    %al,(%edx)
    51fe:	91                   	xchg   %eax,%ecx
    51ff:	08 1c 63             	or     %bl,(%ebx,%eiz,2)
    5202:	6e                   	outsb  %ds:(%esi),(%dx)
    5203:	74 00                	je     5205 <mbh-0x2fadfb>
    5205:	01 4b c2             	add    %ecx,-0x3e(%ebx)
    5208:	00 00                	add    %al,(%eax)
    520a:	00 02                	add    %al,(%edx)
    520c:	91                   	xchg   %eax,%ecx
    520d:	6c                   	insb   (%dx),%es:(%edi)
    520e:	1c 72                	sbb    $0x72,%al
    5210:	6d                   	insl   (%dx),%es:(%edi)
    5211:	00 01                	add    %al,(%ecx)
    5213:	4b                   	dec    %ebx
    5214:	c2 00 00             	ret    $0x0
    5217:	00 02                	add    %al,(%edx)
    5219:	91                   	xchg   %eax,%ecx
    521a:	68 1f 02 0f 00       	push   $0xf021f
    521f:	00 01                	add    %al,(%ecx)
    5221:	4c                   	dec    %esp
    5222:	4f                   	dec    %edi
    5223:	04 00                	add    $0x0,%al
    5225:	00 02                	add    %al,(%edx)
    5227:	91                   	xchg   %eax,%ecx
    5228:	60                   	pusha  
    5229:	1f                   	pop    %ds
    522a:	ca 0e 00             	lret   $0xe
    522d:	00 01                	add    %al,(%ecx)
    522f:	4c                   	dec    %esp
    5230:	4f                   	dec    %edi
    5231:	04 00                	add    $0x0,%al
    5233:	00 02                	add    %al,(%edx)
    5235:	91                   	xchg   %eax,%ecx
    5236:	58                   	pop    %eax
    5237:	20 79 45             	and    %bh,0x45(%ecx)
    523a:	30 00                	xor    %al,(%eax)
    523c:	18 00                	sbb    %al,(%eax)
    523e:	00 00                	add    %al,(%eax)
    5240:	15 0f 00 00 1f       	adc    $0x1f00000f,%eax
    5245:	e2 0e                	loop   5255 <mbh-0x2fadab>
    5247:	00 00                	add    %al,(%eax)
    5249:	01 58 3e             	add    %ebx,0x3e(%eax)
    524c:	07                   	pop    %es
    524d:	00 00                	add    %al,(%eax)
    524f:	02 91 54 00 21 b3    	add    -0x4cdeffac(%ecx),%dl
    5255:	45                   	inc    %ebp
    5256:	30 00                	xor    %al,(%eax)
    5258:	18 00                	sbb    %al,(%eax)
    525a:	00 00                	add    %al,(%eax)
    525c:	1f                   	pop    %ds
    525d:	e2 0e                	loop   526d <mbh-0x2fad93>
    525f:	00 00                	add    %al,(%eax)
    5261:	01 5e 3e             	add    %ebx,0x3e(%esi)
    5264:	07                   	pop    %es
    5265:	00 00                	add    %al,(%eax)
    5267:	02 91 50 00 00 00    	add    0x50(%ecx),%dl
    526d:	22 0f                	and    (%edi),%cl
    526f:	00 00                	add    %al,(%eax)
    5271:	04 00                	add    $0x0,%al
    5273:	82 0d 00 00 04 01 2d 	orb    $0x2d,0x1040000
    527a:	01 00                	add    %eax,(%eax)
    527c:	00 0c 26             	add    %cl,(%esi,%eiz,1)
    527f:	0f 00 00             	sldt   (%eax)
    5282:	17                   	pop    %ss
    5283:	00 00                	add    %al,(%eax)
    5285:	00 38                	add    %bh,(%eax)
    5287:	00 00                	add    %al,(%eax)
    5289:	00 00                	add    %al,(%eax)
    528b:	00 00                	add    %al,(%eax)
    528d:	00 6b 09             	add    %ch,0x9(%ebx)
    5290:	00 00                	add    %al,(%eax)
    5292:	02 62 05             	add    0x5(%edx),%ah
    5295:	00 00                	add    %al,(%eax)
    5297:	02 1a                	add    (%edx),%bl
    5299:	30 00                	xor    %al,(%eax)
    529b:	00 00                	add    %al,(%eax)
    529d:	03 01                	add    (%ecx),%eax
    529f:	08 51 03             	or     %dl,0x3(%ecx)
    52a2:	00 00                	add    %al,(%eax)
    52a4:	02 b7 00 00 00 02    	add    0x2000000(%edi),%dh
    52aa:	1b 42 00             	sbb    0x0(%edx),%eax
    52ad:	00 00                	add    %al,(%eax)
    52af:	03 02                	add    (%edx),%eax
    52b1:	07                   	pop    %es
    52b2:	f3 03 00             	repz add (%eax),%eax
    52b5:	00 02                	add    %al,(%edx)
    52b7:	9a 00 00 00 02 1c 54 	lcall  $0x541c,$0x2000000
    52be:	00 00                	add    %al,(%eax)
    52c0:	00 03                	add    %al,(%ebx)
    52c2:	04 07                	add    $0x7,%al
    52c4:	95                   	xchg   %eax,%ebp
    52c5:	03 00                	add    (%eax),%eax
    52c7:	00 02                	add    %al,(%edx)
    52c9:	10 04 00             	adc    %al,(%eax,%eax,1)
    52cc:	00 02                	add    %al,(%edx)
    52ce:	1d 66 00 00 00       	sbb    $0x66,%eax
    52d3:	03 08                	add    (%eax),%ecx
    52d5:	07                   	pop    %es
    52d6:	8b 03                	mov    (%ebx),%eax
    52d8:	00 00                	add    %al,(%eax)
    52da:	03 01                	add    (%ecx),%eax
    52dc:	06                   	push   %es
    52dd:	53                   	push   %ebx
    52de:	03 00                	add    (%eax),%eax
    52e0:	00 02                	add    %al,(%edx)
    52e2:	0a 07                	or     (%edi),%al
    52e4:	00 00                	add    %al,(%eax)
    52e6:	02 20                	add    (%eax),%ah
    52e8:	7f 00                	jg     52ea <mbh-0x2fad16>
    52ea:	00 00                	add    %al,(%eax)
    52ec:	03 02                	add    (%edx),%eax
    52ee:	05 a3 00 00 00       	add    $0xa3,%eax
    52f3:	02 b0 05 00 00 02    	add    0x2000005(%eax),%dh
    52f9:	21 91 00 00 00 04    	and    %edx,0x4000000(%ecx)
    52ff:	04 05                	add    $0x5,%al
    5301:	69 6e 74 00 02 89 06 	imul   $0x6890200,0x74(%esi),%ebp
    5308:	00 00                	add    %al,(%eax)
    530a:	02 22                	add    (%edx),%ah
    530c:	a3 00 00 00 03       	mov    %eax,0x3000000
    5311:	08 05 d8 02 00 00    	or     %al,0x2d8
    5317:	03 01                	add    (%ecx),%eax
    5319:	06                   	push   %es
    531a:	5a                   	pop    %edx
    531b:	03 00                	add    (%eax),%eax
    531d:	00 03                	add    %al,(%ebx)
    531f:	04 07                	add    $0x7,%al
    5321:	90                   	nop
    5322:	03 00                	add    (%eax),%eax
    5324:	00 02                	add    %al,(%edx)
    5326:	6a 07                	push   $0x7
    5328:	00 00                	add    %al,(%eax)
    532a:	02 26                	add    (%esi),%ah
    532c:	b1 00                	mov    $0x0,%cl
    532e:	00 00                	add    %al,(%eax)
    5330:	05 02 02 4c e4       	add    $0xe44c0202,%eax
    5335:	00 00                	add    %al,(%eax)
    5337:	00 06                	add    %al,(%esi)
    5339:	9e                   	sahf   
    533a:	05 00 00 02 4e       	add    $0x4e020000,%eax
    533f:	25 00 00 00 00       	and    $0x0,%eax
    5344:	06                   	push   %es
    5345:	92                   	xchg   %eax,%edx
    5346:	06                   	push   %es
    5347:	00 00                	add    %al,(%eax)
    5349:	02 4f 25             	add    0x25(%edi),%cl
    534c:	00 00                	add    %al,(%eax)
    534e:	00 01                	add    %al,(%ecx)
    5350:	00 07                	add    %al,(%edi)
    5352:	d8 05 00 00 02 02    	fadds  0x2020000
    5358:	45                   	inc    %ebp
    5359:	17                   	pop    %ss
    535a:	01 00                	add    %eax,(%eax)
    535c:	00 08                	add    %cl,(%eax)
    535e:	72 61                	jb     53c1 <mbh-0x2fac3f>
    5360:	77 00                	ja     5362 <mbh-0x2fac9e>
    5362:	02 47 37             	add    0x37(%edi),%al
    5365:	00 00                	add    %al,(%eax)
    5367:	00 09                	add    %cl,(%ecx)
    5369:	f4                   	hlt    
    536a:	06                   	push   %es
    536b:	00 00                	add    %al,(%eax)
    536d:	02 48 74             	add    0x74(%eax),%cl
    5370:	00 00                	add    %al,(%eax)
    5372:	00 09                	add    %cl,(%ecx)
    5374:	64 06                	fs push %es
    5376:	00 00                	add    %al,(%eax)
    5378:	02 49 17             	add    0x17(%ecx),%cl
    537b:	01 00                	add    %eax,(%eax)
    537d:	00 0a                	add    %cl,(%edx)
    537f:	c3                   	ret    
    5380:	00 00                	add    %al,(%eax)
    5382:	00 00                	add    %al,(%eax)
    5384:	0b 25 00 00 00 27    	or     0x27000000,%esp
    538a:	01 00                	add    %eax,(%eax)
    538c:	00 0c 54             	add    %cl,(%esp,%edx,2)
    538f:	00 00                	add    %al,(%eax)
    5391:	00 01                	add    %al,(%ecx)
    5393:	00 02                	add    %al,(%edx)
    5395:	06                   	push   %es
    5396:	06                   	push   %es
    5397:	00 00                	add    %al,(%eax)
    5399:	02 53 e4             	add    -0x1c(%ebx),%dl
    539c:	00 00                	add    %al,(%eax)
    539e:	00 05 04 02 5f 53    	add    %al,0x535f0204
    53a4:	01 00                	add    %eax,(%eax)
    53a6:	00 06                	add    %al,(%esi)
    53a8:	98                   	cwtl   
    53a9:	06                   	push   %es
    53aa:	00 00                	add    %al,(%eax)
    53ac:	02 61 27             	add    0x27(%ecx),%ah
    53af:	01 00                	add    %eax,(%eax)
    53b1:	00 00                	add    %al,(%eax)
    53b3:	06                   	push   %es
    53b4:	b6 07                	mov    $0x7,%dh
    53b6:	00 00                	add    %al,(%eax)
    53b8:	02 62 27             	add    0x27(%edx),%ah
    53bb:	01 00                	add    %eax,(%eax)
    53bd:	00 02                	add    %al,(%edx)
    53bf:	00 05 02 02 6b 74    	add    %al,0x746b0202
    53c5:	01 00                	add    %eax,(%eax)
    53c7:	00 06                	add    %al,(%esi)
    53c9:	9e                   	sahf   
    53ca:	05 00 00 02 6d       	add    $0x6d020000,%eax
    53cf:	25 00 00 00 00       	and    $0x0,%eax
    53d4:	06                   	push   %es
    53d5:	92                   	xchg   %eax,%edx
    53d6:	06                   	push   %es
    53d7:	00 00                	add    %al,(%eax)
    53d9:	02 6e 25             	add    0x25(%esi),%ch
    53dc:	00 00                	add    %al,(%eax)
    53de:	00 01                	add    %al,(%ecx)
    53e0:	00 0d 02 02 69 8d    	add    %cl,0x8d690202
    53e6:	01 00                	add    %eax,(%eax)
    53e8:	00 0a                	add    %cl,(%edx)
    53ea:	53                   	push   %ebx
    53eb:	01 00                	add    %eax,(%eax)
    53ed:	00 09                	add    %cl,(%ecx)
    53ef:	99                   	cltd   
    53f0:	06                   	push   %es
    53f1:	00 00                	add    %al,(%eax)
    53f3:	02 72 37             	add    0x37(%edx),%dh
    53f6:	00 00                	add    %al,(%eax)
    53f8:	00 00                	add    %al,(%eax)
    53fa:	05 04 02 67 a8       	add    $0xa8670204,%eax
    53ff:	01 00                	add    %eax,(%eax)
    5401:	00 0e                	add    %cl,(%esi)
    5403:	74 01                	je     5406 <mbh-0x2fabfa>
    5405:	00 00                	add    %al,(%eax)
    5407:	00 06                	add    %al,(%esi)
    5409:	b7 07                	mov    $0x7,%bh
    540b:	00 00                	add    %al,(%eax)
    540d:	02 76 37             	add    0x37(%esi),%dh
    5410:	00 00                	add    %al,(%eax)
    5412:	00 02                	add    %al,(%edx)
    5414:	00 07                	add    %al,(%edi)
    5416:	ce                   	into   
    5417:	06                   	push   %es
    5418:	00 00                	add    %al,(%eax)
    541a:	04 02                	add    $0x2,%al
    541c:	58                   	pop    %eax
    541d:	e0 01                	loopne 5420 <mbh-0x2fabe0>
    541f:	00 00                	add    %al,(%eax)
    5421:	08 72 61             	or     %dh,0x61(%edx)
    5424:	77 00                	ja     5426 <mbh-0x2fabda>
    5426:	02 5a 49             	add    0x49(%edx),%bl
    5429:	00 00                	add    %al,(%eax)
    542b:	00 09                	add    %cl,(%ecx)
    542d:	f4                   	hlt    
    542e:	06                   	push   %es
    542f:	00 00                	add    %al,(%eax)
    5431:	02 5b 86             	add    -0x7a(%ebx),%bl
    5434:	00 00                	add    %al,(%eax)
    5436:	00 09                	add    %cl,(%ecx)
    5438:	64 06                	fs push %es
    543a:	00 00                	add    %al,(%eax)
    543c:	02 5c e0 01          	add    0x1(%eax,%eiz,8),%bl
    5440:	00 00                	add    %al,(%eax)
    5442:	0a 32                	or     (%edx),%dh
    5444:	01 00                	add    %eax,(%eax)
    5446:	00 0a                	add    %cl,(%edx)
    5448:	8d 01                	lea    (%ecx),%eax
    544a:	00 00                	add    %al,(%eax)
    544c:	00 0b                	add    %cl,(%ebx)
    544e:	25 00 00 00 f0       	and    $0xf0000000,%eax
    5453:	01 00                	add    %eax,(%eax)
    5455:	00 0c 54             	add    %cl,(%esp,%edx,2)
    5458:	00 00                	add    %al,(%eax)
    545a:	00 03                	add    %al,(%ebx)
    545c:	00 02                	add    %al,(%edx)
    545e:	38 07                	cmp    %al,(%edi)
    5460:	00 00                	add    %al,(%eax)
    5462:	02 7a a8             	add    -0x58(%edx),%bh
    5465:	01 00                	add    %eax,(%eax)
    5467:	00 05 08 02 86 1c    	add    %al,0x1c860208
    546d:	02 00                	add    (%eax),%al
    546f:	00 06                	add    %al,(%esi)
    5471:	84 06                	test   %al,(%esi)
    5473:	00 00                	add    %al,(%eax)
    5475:	02 88 f0 01 00 00    	add    0x1f0(%eax),%cl
    547b:	00 06                	add    %al,(%esi)
    547d:	ee                   	out    %al,(%dx)
    547e:	06                   	push   %es
    547f:	00 00                	add    %al,(%eax)
    5481:	02 89 f0 01 00 00    	add    0x1f0(%ecx),%cl
    5487:	04 00                	add    $0x0,%al
    5489:	05 02 02 96 3d       	add    $0x3d960202,%eax
    548e:	02 00                	add    (%eax),%al
    5490:	00 06                	add    %al,(%esi)
    5492:	9e                   	sahf   
    5493:	05 00 00 02 98       	add    $0x98020000,%eax
    5498:	25 00 00 00 00       	and    $0x0,%eax
    549d:	06                   	push   %es
    549e:	92                   	xchg   %eax,%edx
    549f:	06                   	push   %es
    54a0:	00 00                	add    %al,(%eax)
    54a2:	02 99 25 00 00 00    	add    0x25(%ecx),%bl
    54a8:	01 00                	add    %eax,(%eax)
    54aa:	0d 02 02 94 56       	or     $0x56940202,%eax
    54af:	02 00                	add    (%eax),%al
    54b1:	00 0a                	add    %cl,(%edx)
    54b3:	1c 02                	sbb    $0x2,%al
    54b5:	00 00                	add    %al,(%eax)
    54b7:	09 99 06 00 00 02    	or     %ebx,0x2000006(%ecx)
    54bd:	9d                   	popf   
    54be:	37                   	aaa    
    54bf:	00 00                	add    %al,(%eax)
    54c1:	00 00                	add    %al,(%eax)
    54c3:	05 04 02 92 71       	add    $0x71920204,%eax
    54c8:	02 00                	add    (%eax),%al
    54ca:	00 0e                	add    %cl,(%esi)
    54cc:	3d 02 00 00 00       	cmp    $0x2,%eax
    54d1:	06                   	push   %es
    54d2:	b7 07                	mov    $0x7,%bh
    54d4:	00 00                	add    %al,(%eax)
    54d6:	02 a1 37 00 00 00    	add    0x37(%ecx),%ah
    54dc:	02 00                	add    (%eax),%al
    54de:	0d 04 02 90 8a       	or     $0x8a900204,%eax
    54e3:	02 00                	add    (%eax),%al
    54e5:	00 0a                	add    %cl,(%edx)
    54e7:	56                   	push   %esi
    54e8:	02 00                	add    (%eax),%al
    54ea:	00 08                	add    %cl,(%eax)
    54ec:	6c                   	insb   (%dx),%es:(%edi)
    54ed:	6f                   	outsl  %ds:(%esi),(%dx)
    54ee:	77 00                	ja     54f0 <mbh-0x2fab10>
    54f0:	02 a5 49 00 00 00    	add    0x49(%ebp),%ah
    54f6:	00 05 08 02 8e a5    	add    %al,0xa58e0208
    54fc:	02 00                	add    (%eax),%al
    54fe:	00 0e                	add    %cl,(%esi)
    5500:	71 02                	jno    5504 <mbh-0x2faafc>
    5502:	00 00                	add    %al,(%eax)
    5504:	00 06                	add    %al,(%esi)
    5506:	ef                   	out    %eax,(%dx)
    5507:	06                   	push   %es
    5508:	00 00                	add    %al,(%eax)
    550a:	02 a9 49 00 00 00    	add    0x49(%ecx),%ch
    5510:	04 00                	add    $0x0,%al
    5512:	07                   	pop    %es
    5513:	2d 06 00 00 08       	sub    $0x8000006,%eax
    5518:	02 7f dd             	add    -0x23(%edi),%bh
    551b:	02 00                	add    (%eax),%al
    551d:	00 08                	add    %cl,(%eax)
    551f:	72 61                	jb     5582 <mbh-0x2faa7e>
    5521:	77 00                	ja     5523 <mbh-0x2faadd>
    5523:	02 81 5b 00 00 00    	add    0x5b(%ecx),%al
    5529:	09 f4                	or     %esi,%esp
    552b:	06                   	push   %es
    552c:	00 00                	add    %al,(%eax)
    552e:	02 82 98 00 00 00    	add    0x98(%edx),%al
    5534:	09 64 06 00          	or     %esp,0x0(%esi,%eax,1)
    5538:	00 02                	add    %al,(%edx)
    553a:	83 dd 02             	sbb    $0x2,%ebp
    553d:	00 00                	add    %al,(%eax)
    553f:	0a fb                	or     %bl,%bh
    5541:	01 00                	add    %eax,(%eax)
    5543:	00 0a                	add    %cl,(%edx)
    5545:	8a 02                	mov    (%edx),%al
    5547:	00 00                	add    %al,(%eax)
    5549:	00 0b                	add    %cl,(%ebx)
    554b:	25 00 00 00 ed       	and    $0xed000000,%eax
    5550:	02 00                	add    (%eax),%al
    5552:	00 0c 54             	add    %cl,(%esp,%edx,2)
    5555:	00 00                	add    %al,(%eax)
    5557:	00 07                	add    %al,(%edi)
    5559:	00 02                	add    %al,(%edx)
    555b:	cb                   	lret   
    555c:	07                   	pop    %es
    555d:	00 00                	add    %al,(%eax)
    555f:	02 ad a5 02 00 00    	add    0x2a5(%ebp),%ch
    5565:	0f 04                	(bad)  
    5567:	49                   	dec    %ecx
    5568:	00 00                	add    %al,(%eax)
    556a:	00 02                	add    %al,(%edx)
    556c:	58                   	pop    %eax
    556d:	05 00 00 03 60       	add    $0x60030000,%eax
    5572:	30 00                	xor    %al,(%eax)
    5574:	00 00                	add    %al,(%eax)
    5576:	02 ad 00 00 00 03    	add    0x3000000(%ebp),%ch
    557c:	61                   	popa   
    557d:	42                   	inc    %edx
    557e:	00 00                	add    %al,(%eax)
    5580:	00 02                	add    %al,(%edx)
    5582:	90                   	nop
    5583:	00 00                	add    %al,(%eax)
    5585:	00 03                	add    %al,(%ebx)
    5587:	62 54 00 00          	bound  %edx,0x0(%eax,%eax,1)
    558b:	00 02                	add    %al,(%edx)
    558d:	06                   	push   %es
    558e:	04 00                	add    $0x0,%al
    5590:	00 03                	add    %al,(%ebx)
    5592:	63 66 00             	arpl   %sp,0x0(%esi)
    5595:	00 00                	add    %al,(%eax)
    5597:	10 31                	adc    %dh,(%ecx)
    5599:	05 00 00 10 03       	add    $0x3100000,%eax
    559e:	7f 67                	jg     5607 <mbh-0x2fa9f9>
    55a0:	03 00                	add    (%eax),%eax
    55a2:	00 06                	add    %al,(%esi)
    55a4:	aa                   	stos   %al,%es:(%edi)
    55a5:	04 00                	add    $0x0,%al
    55a7:	00 03                	add    %al,(%ebx)
    55a9:	81 14 03 00 00 00 06 	adcl   $0x6000000,(%ebx,%eax,1)
    55b0:	9b                   	fwait
    55b1:	02 00                	add    (%eax),%al
    55b3:	00 03                	add    %al,(%ebx)
    55b5:	82 14 03 00          	adcb   $0x0,(%ebx,%eax,1)
    55b9:	00 04 06             	add    %al,(%esi,%eax,1)
    55bc:	99                   	cltd   
    55bd:	05 00 00 03 83       	add    $0x83030000,%eax
    55c2:	14 03                	adc    $0x3,%al
    55c4:	00 00                	add    %al,(%eax)
    55c6:	08 06                	or     %al,(%esi)
    55c8:	7c 05                	jl     55cf <mbh-0x2faa31>
    55ca:	00 00                	add    %al,(%eax)
    55cc:	03 84 14 03 00 00 0c 	add    0xc000003(%esp,%edx,1),%eax
    55d3:	00 02                	add    %al,(%edx)
    55d5:	7a 04                	jp     55db <mbh-0x2faa25>
    55d7:	00 00                	add    %al,(%eax)
    55d9:	03 86 2a 03 00 00    	add    0x32a(%esi),%eax
    55df:	10 34 04             	adc    %dh,(%esp,%eax,1)
    55e2:	00 00                	add    %al,(%eax)
    55e4:	10 03                	adc    %al,(%ebx)
    55e6:	89 af 03 00 00 11    	mov    %ebp,0x11000003(%edi)
    55ec:	6e                   	outsb  %ds:(%esi),(%dx)
    55ed:	75 6d                	jne    565c <mbh-0x2fa9a4>
    55ef:	00 03                	add    %al,(%ebx)
    55f1:	8b 14 03             	mov    (%ebx,%eax,1),%edx
    55f4:	00 00                	add    %al,(%eax)
    55f6:	00 06                	add    %al,(%esi)
    55f8:	c7 04 00 00 03 8c 14 	movl   $0x148c0300,(%eax,%eax,1)
    55ff:	03 00                	add    (%eax),%eax
    5601:	00 04 06             	add    %al,(%esi,%eax,1)
    5604:	99                   	cltd   
    5605:	05 00 00 03 8d       	add    $0x8d030000,%eax
    560a:	14 03                	adc    $0x3,%al
    560c:	00 00                	add    %al,(%eax)
    560e:	08 06                	or     %al,(%esi)
    5610:	c8 02 00 00          	enter  $0x2,$0x0
    5614:	03 8e 14 03 00 00    	add    0x314(%esi),%ecx
    561a:	0c 00                	or     $0x0,%al
    561c:	02 a3 02 00 00 03    	add    0x3000002(%ebx),%ah
    5622:	90                   	nop
    5623:	72 03                	jb     5628 <mbh-0x2fa9d8>
    5625:	00 00                	add    %al,(%eax)
    5627:	0d 10 03 a5 d9       	or     $0xd9a50310,%eax
    562c:	03 00                	add    (%eax),%eax
    562e:	00 09                	add    %cl,(%ecx)
    5630:	1a 01                	sbb    (%ecx),%al
    5632:	00 00                	add    %al,(%eax)
    5634:	03 a7 67 03 00 00    	add    0x367(%edi),%esp
    563a:	09 70 03             	or     %esi,0x3(%eax)
    563d:	00 00                	add    %al,(%eax)
    563f:	03 a8 af 03 00 00    	add    0x3af(%eax),%ebp
    5645:	00 05 08 03 cf fa    	add    %al,0xfacf0308
    564b:	03 00                	add    (%eax),%eax
    564d:	00 06                	add    %al,(%esi)
    564f:	85 05 00 00 03 d1    	test   %eax,0xd1030000
    5655:	14 03                	adc    $0x3,%al
    5657:	00 00                	add    %al,(%eax)
    5659:	00 06                	add    %al,(%esi)
    565b:	ec                   	in     (%dx),%al
    565c:	02 00                	add    (%eax),%al
    565e:	00 03                	add    %al,(%ebx)
    5660:	d2 09                	rorb   %cl,(%ecx)
    5662:	03 00                	add    (%eax),%eax
    5664:	00 04 00             	add    %al,(%eax,%eax,1)
    5667:	05 06 03 d4 4b       	add    $0x4bd40306,%eax
    566c:	04 00                	add    $0x0,%al
    566e:	00 06                	add    %al,(%esi)
    5670:	c0 00 00             	rolb   $0x0,(%eax)
    5673:	00 03                	add    %al,(%ebx)
    5675:	d6                   	(bad)  
    5676:	fe 02                	incb   (%edx)
    5678:	00 00                	add    %al,(%eax)
    567a:	00 06                	add    %al,(%esi)
    567c:	b2 04                	mov    $0x4,%dl
    567e:	00 00                	add    %al,(%eax)
    5680:	03 d7                	add    %edi,%edx
    5682:	fe 02                	incb   (%edx)
    5684:	00 00                	add    %al,(%eax)
    5686:	01 06                	add    %eax,(%esi)
    5688:	c0 03 00             	rolb   $0x0,(%ebx)
    568b:	00 03                	add    %al,(%ebx)
    568d:	d8 fe                	fdivr  %st(6),%st
    568f:	02 00                	add    (%eax),%al
    5691:	00 02                	add    %al,(%edx)
    5693:	06                   	push   %es
    5694:	f1                   	icebp  
    5695:	04 00                	add    $0x0,%al
    5697:	00 03                	add    %al,(%ebx)
    5699:	d9 fe                	fsin   
    569b:	02 00                	add    (%eax),%al
    569d:	00 03                	add    %al,(%ebx)
    569f:	06                   	push   %es
    56a0:	fa                   	cli    
    56a1:	00 00                	add    %al,(%eax)
    56a3:	00 03                	add    %al,(%ebx)
    56a5:	da fe                	(bad)  
    56a7:	02 00                	add    (%eax),%al
    56a9:	00 04 06             	add    %al,(%esi,%eax,1)
    56ac:	48                   	dec    %eax
    56ad:	00 00                	add    %al,(%eax)
    56af:	00 03                	add    %al,(%ebx)
    56b1:	db fe                	(bad)  
    56b3:	02 00                	add    (%eax),%al
    56b5:	00 05 00 0d 08 03    	add    %al,0x3080d00
    56bb:	cd 5e                	int    $0x5e
    56bd:	04 00                	add    $0x0,%al
    56bf:	00 0a                	add    %cl,(%edx)
    56c1:	d9 03                	flds   (%ebx)
    56c3:	00 00                	add    %al,(%eax)
    56c5:	0a fa                	or     %dl,%bh
    56c7:	03 00                	add    (%eax),%eax
    56c9:	00 00                	add    %al,(%eax)
    56cb:	10 25 04 00 00 78    	adc    %ah,0x78000004
    56d1:	03 92 b3 05 00 00    	add    0x5b3(%edx),%edx
    56d7:	06                   	push   %es
    56d8:	4c                   	dec    %esp
    56d9:	0c 00                	or     $0x0,%al
    56db:	00 03                	add    %al,(%ebx)
    56dd:	95                   	xchg   %eax,%ebp
    56de:	14 03                	adc    $0x3,%al
    56e0:	00 00                	add    %al,(%eax)
    56e2:	00 06                	add    %al,(%esi)
    56e4:	78 03                	js     56e9 <mbh-0x2fa917>
    56e6:	00 00                	add    %al,(%eax)
    56e8:	03 98 14 03 00 00    	add    0x314(%eax),%ebx
    56ee:	04 06                	add    $0x6,%al
    56f0:	da 04 00             	fiaddl (%eax,%eax,1)
    56f3:	00 03                	add    %al,(%ebx)
    56f5:	99                   	cltd   
    56f6:	14 03                	adc    $0x3,%al
    56f8:	00 00                	add    %al,(%eax)
    56fa:	08 06                	or     %al,(%esi)
    56fc:	19 04 00             	sbb    %eax,(%eax,%eax,1)
    56ff:	00 03                	add    %al,(%ebx)
    5701:	9c                   	pushf  
    5702:	14 03                	adc    $0x3,%al
    5704:	00 00                	add    %al,(%eax)
    5706:	0c 06                	or     $0x6,%al
    5708:	f2 00 00             	repnz add %al,(%eax)
    570b:	00 03                	add    %al,(%ebx)
    570d:	9f                   	lahf   
    570e:	14 03                	adc    $0x3,%al
    5710:	00 00                	add    %al,(%eax)
    5712:	10 06                	adc    %al,(%esi)
    5714:	4d                   	dec    %ebp
    5715:	05 00 00 03 a2       	add    $0xa2030000,%eax
    571a:	14 03                	adc    $0x3,%al
    571c:	00 00                	add    %al,(%eax)
    571e:	14 06                	adc    $0x6,%al
    5720:	23 01                	and    (%ecx),%eax
    5722:	00 00                	add    %al,(%eax)
    5724:	03 a3 14 03 00 00    	add    0x314(%ebx),%esp
    572a:	18 11                	sbb    %dl,(%ecx)
    572c:	75 00                	jne    572e <mbh-0x2fa8d2>
    572e:	03 a9 ba 03 00 00    	add    0x3ba(%ecx),%ebp
    5734:	1c 06                	sbb    $0x6,%al
    5736:	b4 03                	mov    $0x3,%ah
    5738:	00 00                	add    %al,(%eax)
    573a:	03 ac 14 03 00 00 2c 	add    0x2c000003(%esp,%edx,1),%ebp
    5741:	06                   	push   %es
    5742:	63 00                	arpl   %ax,(%eax)
    5744:	00 00                	add    %al,(%eax)
    5746:	03 ad 14 03 00 00    	add    0x314(%ebp),%ebp
    574c:	30 06                	xor    %al,(%esi)
    574e:	cc                   	int3   
    574f:	04 00                	add    $0x0,%al
    5751:	00 03                	add    %al,(%ebx)
    5753:	b0 14                	mov    $0x14,%al
    5755:	03 00                	add    (%eax),%eax
    5757:	00 34 06             	add    %dh,(%esi,%eax,1)
    575a:	e6 00                	out    %al,$0x0
    575c:	00 00                	add    %al,(%eax)
    575e:	03 b1 14 03 00 00    	add    0x314(%ecx),%esi
    5764:	38 06                	cmp    %al,(%esi)
    5766:	e4 04                	in     $0x4,%al
    5768:	00 00                	add    %al,(%eax)
    576a:	03 b4 14 03 00 00 3c 	add    0x3c000003(%esp,%edx,1),%esi
    5771:	06                   	push   %es
    5772:	0b 03                	or     (%ebx),%eax
    5774:	00 00                	add    %al,(%eax)
    5776:	03 b7 14 03 00 00    	add    0x314(%edi),%esi
    577c:	40                   	inc    %eax
    577d:	06                   	push   %es
    577e:	ce                   	into   
    577f:	02 00                	add    (%eax),%al
    5781:	00 03                	add    %al,(%ebx)
    5783:	ba 14 03 00 00       	mov    $0x314,%edx
    5788:	44                   	inc    %esp
    5789:	06                   	push   %es
    578a:	5f                   	pop    %edi
    578b:	03 00                	add    (%eax),%eax
    578d:	00 03                	add    %al,(%ebx)
    578f:	bd 14 03 00 00       	mov    $0x314,%ebp
    5794:	48                   	dec    %eax
    5795:	06                   	push   %es
    5796:	43                   	inc    %ebx
    5797:	03 00                	add    (%eax),%eax
    5799:	00 03                	add    %al,(%ebx)
    579b:	be 14 03 00 00       	mov    $0x314,%esi
    57a0:	4c                   	dec    %esp
    57a1:	06                   	push   %es
    57a2:	82 03 00             	addb   $0x0,(%ebx)
    57a5:	00 03                	add    %al,(%ebx)
    57a7:	bf 09 03 00 00       	mov    $0x309,%edi
    57ac:	50                   	push   %eax
    57ad:	06                   	push   %es
    57ae:	6a 05                	push   $0x5
    57b0:	00 00                	add    %al,(%eax)
    57b2:	03 c0                	add    %eax,%eax
    57b4:	09 03                	or     %eax,(%ebx)
    57b6:	00 00                	add    %al,(%eax)
    57b8:	52                   	push   %edx
    57b9:	06                   	push   %es
    57ba:	7e 00                	jle    57bc <mbh-0x2fa844>
    57bc:	00 00                	add    %al,(%eax)
    57be:	03 c1                	add    %ecx,%eax
    57c0:	09 03                	or     %eax,(%ebx)
    57c2:	00 00                	add    %al,(%eax)
    57c4:	54                   	push   %esp
    57c5:	06                   	push   %es
    57c6:	98                   	cwtl   
    57c7:	04 00                	add    $0x0,%al
    57c9:	00 03                	add    %al,(%ebx)
    57cb:	c2 09 03             	ret    $0x309
    57ce:	00 00                	add    %al,(%eax)
    57d0:	56                   	push   %esi
    57d1:	06                   	push   %es
    57d2:	6d                   	insl   (%dx),%es:(%edi)
    57d3:	00 00                	add    %al,(%eax)
    57d5:	00 03                	add    %al,(%ebx)
    57d7:	c4 1f                	les    (%edi),%ebx
    57d9:	03 00                	add    (%eax),%eax
    57db:	00 58 06             	add    %bl,0x6(%eax)
    57de:	57                   	push   %edi
    57df:	04 00                	add    $0x0,%al
    57e1:	00 03                	add    %al,(%ebx)
    57e3:	c5 14 03             	lds    (%ebx,%eax,1),%edx
    57e6:	00 00                	add    %al,(%eax)
    57e8:	60                   	pusha  
    57e9:	06                   	push   %es
    57ea:	a2 03 00 00 03       	mov    %al,0x3000003
    57ef:	c6                   	(bad)  
    57f0:	14 03                	adc    $0x3,%al
    57f2:	00 00                	add    %al,(%eax)
    57f4:	64 06                	fs push %es
    57f6:	1e                   	push   %ds
    57f7:	05 00 00 03 c7       	add    $0xc7030000,%eax
    57fc:	14 03                	adc    $0x3,%al
    57fe:	00 00                	add    %al,(%eax)
    5800:	68 06 33 03 00       	push   $0x33306
    5805:	00 03                	add    %al,(%ebx)
    5807:	c8 fe 02 00          	enter  $0x2fe,$0x0
    580b:	00 6c 06 69          	add    %ch,0x69(%esi,%eax,1)
    580f:	04 00                	add    $0x0,%al
    5811:	00 03                	add    %al,(%ebx)
    5813:	cc                   	int3   
    5814:	fe 02                	incb   (%edx)
    5816:	00 00                	add    %al,(%eax)
    5818:	6d                   	insl   (%dx),%es:(%edi)
    5819:	0e                   	push   %cs
    581a:	4b                   	dec    %ebx
    581b:	04 00                	add    $0x0,%al
    581d:	00 70 00             	add    %dh,0x0(%eax)
    5820:	02 0d 05 00 00 03    	add    0x3000005,%cl
    5826:	df 5e 04             	fistps 0x4(%esi)
    5829:	00 00                	add    %al,(%eax)
    582b:	02 e6                	add    %dh,%ah
    582d:	02 00                	add    (%eax),%al
    582f:	00 04 08             	add    %al,(%eax,%ecx,1)
    5832:	b3 05                	mov    $0x5,%bl
    5834:	00 00                	add    %al,(%eax)
    5836:	10 e1                	adc    %ah,%cl
    5838:	03 00                	add    (%eax),%eax
    583a:	00 04 05 08 e2 05 00 	add    %al,0x5e208(,%eax,1)
    5841:	00 11                	add    %dl,(%ecx)
    5843:	6d                   	insl   (%dx),%es:(%edi)
    5844:	62 69 00             	bound  %ebp,0x0(%ecx)
    5847:	05 0a e2 05 00       	add    $0x5e20a,%eax
    584c:	00 00                	add    %al,(%eax)
    584e:	00 0f                	add    %cl,(%edi)
    5850:	04 be                	add    $0xbe,%al
    5852:	05 00 00 02 17       	add    $0x17020000,%eax
    5857:	05 00 00 05 0c       	add    $0xc050000,%eax
    585c:	c9                   	leave  
    585d:	05 00 00 10 e1       	add    $0xe1100000,%eax
    5862:	0c 00                	or     $0x0,%al
    5864:	00 04 06             	add    %al,(%esi,%eax,1)
    5867:	26 37                	es aaa 
    5869:	07                   	pop    %es
    586a:	00 00                	add    %al,(%eax)
    586c:	12 63 66             	adc    0x66(%ebx),%ah
    586f:	00 06                	add    %al,(%esi)
    5871:	28 49 00             	sub    %cl,0x0(%ecx)
    5874:	00 00                	add    %al,(%eax)
    5876:	04 01                	add    $0x1,%al
    5878:	1f                   	pop    %ds
    5879:	00 12                	add    %dl,(%edx)
    587b:	72 31                	jb     58ae <mbh-0x2fa752>
    587d:	00 06                	add    %al,(%esi)
    587f:	29 49 00             	sub    %ecx,0x0(%ecx)
    5882:	00 00                	add    %al,(%eax)
    5884:	04 01                	add    $0x1,%al
    5886:	1e                   	push   %ds
    5887:	00 12                	add    %dl,(%edx)
    5889:	70 66                	jo     58f1 <mbh-0x2fa70f>
    588b:	00 06                	add    %al,(%esi)
    588d:	2a 49 00             	sub    0x0(%ecx),%cl
    5890:	00 00                	add    %al,(%eax)
    5892:	04 01                	add    $0x1,%al
    5894:	1d 00 12 72 32       	sbb    $0x32721200,%eax
    5899:	00 06                	add    %al,(%esi)
    589b:	2b 49 00             	sub    0x0(%ecx),%ecx
    589e:	00 00                	add    %al,(%eax)
    58a0:	04 01                	add    $0x1,%al
    58a2:	1c 00                	sbb    $0x0,%al
    58a4:	12 61 66             	adc    0x66(%ecx),%ah
    58a7:	00 06                	add    %al,(%esi)
    58a9:	2c 49                	sub    $0x49,%al
    58ab:	00 00                	add    %al,(%eax)
    58ad:	00 04 01             	add    %al,(%ecx,%eax,1)
    58b0:	1b 00                	sbb    (%eax),%eax
    58b2:	12 72 33             	adc    0x33(%edx),%dh
    58b5:	00 06                	add    %al,(%esi)
    58b7:	2d 49 00 00 00       	sub    $0x49,%eax
    58bc:	04 01                	add    $0x1,%al
    58be:	1a 00                	sbb    (%eax),%al
    58c0:	12 7a 66             	adc    0x66(%edx),%bh
    58c3:	00 06                	add    %al,(%esi)
    58c5:	2e 49                	cs dec %ecx
    58c7:	00 00                	add    %al,(%eax)
    58c9:	00 04 01             	add    %al,(%ecx,%eax,1)
    58cc:	19 00                	sbb    %eax,(%eax)
    58ce:	12 73 66             	adc    0x66(%ebx),%dh
    58d1:	00 06                	add    %al,(%esi)
    58d3:	2f                   	das    
    58d4:	49                   	dec    %ecx
    58d5:	00 00                	add    %al,(%eax)
    58d7:	00 04 01             	add    %al,(%ecx,%eax,1)
    58da:	18 00                	sbb    %al,(%eax)
    58dc:	12 74 66 00          	adc    0x0(%esi,%eiz,2),%dh
    58e0:	06                   	push   %es
    58e1:	31 49 00             	xor    %ecx,0x0(%ecx)
    58e4:	00 00                	add    %al,(%eax)
    58e6:	04 01                	add    $0x1,%al
    58e8:	17                   	pop    %ss
    58e9:	00 12                	add    %dl,(%edx)
    58eb:	69 74 00 06 32 49 00 	imul   $0x4932,0x6(%eax,%eax,1),%esi
    58f2:	00 
    58f3:	00 04 01             	add    %al,(%ecx,%eax,1)
    58f6:	16                   	push   %ss
    58f7:	00 12                	add    %dl,(%edx)
    58f9:	64 66 00 06          	data16 add %al,%fs:(%esi)
    58fd:	33 49 00             	xor    0x0(%ecx),%ecx
    5900:	00 00                	add    %al,(%eax)
    5902:	04 01                	add    $0x1,%al
    5904:	15 00 12 6f 66       	adc    $0x666f1200,%eax
    5909:	00 06                	add    %al,(%esi)
    590b:	34 49                	xor    $0x49,%al
    590d:	00 00                	add    %al,(%eax)
    590f:	00 04 01             	add    %al,(%ecx,%eax,1)
    5912:	14 00                	adc    $0x0,%al
    5914:	13 2b                	adc    (%ebx),%ebp
    5916:	0d 00 00 06 35       	or     $0x35060000,%eax
    591b:	49                   	dec    %ecx
    591c:	00 00                	add    %al,(%eax)
    591e:	00 04 02             	add    %al,(%edx,%eax,1)
    5921:	12 00                	adc    (%eax),%al
    5923:	12 6e 74             	adc    0x74(%esi),%ch
    5926:	00 06                	add    %al,(%esi)
    5928:	36 49                	ss dec %ecx
    592a:	00 00                	add    %al,(%eax)
    592c:	00 04 01             	add    %al,(%ecx,%eax,1)
    592f:	11 00                	adc    %eax,(%eax)
    5931:	12 72 34             	adc    0x34(%edx),%dh
    5934:	00 06                	add    %al,(%esi)
    5936:	37                   	aaa    
    5937:	49                   	dec    %ecx
    5938:	00 00                	add    %al,(%eax)
    593a:	00 04 01             	add    %al,(%ecx,%eax,1)
    593d:	10 00                	adc    %al,(%eax)
    593f:	12 72 66             	adc    0x66(%edx),%dh
    5942:	00 06                	add    %al,(%esi)
    5944:	39 49 00             	cmp    %ecx,0x0(%ecx)
    5947:	00 00                	add    %al,(%eax)
    5949:	04 01                	add    $0x1,%al
    594b:	0f 00 12             	lldt   (%edx)
    594e:	76 6d                	jbe    59bd <mbh-0x2fa643>
    5950:	00 06                	add    %al,(%esi)
    5952:	3a 49 00             	cmp    0x0(%ecx),%cl
    5955:	00 00                	add    %al,(%eax)
    5957:	04 01                	add    $0x1,%al
    5959:	0e                   	push   %cs
    595a:	00 12                	add    %dl,(%edx)
    595c:	61                   	popa   
    595d:	63 00                	arpl   %ax,(%eax)
    595f:	06                   	push   %es
    5960:	3b 49 00             	cmp    0x0(%ecx),%ecx
    5963:	00 00                	add    %al,(%eax)
    5965:	04 01                	add    $0x1,%al
    5967:	0d 00 12 76 69       	or     $0x69761200,%eax
    596c:	74 00                	je     596e <mbh-0x2fa692>
    596e:	06                   	push   %es
    596f:	3c 49                	cmp    $0x49,%al
    5971:	00 00                	add    %al,(%eax)
    5973:	00 04 01             	add    %al,(%ecx,%eax,1)
    5976:	0c 00                	or     $0x0,%al
    5978:	12 76 69             	adc    0x69(%esi),%dh
    597b:	70 00                	jo     597d <mbh-0x2fa683>
    597d:	06                   	push   %es
    597e:	3e 49                	ds dec %ecx
    5980:	00 00                	add    %al,(%eax)
    5982:	00 04 01             	add    %al,(%ecx,%eax,1)
    5985:	0b 00                	or     (%eax),%eax
    5987:	12 69 64             	adc    0x64(%ecx),%ch
    598a:	00 06                	add    %al,(%esi)
    598c:	3f                   	aas    
    598d:	49                   	dec    %ecx
    598e:	00 00                	add    %al,(%eax)
    5990:	00 04 01             	add    %al,(%ecx,%eax,1)
    5993:	0a 00                	or     (%eax),%al
    5995:	12 72 35             	adc    0x35(%edx),%dh
    5998:	00 06                	add    %al,(%esi)
    599a:	40                   	inc    %eax
    599b:	49                   	dec    %ecx
    599c:	00 00                	add    %al,(%eax)
    599e:	00 04 0a             	add    %al,(%edx,%ecx,1)
    59a1:	00 00                	add    %al,(%eax)
    59a3:	00 02                	add    %al,(%edx)
    59a5:	7b 0c                	jnp    59b3 <mbh-0x2fa64d>
    59a7:	00 00                	add    %al,(%eax)
    59a9:	06                   	push   %es
    59aa:	42                   	inc    %edx
    59ab:	f3 05 00 00 07 ba    	repz add $0xba070000,%eax
    59b1:	0c 00                	or     $0x0,%al
    59b3:	00 04 06             	add    %al,(%esi,%eax,1)
    59b6:	44                   	inc    %esp
    59b7:	59                   	pop    %ecx
    59b8:	07                   	pop    %es
    59b9:	00 00                	add    %al,(%eax)
    59bb:	0a 37                	or     (%edi),%dh
    59bd:	07                   	pop    %es
    59be:	00 00                	add    %al,(%eax)
    59c0:	0a f0                	or     %al,%dh
    59c2:	01 00                	add    %eax,(%eax)
    59c4:	00 00                	add    %al,(%eax)
    59c6:	02 e2                	add    %dl,%ah
    59c8:	0a 00                	or     (%eax),%al
    59ca:	00 06                	add    %al,(%esi)
    59cc:	49                   	dec    %ecx
    59cd:	42                   	inc    %edx
    59ce:	07                   	pop    %es
    59cf:	00 00                	add    %al,(%eax)
    59d1:	05 20 06 5a cd       	add    $0xcd5a0620,%eax
    59d6:	07                   	pop    %es
    59d7:	00 00                	add    %al,(%eax)
    59d9:	11 65 61             	adc    %esp,0x61(%ebp)
    59dc:	78 00                	js     59de <mbh-0x2fa622>
    59de:	06                   	push   %es
    59df:	5c                   	pop    %esp
    59e0:	f0 01 00             	lock add %eax,(%eax)
    59e3:	00 00                	add    %al,(%eax)
    59e5:	11 65 63             	adc    %esp,0x63(%ebp)
    59e8:	78 00                	js     59ea <mbh-0x2fa616>
    59ea:	06                   	push   %es
    59eb:	5d                   	pop    %ebp
    59ec:	f0 01 00             	lock add %eax,(%eax)
    59ef:	00 04 11             	add    %al,(%ecx,%edx,1)
    59f2:	65 64 78 00          	gs fs js 59f6 <mbh-0x2fa60a>
    59f6:	06                   	push   %es
    59f7:	5e                   	pop    %esi
    59f8:	f0 01 00             	lock add %eax,(%eax)
    59fb:	00 08                	add    %cl,(%eax)
    59fd:	11 65 62             	adc    %esp,0x62(%ebp)
    5a00:	78 00                	js     5a02 <mbh-0x2fa5fe>
    5a02:	06                   	push   %es
    5a03:	5f                   	pop    %edi
    5a04:	f0 01 00             	lock add %eax,(%eax)
    5a07:	00 0c 11             	add    %cl,(%ecx,%edx,1)
    5a0a:	65 73 70             	gs jae 5a7d <mbh-0x2fa583>
    5a0d:	00 06                	add    %al,(%esi)
    5a0f:	60                   	pusha  
    5a10:	f0 01 00             	lock add %eax,(%eax)
    5a13:	00 10                	add    %dl,(%eax)
    5a15:	11 65 62             	adc    %esp,0x62(%ebp)
    5a18:	70 00                	jo     5a1a <mbh-0x2fa5e6>
    5a1a:	06                   	push   %es
    5a1b:	61                   	popa   
    5a1c:	f0 01 00             	lock add %eax,(%eax)
    5a1f:	00 14 11             	add    %dl,(%ecx,%edx,1)
    5a22:	65 73 69             	gs jae 5a8e <mbh-0x2fa572>
    5a25:	00 06                	add    %al,(%esi)
    5a27:	62                   	(bad)  
    5a28:	f0 01 00             	lock add %eax,(%eax)
    5a2b:	00 18                	add    %bl,(%eax)
    5a2d:	11 65 64             	adc    %esp,0x64(%ebp)
    5a30:	69 00 06 63 f0 01    	imul   $0x1f06306,(%eax),%eax
    5a36:	00 00                	add    %al,(%eax)
    5a38:	1c 00                	sbb    $0x0,%al
    5a3a:	07                   	pop    %es
    5a3b:	1a 0b                	sbb    (%ebx),%cl
    5a3d:	00 00                	add    %al,(%eax)
    5a3f:	20 06                	and    %al,(%esi)
    5a41:	58                   	pop    %eax
    5a42:	ea 07 00 00 0a 64 07 	ljmp   $0x764,$0xa000007
    5a49:	00 00                	add    %al,(%eax)
    5a4b:	08 72 61             	or     %dh,0x61(%edx)
    5a4e:	77 00                	ja     5a50 <mbh-0x2fa5b0>
    5a50:	06                   	push   %es
    5a51:	67 ea 07 00 00 00 0b 	addr16 ljmp $0xf00b,$0x7
    5a58:	f0 
    5a59:	01 00                	add    %eax,(%eax)
    5a5b:	00 fa                	add    %bh,%dl
    5a5d:	07                   	pop    %es
    5a5e:	00 00                	add    %al,(%eax)
    5a60:	0c 54                	or     $0x54,%al
    5a62:	00 00                	add    %al,(%eax)
    5a64:	00 07                	add    %al,(%edi)
    5a66:	00 02                	add    %al,(%edx)
    5a68:	73 0d                	jae    5a77 <mbh-0x2fa589>
    5a6a:	00 00                	add    %al,(%eax)
    5a6c:	06                   	push   %es
    5a6d:	69 cd 07 00 00 05    	imul   $0x5000007,%ebp,%ecx
    5a73:	08 07                	or     %al,(%edi)
    5a75:	57                   	push   %edi
    5a76:	c7                   	(bad)  
    5a77:	08 00                	or     %al,(%eax)
    5a79:	00 13                	add    %dl,(%ebx)
    5a7b:	a1 0e 00 00 07       	mov    0x700000e,%eax
    5a80:	59                   	pop    %ecx
    5a81:	5b                   	pop    %ebx
    5a82:	00 00                	add    %al,(%eax)
    5a84:	00 08                	add    %cl,(%eax)
    5a86:	10 30                	adc    %dh,(%eax)
    5a88:	00 13                	add    %dl,(%ebx)
    5a8a:	15 0e 00 00 07       	adc    $0x700000e,%eax
    5a8f:	5a                   	pop    %edx
    5a90:	5b                   	pop    %ebx
    5a91:	00 00                	add    %al,(%eax)
    5a93:	00 08                	add    %cl,(%eax)
    5a95:	10 20                	adc    %ah,(%eax)
    5a97:	00 13                	add    %dl,(%ebx)
    5a99:	1c 0e                	sbb    $0xe,%al
    5a9b:	00 00                	add    %al,(%eax)
    5a9d:	07                   	pop    %es
    5a9e:	5b                   	pop    %ebx
    5a9f:	5b                   	pop    %ebx
    5aa0:	00 00                	add    %al,(%eax)
    5aa2:	00 08                	add    %cl,(%eax)
    5aa4:	08 18                	or     %bl,(%eax)
    5aa6:	00 13                	add    %dl,(%ebx)
    5aa8:	75 04                	jne    5aae <mbh-0x2fa552>
    5aaa:	00 00                	add    %al,(%eax)
    5aac:	07                   	pop    %es
    5aad:	5c                   	pop    %esp
    5aae:	5b                   	pop    %ebx
    5aaf:	00 00                	add    %al,(%eax)
    5ab1:	00 08                	add    %cl,(%eax)
    5ab3:	04 14                	add    $0x14,%al
    5ab5:	00 12                	add    %dl,(%edx)
    5ab7:	73 00                	jae    5ab9 <mbh-0x2fa547>
    5ab9:	07                   	pop    %es
    5aba:	5d                   	pop    %ebp
    5abb:	5b                   	pop    %ebx
    5abc:	00 00                	add    %al,(%eax)
    5abe:	00 08                	add    %cl,(%eax)
    5ac0:	01 13                	add    %edx,(%ebx)
    5ac2:	00 12                	add    %dl,(%edx)
    5ac4:	64 70 6c             	fs jo  5b33 <mbh-0x2fa4cd>
    5ac7:	00 07                	add    %al,(%edi)
    5ac9:	5e                   	pop    %esi
    5aca:	5b                   	pop    %ebx
    5acb:	00 00                	add    %al,(%eax)
    5acd:	00 08                	add    %cl,(%eax)
    5acf:	02 11                	add    (%ecx),%dl
    5ad1:	00 12                	add    %dl,(%edx)
    5ad3:	70 00                	jo     5ad5 <mbh-0x2fa52b>
    5ad5:	07                   	pop    %es
    5ad6:	5f                   	pop    %edi
    5ad7:	5b                   	pop    %ebx
    5ad8:	00 00                	add    %al,(%eax)
    5ada:	00 08                	add    %cl,(%eax)
    5adc:	01 10                	add    %edx,(%eax)
    5ade:	00 13                	add    %dl,(%ebx)
    5ae0:	2a 0e                	sub    (%esi),%cl
    5ae2:	00 00                	add    %al,(%eax)
    5ae4:	07                   	pop    %es
    5ae5:	60                   	pusha  
    5ae6:	5b                   	pop    %ebx
    5ae7:	00 00                	add    %al,(%eax)
    5ae9:	00 08                	add    %cl,(%eax)
    5aeb:	04 0c                	add    $0xc,%al
    5aed:	00 12                	add    %dl,(%edx)
    5aef:	61                   	popa   
    5af0:	76 6c                	jbe    5b5e <mbh-0x2fa4a2>
    5af2:	00 07                	add    %al,(%edi)
    5af4:	61                   	popa   
    5af5:	5b                   	pop    %ebx
    5af6:	00 00                	add    %al,(%eax)
    5af8:	00 08                	add    %cl,(%eax)
    5afa:	01 0b                	add    %ecx,(%ebx)
    5afc:	00 12                	add    %dl,(%edx)
    5afe:	6c                   	insb   (%dx),%es:(%edi)
    5aff:	00 07                	add    %al,(%edi)
    5b01:	62 5b 00             	bound  %ebx,0x0(%ebx)
    5b04:	00 00                	add    %al,(%eax)
    5b06:	08 01                	or     %al,(%ecx)
    5b08:	0a 00                	or     (%eax),%al
    5b0a:	12 64 00 07          	adc    0x7(%eax,%eax,1),%ah
    5b0e:	63 5b 00             	arpl   %bx,0x0(%ebx)
    5b11:	00 00                	add    %al,(%eax)
    5b13:	08 01                	or     %al,(%ecx)
    5b15:	09 00                	or     %eax,(%eax)
    5b17:	12 67 00             	adc    0x0(%edi),%ah
    5b1a:	07                   	pop    %es
    5b1b:	64 5b                	fs pop %ebx
    5b1d:	00 00                	add    %al,(%eax)
    5b1f:	00 08                	add    %cl,(%eax)
    5b21:	01 08                	add    %ecx,(%eax)
    5b23:	00 13                	add    %dl,(%ebx)
    5b25:	23 0e                	and    (%esi),%ecx
    5b27:	00 00                	add    %al,(%eax)
    5b29:	07                   	pop    %es
    5b2a:	65 5b                	gs pop %ebx
    5b2c:	00 00                	add    %al,(%eax)
    5b2e:	00 08                	add    %cl,(%eax)
    5b30:	08 00                	or     %al,(%eax)
    5b32:	00 00                	add    %al,(%eax)
    5b34:	07                   	pop    %es
    5b35:	72 0e                	jb     5b45 <mbh-0x2fa4bb>
    5b37:	00 00                	add    %al,(%eax)
    5b39:	08 07                	or     %al,(%edi)
    5b3b:	55                   	push   %ebp
    5b3c:	de 08                	fimuls (%eax)
    5b3e:	00 00                	add    %al,(%eax)
    5b40:	0a 05 08 00 00 0a    	or     0xa000008,%al
    5b46:	ed                   	in     (%dx),%eax
    5b47:	02 00                	add    (%eax),%al
    5b49:	00 00                	add    %al,(%eax)
    5b4b:	02 67 0e             	add    0xe(%edi),%ah
    5b4e:	00 00                	add    %al,(%eax)
    5b50:	07                   	pop    %es
    5b51:	6b c7 08             	imul   $0x8,%edi,%eax
    5b54:	00 00                	add    %al,(%eax)
    5b56:	05 08 07 8f 77       	add    $0x778f0708,%eax
    5b5b:	09 00                	or     %eax,(%eax)
    5b5d:	00 13                	add    %dl,(%ebx)
    5b5f:	98                   	cwtl   
    5b60:	0c 00                	or     $0x0,%al
    5b62:	00 07                	add    %al,(%edi)
    5b64:	91                   	xchg   %eax,%ecx
    5b65:	5b                   	pop    %ebx
    5b66:	00 00                	add    %al,(%eax)
    5b68:	00 08                	add    %cl,(%eax)
    5b6a:	10 30                	adc    %dh,(%eax)
    5b6c:	00 13                	add    %dl,(%ebx)
    5b6e:	4d                   	dec    %ebp
    5b6f:	0d 00 00 07 92       	or     $0x92070000,%eax
    5b74:	5b                   	pop    %ebx
    5b75:	00 00                	add    %al,(%eax)
    5b77:	00 08                	add    %cl,(%eax)
    5b79:	10 20                	adc    %ah,(%eax)
    5b7b:	00 12                	add    %dl,(%edx)
    5b7d:	69 73 74 00 07 93 5b 	imul   $0x5b930700,0x74(%ebx),%esi
    5b84:	00 00                	add    %al,(%eax)
    5b86:	00 08                	add    %cl,(%eax)
    5b88:	03 1d 00 13 56 0d    	add    0xd561300,%ebx
    5b8e:	00 00                	add    %al,(%eax)
    5b90:	07                   	pop    %es
    5b91:	94                   	xchg   %eax,%esp
    5b92:	5b                   	pop    %ebx
    5b93:	00 00                	add    %al,(%eax)
    5b95:	00 08                	add    %cl,(%eax)
    5b97:	05 18 00 13 75       	add    $0x75130018,%eax
    5b9c:	04 00                	add    $0x0,%al
    5b9e:	00 07                	add    %al,(%edi)
    5ba0:	95                   	xchg   %eax,%ebp
    5ba1:	5b                   	pop    %ebx
    5ba2:	00 00                	add    %al,(%eax)
    5ba4:	00 08                	add    %cl,(%eax)
    5ba6:	04 14                	add    $0x14,%al
    5ba8:	00 13                	add    %dl,(%ebx)
    5baa:	5d                   	pop    %ebp
    5bab:	0d 00 00 07 96       	or     $0x96070000,%eax
    5bb0:	5b                   	pop    %ebx
    5bb1:	00 00                	add    %al,(%eax)
    5bb3:	00 08                	add    %cl,(%eax)
    5bb5:	01 13                	add    %edx,(%ebx)
    5bb7:	00 12                	add    %dl,(%edx)
    5bb9:	64 70 6c             	fs jo  5c28 <mbh-0x2fa3d8>
    5bbc:	00 07                	add    %al,(%edi)
    5bbe:	97                   	xchg   %eax,%edi
    5bbf:	5b                   	pop    %ebx
    5bc0:	00 00                	add    %al,(%eax)
    5bc2:	00 08                	add    %cl,(%eax)
    5bc4:	02 11                	add    (%ecx),%dl
    5bc6:	00 12                	add    %dl,(%edx)
    5bc8:	70 00                	jo     5bca <mbh-0x2fa436>
    5bca:	07                   	pop    %es
    5bcb:	98                   	cwtl   
    5bcc:	5b                   	pop    %ebx
    5bcd:	00 00                	add    %al,(%eax)
    5bcf:	00 08                	add    %cl,(%eax)
    5bd1:	01 10                	add    %edx,(%eax)
    5bd3:	00 13                	add    %dl,(%ebx)
    5bd5:	a1 0c 00 00 07       	mov    0x700000c,%eax
    5bda:	99                   	cltd   
    5bdb:	5b                   	pop    %ebx
    5bdc:	00 00                	add    %al,(%eax)
    5bde:	00 08                	add    %cl,(%eax)
    5be0:	10 00                	adc    %al,(%eax)
    5be2:	00 00                	add    %al,(%eax)
    5be4:	07                   	pop    %es
    5be5:	81 0b 00 00 08 07    	orl    $0x7080000,(%ebx)
    5beb:	8d 8e 09 00 00 0a    	lea    0xa000009(%esi),%ecx
    5bf1:	e9 08 00 00 0a       	jmp    a005bfe <user2+0x9805bfe>
    5bf6:	ed                   	in     (%dx),%eax
    5bf7:	02 00                	add    (%eax),%al
    5bf9:	00 00                	add    %al,(%eax)
    5bfb:	02 aa 0c 00 00 07    	add    0x700000c(%edx),%ch
    5c01:	9f                   	lahf   
    5c02:	77 09                	ja     5c0d <mbh-0x2fa3f3>
    5c04:	00 00                	add    %al,(%eax)
    5c06:	0d 04 07 a7 b8       	or     $0xb8a70704,%eax
    5c0b:	09 00                	or     %eax,(%eax)
    5c0d:	00 09                	add    %cl,(%ecx)
    5c0f:	99                   	cltd   
    5c10:	05 00 00 07 a9       	add    $0xa9070000,%eax
    5c15:	b8 00 00 00 09       	mov    $0x9000000,%eax
    5c1a:	46                   	inc    %esi
    5c1b:	0c 00                	or     $0x0,%al
    5c1d:	00 07                	add    %al,(%edi)
    5c1f:	aa                   	stos   %al,%es:(%edi)
    5c20:	b8 09 00 00 00       	mov    $0x9,%eax
    5c25:	0f 04                	(bad)  
    5c27:	8e 09                	mov    (%ecx),%cs
    5c29:	00 00                	add    %al,(%eax)
    5c2b:	10 04 0c             	adc    %al,(%esp,%ecx,1)
    5c2e:	00 00                	add    %al,(%eax)
    5c30:	06                   	push   %es
    5c31:	07                   	pop    %es
    5c32:	a4                   	movsb  %ds:(%esi),%es:(%edi)
    5c33:	dd 09                	fisttpll (%ecx)
    5c35:	00 00                	add    %al,(%eax)
    5c37:	06                   	push   %es
    5c38:	e6 0b                	out    %al,$0xb
    5c3a:	00 00                	add    %al,(%eax)
    5c3c:	07                   	pop    %es
    5c3d:	a6                   	cmpsb  %es:(%edi),%ds:(%esi)
    5c3e:	37                   	aaa    
    5c3f:	00 00                	add    %al,(%eax)
    5c41:	00 00                	add    %al,(%eax)
    5c43:	0e                   	push   %cs
    5c44:	99                   	cltd   
    5c45:	09 00                	or     %eax,(%eax)
    5c47:	00 02                	add    %al,(%edx)
    5c49:	00 02                	add    %al,(%edx)
    5c4b:	90                   	nop
    5c4c:	0a 00                	or     (%eax),%al
    5c4e:	00 07                	add    %al,(%edi)
    5c50:	ad                   	lods   %ds:(%esi),%eax
    5c51:	be 09 00 00 10       	mov    $0x10000009,%esi
    5c56:	9f                   	lahf   
    5c57:	0b 00                	or     (%eax),%eax
    5c59:	00 08                	add    %cl,(%eax)
    5c5b:	07                   	pop    %es
    5c5c:	b2 18                	mov    $0x18,%dl
    5c5e:	0a 00                	or     (%eax),%al
    5c60:	00 11                	add    %dl,(%ecx)
    5c62:	65 73 70             	gs jae 5cd5 <mbh-0x2fa32b>
    5c65:	00 07                	add    %al,(%edi)
    5c67:	b4 49                	mov    $0x49,%ah
    5c69:	00 00                	add    %al,(%eax)
    5c6b:	00 00                	add    %al,(%eax)
    5c6d:	11 73 73             	adc    %esi,0x73(%ebx)
    5c70:	00 07                	add    %al,(%edi)
    5c72:	b5 37                	mov    $0x37,%ch
    5c74:	00 00                	add    %al,(%eax)
    5c76:	00 04 11             	add    %al,(%ecx,%edx,1)
    5c79:	70 61                	jo     5cdc <mbh-0x2fa324>
    5c7b:	64 00 07             	add    %al,%fs:(%edi)
    5c7e:	b6 37                	mov    $0x37,%dh
    5c80:	00 00                	add    %al,(%eax)
    5c82:	00 06                	add    %al,(%esi)
    5c84:	00 02                	add    %al,(%edx)
    5c86:	da 0b                	fimull (%ebx)
    5c88:	00 00                	add    %al,(%eax)
    5c8a:	07                   	pop    %es
    5c8b:	b8 e8 09 00 00       	mov    $0x9e8,%eax
    5c90:	14 65                	adc    $0x65,%al
    5c92:	0a 00                	or     (%eax),%al
    5c94:	00 23                	add    %ah,(%ebx)
    5c96:	20 07                	and    %al,(%edi)
    5c98:	ba 61 0a 00 00       	mov    $0xa61,%edx
    5c9d:	06                   	push   %es
    5c9e:	99                   	cltd   
    5c9f:	05 00 00 07 bc       	add    $0xbc070000,%eax
    5ca4:	37                   	aaa    
    5ca5:	00 00                	add    %al,(%eax)
    5ca7:	00 00                	add    %al,(%eax)
    5ca9:	06                   	push   %es
    5caa:	76 0c                	jbe    5cb8 <mbh-0x2fa348>
    5cac:	00 00                	add    %al,(%eax)
    5cae:	07                   	pop    %es
    5caf:	bd 61 0a 00 00       	mov    $0xa61,%ebp
    5cb4:	02 11                	add    (%ecx),%dl
    5cb6:	69 6f 00 07 be 71 0a 	imul   $0xa71be07,0x0(%edi),%ebp
    5cbd:	00 00                	add    %al,(%eax)
    5cbf:	22 15 96 0b 00 00    	and    0xb96,%dl
    5cc5:	07                   	pop    %es
    5cc6:	bf 25 00 00 00       	mov    $0x25,%edi
    5ccb:	22 20                	and    (%eax),%ah
    5ccd:	00 0b                	add    %cl,(%ebx)
    5ccf:	25 00 00 00 71       	and    $0x71000000,%eax
    5cd4:	0a 00                	or     (%eax),%al
    5cd6:	00 0c 54             	add    %cl,(%esp,%edx,2)
    5cd9:	00 00                	add    %al,(%eax)
    5cdb:	00 1f                	add    %bl,(%edi)
    5cdd:	00 0b                	add    %cl,(%ebx)
    5cdf:	25 00 00 00 82       	and    $0x82000000,%eax
    5ce4:	0a 00                	or     (%eax),%al
    5ce6:	00 16                	add    %dl,(%esi)
    5ce8:	54                   	push   %esp
    5ce9:	00 00                	add    %al,(%eax)
    5ceb:	00 ff                	add    %bh,%bh
    5ced:	1f                   	pop    %ds
    5cee:	00 02                	add    %al,(%edx)
    5cf0:	cf                   	iret   
    5cf1:	0b 00                	or     (%eax),%eax
    5cf3:	00 07                	add    %al,(%edi)
    5cf5:	c1 23 0a             	shll   $0xa,(%ebx)
    5cf8:	00 00                	add    %al,(%eax)
    5cfa:	05 02 07 c5 b3       	add    $0xb3c50702,%eax
    5cff:	0a 00                	or     (%eax),%al
    5d01:	00 12                	add    %dl,(%edx)
    5d03:	6f                   	outsl  %ds:(%esi),(%dx)
    5d04:	6e                   	outsb  %ds:(%esi),(%dx)
    5d05:	00 07                	add    %al,(%edi)
    5d07:	c7                   	(bad)  
    5d08:	37                   	aaa    
    5d09:	00 00                	add    %al,(%eax)
    5d0b:	00 02                	add    %al,(%edx)
    5d0d:	01 0f                	add    %ecx,(%edi)
    5d0f:	00 12                	add    %dl,(%edx)
    5d11:	70 61                	jo     5d74 <mbh-0x2fa28c>
    5d13:	64 00 07             	add    %al,%fs:(%edi)
    5d16:	c8 37 00 00          	enter  $0x37,$0x0
    5d1a:	00 02                	add    %al,(%edx)
    5d1c:	0f 00 00             	sldt   (%eax)
    5d1f:	00 07                	add    %al,(%edi)
    5d21:	02 0b                	add    (%ebx),%cl
    5d23:	00 00                	add    %al,(%eax)
    5d25:	02 07                	add    (%edi),%al
    5d27:	c3                   	ret    
    5d28:	d0 0a                	rorb   (%edx)
    5d2a:	00 00                	add    %al,(%eax)
    5d2c:	0a 8d 0a 00 00 08    	or     0x800000a(%ebp),%cl
    5d32:	72 61                	jb     5d95 <mbh-0x2fa26b>
    5d34:	77 00                	ja     5d36 <mbh-0x2fa2ca>
    5d36:	07                   	pop    %es
    5d37:	cc                   	int3   
    5d38:	37                   	aaa    
    5d39:	00 00                	add    %al,(%eax)
    5d3b:	00 00                	add    %al,(%eax)
    5d3d:	02 d6                	add    %dh,%dl
    5d3f:	0c 00                	or     $0x0,%al
    5d41:	00 07                	add    %al,(%edi)
    5d43:	ce                   	into   
    5d44:	b3 0a                	mov    $0xa,%bl
    5d46:	00 00                	add    %al,(%eax)
    5d48:	14 7d                	adc    $0x7d,%al
    5d4a:	0a 00                	or     (%eax),%al
    5d4c:	00 89 20 07 d3 06    	add    %cl,0x6d30720(%ecx)
    5d52:	0c 00                	or     $0x0,%al
    5d54:	00 06                	add    %al,(%esi)
    5d56:	ec                   	in     (%dx),%al
    5d57:	0b 00                	or     (%eax),%eax
    5d59:	00 07                	add    %al,(%edi)
    5d5b:	d5 37                	aad    $0x37
    5d5d:	00 00                	add    %al,(%eax)
    5d5f:	00 00                	add    %al,(%eax)
    5d61:	11 72 31             	adc    %esi,0x31(%edx)
    5d64:	00 07                	add    %al,(%edi)
    5d66:	d5 37                	aad    $0x37
    5d68:	00 00                	add    %al,(%eax)
    5d6a:	00 02                	add    %al,(%edx)
    5d6c:	11 73 30             	adc    %esi,0x30(%ebx)
    5d6f:	00 07                	add    %al,(%edi)
    5d71:	d7                   	xlat   %ds:(%ebx)
    5d72:	18 0a                	sbb    %cl,(%edx)
    5d74:	00 00                	add    %al,(%eax)
    5d76:	04 11                	add    $0x11,%al
    5d78:	73 31                	jae    5dab <mbh-0x2fa255>
    5d7a:	00 07                	add    %al,(%edi)
    5d7c:	d8 18                	fcomps (%eax)
    5d7e:	0a 00                	or     (%eax),%al
    5d80:	00 0c 11             	add    %cl,(%ecx,%edx,1)
    5d83:	73 32                	jae    5db7 <mbh-0x2fa249>
    5d85:	00 07                	add    %al,(%edi)
    5d87:	d9 18                	fstps  (%eax)
    5d89:	0a 00                	or     (%eax),%al
    5d8b:	00 14 11             	add    %dl,(%ecx,%edx,1)
    5d8e:	63 72 33             	arpl   %si,0x33(%edx)
    5d91:	00 07                	add    %al,(%edi)
    5d93:	db 49 00             	fisttpl 0x0(%ecx)
    5d96:	00 00                	add    %al,(%eax)
    5d98:	1c 11                	sbb    $0x11,%al
    5d9a:	65 69 70 00 07 dc 49 	imul   $0x49dc07,%gs:0x0(%eax),%esi
    5da1:	00 
    5da2:	00 00                	add    %al,(%eax)
    5da4:	20 06                	and    %al,(%esi)
    5da6:	4b                   	dec    %ebx
    5da7:	0c 00                	or     $0x0,%al
    5da9:	00 07                	add    %al,(%edi)
    5dab:	dd 59 07             	fstpl  0x7(%ecx)
    5dae:	00 00                	add    %al,(%eax)
    5db0:	24 11                	and    $0x11,%al
    5db2:	67 70 72             	addr16 jo 5e27 <mbh-0x2fa1d9>
    5db5:	00 07                	add    %al,(%edi)
    5db7:	de fa                	fdivrp %st,%st(2)
    5db9:	07                   	pop    %es
    5dba:	00 00                	add    %al,(%eax)
    5dbc:	28 11                	sub    %dl,(%ecx)
    5dbe:	65 73 00             	gs jae 5dc1 <mbh-0x2fa23f>
    5dc1:	07                   	pop    %es
    5dc2:	df 37                	fbstp  (%edi)
    5dc4:	00 00                	add    %al,(%eax)
    5dc6:	00 48 11             	add    %cl,0x11(%eax)
    5dc9:	72 35                	jb     5e00 <mbh-0x2fa200>
    5dcb:	00 07                	add    %al,(%edi)
    5dcd:	df 37                	fbstp  (%edi)
    5dcf:	00 00                	add    %al,(%eax)
    5dd1:	00 4a 11             	add    %cl,0x11(%edx)
    5dd4:	63 73 00             	arpl   %si,0x0(%ebx)
    5dd7:	07                   	pop    %es
    5dd8:	e0 37                	loopne 5e11 <mbh-0x2fa1ef>
    5dda:	00 00                	add    %al,(%eax)
    5ddc:	00 4c 11 72          	add    %cl,0x72(%ecx,%edx,1)
    5de0:	36 00 07             	add    %al,%ss:(%edi)
    5de3:	e0 37                	loopne 5e1c <mbh-0x2fa1e4>
    5de5:	00 00                	add    %al,(%eax)
    5de7:	00 4e 11             	add    %cl,0x11(%esi)
    5dea:	73 73                	jae    5e5f <mbh-0x2fa1a1>
    5dec:	00 07                	add    %al,(%edi)
    5dee:	e1 37                	loope  5e27 <mbh-0x2fa1d9>
    5df0:	00 00                	add    %al,(%eax)
    5df2:	00 50 11             	add    %dl,0x11(%eax)
    5df5:	72 37                	jb     5e2e <mbh-0x2fa1d2>
    5df7:	00 07                	add    %al,(%edi)
    5df9:	e1 37                	loope  5e32 <mbh-0x2fa1ce>
    5dfb:	00 00                	add    %al,(%eax)
    5dfd:	00 52 11             	add    %dl,0x11(%edx)
    5e00:	64 73 00             	fs jae 5e03 <mbh-0x2fa1fd>
    5e03:	07                   	pop    %es
    5e04:	e2 37                	loop   5e3d <mbh-0x2fa1c3>
    5e06:	00 00                	add    %al,(%eax)
    5e08:	00 54 11 72          	add    %dl,0x72(%ecx,%edx,1)
    5e0c:	38 00                	cmp    %al,(%eax)
    5e0e:	07                   	pop    %es
    5e0f:	e2 37                	loop   5e48 <mbh-0x2fa1b8>
    5e11:	00 00                	add    %al,(%eax)
    5e13:	00 56 11             	add    %dl,0x11(%esi)
    5e16:	66 73 00             	data16 jae 5e19 <mbh-0x2fa1e7>
    5e19:	07                   	pop    %es
    5e1a:	e3 37                	jecxz  5e53 <mbh-0x2fa1ad>
    5e1c:	00 00                	add    %al,(%eax)
    5e1e:	00 58 11             	add    %bl,0x11(%eax)
    5e21:	72 39                	jb     5e5c <mbh-0x2fa1a4>
    5e23:	00 07                	add    %al,(%edi)
    5e25:	e3 37                	jecxz  5e5e <mbh-0x2fa1a2>
    5e27:	00 00                	add    %al,(%eax)
    5e29:	00 5a 11             	add    %bl,0x11(%edx)
    5e2c:	67 73 00             	addr16 jae 5e2f <mbh-0x2fa1d1>
    5e2f:	07                   	pop    %es
    5e30:	e4 37                	in     $0x37,%al
    5e32:	00 00                	add    %al,(%eax)
    5e34:	00 5c 11 72          	add    %bl,0x72(%ecx,%edx,1)
    5e38:	31 30                	xor    %esi,(%eax)
    5e3a:	00 07                	add    %al,(%edi)
    5e3c:	e4 37                	in     $0x37,%al
    5e3e:	00 00                	add    %al,(%eax)
    5e40:	00 5e 11             	add    %bl,0x11(%esi)
    5e43:	6c                   	insb   (%dx),%es:(%edi)
    5e44:	64 74 00             	fs je  5e47 <mbh-0x2fa1b9>
    5e47:	07                   	pop    %es
    5e48:	e5 37                	in     $0x37,%eax
    5e4a:	00 00                	add    %al,(%eax)
    5e4c:	00 60 11             	add    %ah,0x11(%eax)
    5e4f:	72 31                	jb     5e82 <mbh-0x2fa17e>
    5e51:	31 00                	xor    %eax,(%eax)
    5e53:	07                   	pop    %es
    5e54:	e5 37                	in     $0x37,%eax
    5e56:	00 00                	add    %al,(%eax)
    5e58:	00 62 06             	add    %ah,0x6(%edx)
    5e5b:	15 0b 00 00 07       	adc    $0x700000b,%eax
    5e60:	e7 d0                	out    %eax,$0xd0
    5e62:	0a 00                	or     (%eax),%al
    5e64:	00 64 06 78          	add    %ah,0x78(%esi,%eax,1)
    5e68:	0a 00                	or     (%eax),%al
    5e6a:	00 07                	add    %al,(%edi)
    5e6c:	e8 82 0a 00 00       	call   68f3 <mbh-0x2f970d>
    5e71:	66 00 02             	data16 add %al,(%edx)
    5e74:	64 0d 00 00 07 ea    	fs or  $0xea070000,%eax
    5e7a:	db 0a                	fisttpl (%edx)
    5e7c:	00 00                	add    %al,(%eax)
    5e7e:	0b de                	or     %esi,%ebx
    5e80:	08 00                	or     %al,(%eax)
    5e82:	00 21                	add    %ah,(%ecx)
    5e84:	0c 00                	or     $0x0,%al
    5e86:	00 0c 54             	add    %cl,(%esp,%edx,2)
    5e89:	00 00                	add    %al,(%eax)
    5e8b:	00 05 00 17 47 44    	add    %al,0x44471700
    5e91:	54                   	push   %esp
    5e92:	00 08                	add    %cl,(%eax)
    5e94:	0e                   	push   %cs
    5e95:	11 0c 00             	adc    %ecx,(%eax,%eax,1)
    5e98:	00 17                	add    %dl,(%edi)
    5e9a:	54                   	push   %esp
    5e9b:	53                   	push   %ebx
    5e9c:	53                   	push   %ebx
    5e9d:	00 08                	add    %cl,(%eax)
    5e9f:	0f 06                	clts   
    5ea1:	0c 00                	or     $0x0,%al
    5ea3:	00 05 04 09 2b c4    	add    %al,0xc42b0904
    5ea9:	0c 00                	or     $0x0,%al
    5eab:	00 12                	add    %dl,(%edx)
    5ead:	70 00                	jo     5eaf <mbh-0x2fa151>
    5eaf:	09 2d 49 00 00 00    	or     %ebp,0x49
    5eb5:	04 01                	add    $0x1,%al
    5eb7:	1f                   	pop    %ds
    5eb8:	00 12                	add    %dl,(%edx)
    5eba:	72 77                	jb     5f33 <mbh-0x2fa0cd>
    5ebc:	00 09                	add    %cl,(%ecx)
    5ebe:	2e 49                	cs dec %ecx
    5ec0:	00 00                	add    %al,(%eax)
    5ec2:	00 04 01             	add    %al,(%ecx,%eax,1)
    5ec5:	1e                   	push   %ds
    5ec6:	00 12                	add    %dl,(%edx)
    5ec8:	6c                   	insb   (%dx),%es:(%edi)
    5ec9:	76 6c                	jbe    5f37 <mbh-0x2fa0c9>
    5ecb:	00 09                	add    %cl,(%ecx)
    5ecd:	2f                   	das    
    5ece:	49                   	dec    %ecx
    5ecf:	00 00                	add    %al,(%eax)
    5ed1:	00 04 01             	add    %al,(%ecx,%eax,1)
    5ed4:	1d 00 12 70 77       	sbb    $0x77701200,%eax
    5ed9:	74 00                	je     5edb <mbh-0x2fa125>
    5edb:	09 30                	or     %esi,(%eax)
    5edd:	49                   	dec    %ecx
    5ede:	00 00                	add    %al,(%eax)
    5ee0:	00 04 01             	add    %al,(%ecx,%eax,1)
    5ee3:	1c 00                	sbb    $0x0,%al
    5ee5:	12 70 63             	adc    0x63(%eax),%dh
    5ee8:	64 00 09             	add    %cl,%fs:(%ecx)
    5eeb:	31 49 00             	xor    %ecx,0x0(%ecx)
    5eee:	00 00                	add    %al,(%eax)
    5ef0:	04 01                	add    $0x1,%al
    5ef2:	1b 00                	sbb    (%eax),%eax
    5ef4:	12 61 63             	adc    0x63(%ecx),%ah
    5ef7:	63 00                	arpl   %ax,(%eax)
    5ef9:	09 32                	or     %esi,(%edx)
    5efb:	49                   	dec    %ecx
    5efc:	00 00                	add    %al,(%eax)
    5efe:	00 04 01             	add    %al,(%ecx,%eax,1)
    5f01:	1a 00                	sbb    (%eax),%al
    5f03:	12 6d 62             	adc    0x62(%ebp),%ch
    5f06:	7a 00                	jp     5f08 <mbh-0x2fa0f8>
    5f08:	09 33                	or     %esi,(%ebx)
    5f0a:	49                   	dec    %ecx
    5f0b:	00 00                	add    %al,(%eax)
    5f0d:	00 04 03             	add    %al,(%ebx,%eax,1)
    5f10:	17                   	pop    %ss
    5f11:	00 12                	add    %dl,(%edx)
    5f13:	61                   	popa   
    5f14:	76 6c                	jbe    5f82 <mbh-0x2fa07e>
    5f16:	00 09                	add    %cl,(%ecx)
    5f18:	34 49                	xor    $0x49,%al
    5f1a:	00 00                	add    %al,(%eax)
    5f1c:	00 04 03             	add    %al,(%ebx,%eax,1)
    5f1f:	14 00                	adc    $0x0,%al
    5f21:	13 99 05 00 00 09    	adc    0x9000005(%ecx),%ebx
    5f27:	35 49 00 00 00       	xor    $0x49,%eax
    5f2c:	04 14                	add    $0x14,%al
    5f2e:	00 00                	add    %al,(%eax)
    5f30:	00 05 04 09 39 88    	add    %al,0x88390904
    5f36:	0d 00 00 12 70       	or     $0x70120000,%eax
    5f3b:	00 09                	add    %cl,(%ecx)
    5f3d:	3b 49 00             	cmp    0x0(%ecx),%ecx
    5f40:	00 00                	add    %al,(%eax)
    5f42:	04 01                	add    $0x1,%al
    5f44:	1f                   	pop    %ds
    5f45:	00 12                	add    %dl,(%edx)
    5f47:	72 77                	jb     5fc0 <mbh-0x2fa040>
    5f49:	00 09                	add    %cl,(%ecx)
    5f4b:	3c 49                	cmp    $0x49,%al
    5f4d:	00 00                	add    %al,(%eax)
    5f4f:	00 04 01             	add    %al,(%ecx,%eax,1)
    5f52:	1e                   	push   %ds
    5f53:	00 12                	add    %dl,(%edx)
    5f55:	6c                   	insb   (%dx),%es:(%edi)
    5f56:	76 6c                	jbe    5fc4 <mbh-0x2fa03c>
    5f58:	00 09                	add    %cl,(%ecx)
    5f5a:	3d 49 00 00 00       	cmp    $0x49,%eax
    5f5f:	04 01                	add    $0x1,%al
    5f61:	1d 00 12 70 77       	sbb    $0x77701200,%eax
    5f66:	74 00                	je     5f68 <mbh-0x2fa098>
    5f68:	09 3e                	or     %edi,(%esi)
    5f6a:	49                   	dec    %ecx
    5f6b:	00 00                	add    %al,(%eax)
    5f6d:	00 04 01             	add    %al,(%ecx,%eax,1)
    5f70:	1c 00                	sbb    $0x0,%al
    5f72:	12 70 63             	adc    0x63(%eax),%dh
    5f75:	64 00 09             	add    %cl,%fs:(%ecx)
    5f78:	3f                   	aas    
    5f79:	49                   	dec    %ecx
    5f7a:	00 00                	add    %al,(%eax)
    5f7c:	00 04 01             	add    %al,(%ecx,%eax,1)
    5f7f:	1b 00                	sbb    (%eax),%eax
    5f81:	12 61 63             	adc    0x63(%ecx),%ah
    5f84:	63 00                	arpl   %ax,(%eax)
    5f86:	09 40 49             	or     %eax,0x49(%eax)
    5f89:	00 00                	add    %al,(%eax)
    5f8b:	00 04 01             	add    %al,(%ecx,%eax,1)
    5f8e:	1a 00                	sbb    (%eax),%al
    5f90:	12 64 00 09          	adc    0x9(%eax,%eax,1),%ah
    5f94:	41                   	inc    %ecx
    5f95:	49                   	dec    %ecx
    5f96:	00 00                	add    %al,(%eax)
    5f98:	00 04 01             	add    %al,(%ecx,%eax,1)
    5f9b:	19 00                	sbb    %eax,(%eax)
    5f9d:	12 70 73             	adc    0x73(%eax),%dh
    5fa0:	00 09                	add    %cl,(%ecx)
    5fa2:	42                   	inc    %edx
    5fa3:	49                   	dec    %ecx
    5fa4:	00 00                	add    %al,(%eax)
    5fa6:	00 04 01             	add    %al,(%ecx,%eax,1)
    5fa9:	18 00                	sbb    %al,(%eax)
    5fab:	12 67 00             	adc    0x0(%edi),%ah
    5fae:	09 43 49             	or     %eax,0x49(%ebx)
    5fb1:	00 00                	add    %al,(%eax)
    5fb3:	00 04 01             	add    %al,(%ecx,%eax,1)
    5fb6:	17                   	pop    %ss
    5fb7:	00 12                	add    %dl,(%edx)
    5fb9:	61                   	popa   
    5fba:	76 6c                	jbe    6028 <mbh-0x2f9fd8>
    5fbc:	00 09                	add    %cl,(%ecx)
    5fbe:	44                   	inc    %esp
    5fbf:	49                   	dec    %ecx
    5fc0:	00 00                	add    %al,(%eax)
    5fc2:	00 04 03             	add    %al,(%ebx,%eax,1)
    5fc5:	14 00                	adc    $0x0,%al
    5fc7:	12 70 61             	adc    0x61(%eax),%dh
    5fca:	74 00                	je     5fcc <mbh-0x2fa034>
    5fcc:	09 45 49             	or     %eax,0x49(%ebp)
    5fcf:	00 00                	add    %al,(%eax)
    5fd1:	00 04 01             	add    %al,(%ecx,%eax,1)
    5fd4:	13 00                	adc    (%eax),%eax
    5fd6:	12 72 73             	adc    0x73(%edx),%dh
    5fd9:	76 00                	jbe    5fdb <mbh-0x2fa025>
    5fdb:	09 46 49             	or     %eax,0x49(%esi)
    5fde:	00 00                	add    %al,(%eax)
    5fe0:	00 04 09             	add    %al,(%ecx,%ecx,1)
    5fe3:	0a 00                	or     (%eax),%al
    5fe5:	13 99 05 00 00 09    	adc    0x9000005(%ecx),%ebx
    5feb:	47                   	inc    %edi
    5fec:	49                   	dec    %ecx
    5fed:	00 00                	add    %al,(%eax)
    5fef:	00 04 0a             	add    %al,(%edx,%ecx,1)
    5ff2:	00 00                	add    %al,(%eax)
    5ff4:	00 07                	add    %al,(%edi)
    5ff6:	a1 0a 00 00 04       	mov    0x400000a,%eax
    5ffb:	09 29                	or     %ebp,(%ecx)
    5ffd:	aa                   	stos   %al,%es:(%edi)
    5ffe:	0d 00 00 0a 37       	or     $0x370a0000,%eax
    6003:	0c 00                	or     $0x0,%al
    6005:	00 09                	add    %cl,(%ecx)
    6007:	b5 0c                	mov    $0xc,%ch
    6009:	00 00                	add    %al,(%eax)
    600b:	09 49 c4             	or     %ecx,-0x3c(%ecx)
    600e:	0c 00                	or     $0x0,%al
    6010:	00 0a                	add    %cl,(%edx)
    6012:	f0 01 00             	lock add %eax,(%eax)
    6015:	00 00                	add    %al,(%eax)
    6017:	02 ce                	add    %dh,%cl
    6019:	0c 00                	or     $0x0,%al
    601b:	00 09                	add    %cl,(%ecx)
    601d:	4d                   	dec    %ebp
    601e:	88 0d 00 00 10 30    	mov    %cl,0x30100000
    6024:	0f 00 00             	sldt   (%eax)
    6027:	10 0a                	adc    %cl,(%edx)
    6029:	09 f2                	or     %esi,%edx
    602b:	0d 00 00 11 70       	or     $0x70110000,%eax
    6030:	67 64 00 0a          	add    %cl,%fs:(%bp,%si)
    6034:	0b f2                	or     %edx,%esi
    6036:	0d 00 00 00 06       	or     $0x6000000,%eax
    603b:	43                   	inc    %ebx
    603c:	0d 00 00 0a 0c       	or     $0xc0a0000,%eax
    6041:	f8                   	clc    
    6042:	0d 00 00 04 06       	or     $0x6040000,%eax
    6047:	41                   	inc    %ecx
    6048:	0b 00                	or     (%eax),%eax
    604a:	00 0a                	add    %cl,(%edx)
    604c:	0d f8 02 00 00       	or     $0x2f8,%eax
    6051:	08 06                	or     %al,(%esi)
    6053:	f6 0b 00             	testb  $0x0,(%ebx)
    6056:	00 0a                	add    %cl,(%edx)
    6058:	0e                   	push   %cs
    6059:	f8                   	clc    
    605a:	02 00                	add    (%eax),%al
    605c:	00 0c 00             	add    %cl,(%eax,%eax,1)
    605f:	0f 04                	(bad)  
    6061:	aa                   	stos   %al,%es:(%edi)
    6062:	0d 00 00 0f 04       	or     $0x40f0000,%eax
    6067:	b5 0d                	mov    $0xd,%ch
    6069:	00 00                	add    %al,(%eax)
    606b:	02 3c 0d 00 00 0a 0f 	add    0xf0a0000(,%ecx,1),%bh
    6072:	b5 0d                	mov    $0xd,%ch
    6074:	00 00                	add    %al,(%eax)
    6076:	18 e1                	sbb    %ah,%cl
    6078:	00 00                	add    %al,(%eax)
    607a:	00 01                	add    %al,(%ecx)
    607c:	0c 14                	or     $0x14,%al
    607e:	0e                   	push   %cs
    607f:	00 00                	add    %al,(%eax)
    6081:	0f 04                	(bad)  
    6083:	e8 05 00 00 18       	call   1800608d <user2+0x1780608d>
    6088:	34 0b                	xor    $0xb,%al
    608a:	00 00                	add    %al,(%eax)
    608c:	01 0d 25 0e 00 00    	add    %ecx,0xe25
    6092:	0f 04                	(bad)  
    6094:	fe 0d 00 00 19 5e    	decb   0x5e190000
    609a:	0f 00 00             	sldt   (%eax)
    609d:	01 0e                	add    %ecx,(%esi)
    609f:	f8                   	clc    
    60a0:	02 00                	add    (%eax),%al
    60a2:	00 05 03 f0 52 30    	add    %al,0x3052f003
    60a8:	00 19                	add    %bl,(%ecx)
    60aa:	35 0f 00 00 01       	xor    $0x100000f,%eax
    60af:	0f f8 02             	psubb  (%edx),%mm0
    60b2:	00 00                	add    %al,(%eax)
    60b4:	05 03 f4 52 30       	add    $0x3052f403,%eax
    60b9:	00 19                	add    %bl,(%ecx)
    60bb:	93                   	xchg   %eax,%ebx
    60bc:	0f 00 00             	sldt   (%eax)
    60bf:	01 11                	add    %edx,(%ecx)
    60c1:	fe 0d 00 00 05 03    	decb   0x3050000
    60c7:	30 80 30 00 19 2b    	xor    %al,0x2b190030(%eax)
    60cd:	0f 00 00             	sldt   (%eax)
    60d0:	01 12                	add    %edx,(%edx)
    60d2:	fe 0d 00 00 05 03    	decb   0x3050000
    60d8:	20 80 30 00 19 54    	and    %al,0x54190030(%eax)
    60de:	0f 00 00             	sldt   (%eax)
    60e1:	01 13                	add    %edx,(%ebx)
    60e3:	fe 0d 00 00 05 03    	decb   0x3050000
    60e9:	10 80 30 00 1a 74    	adc    %al,0x741a0030(%eax)
    60ef:	70 00                	jo     60f1 <mbh-0x2f9f0f>
    60f1:	01 45 e2             	add    %eax,-0x1e(%ebp)
    60f4:	47                   	inc    %edi
    60f5:	30 00                	xor    %al,(%eax)
    60f7:	53                   	push   %ebx
    60f8:	00 00                	add    %al,(%eax)
    60fa:	00 01                	add    %al,(%ecx)
    60fc:	9c                   	pushf  
    60fd:	a3 0e 00 00 1b       	mov    %eax,0x1b00000e
    6102:	08 0d 00 00 01 51    	or     %cl,0x51010000
    6108:	dd 09                	fisttpll (%ecx)
    610a:	00 00                	add    %al,(%eax)
    610c:	02 91 6a 00 1c 3f    	add    0x3f1c006a(%ecx),%dl
    6112:	0f 00 00             	sldt   (%eax)
    6115:	01 32                	add    %esi,(%edx)
    6117:	28 47 30             	sub    %al,0x30(%edi)
    611a:	00 ba 00 00 00 01    	add    %bh,0x1000000(%edx)
    6120:	9c                   	pushf  
    6121:	e3 0e                	jecxz  6131 <mbh-0x2f9ecf>
    6123:	00 00                	add    %al,(%eax)
    6125:	1b 72 0f             	sbb    0xf(%edx),%esi
    6128:	00 00                	add    %al,(%eax)
    612a:	01 35 f2 0d 00 00    	add    %esi,0xdf2
    6130:	02 91 6c 1b 68 0f    	add    0xf681b6c(%ecx),%dl
    6136:	00 00                	add    %al,(%eax)
    6138:	01 36                	add    %esi,(%esi)
    613a:	f2 0d 00 00 02 91    	repnz or $0x91020000,%eax
    6140:	68 1b 89 0f 00       	push   $0xf891b
    6145:	00 01                	add    %al,(%ecx)
    6147:	37                   	aaa    
    6148:	f2 0d 00 00 02 91    	repnz or $0x91020000,%eax
    614e:	64 00 1d 39 0f 00 00 	add    %bl,%fs:0xf39
    6155:	01 27                	add    %esp,(%edi)
    6157:	00 00                	add    %al,(%eax)
    6159:	80 00 13             	addb   $0x13,(%eax)
    615c:	00 00                	add    %al,(%eax)
    615e:	00 01                	add    %al,(%ecx)
    6160:	9c                   	pushf  
    6161:	1e                   	push   %ds
    6162:	62 0f                	bound  %ecx,(%edi)
    6164:	00 00                	add    %al,(%eax)
    6166:	01 1b                	add    %ebx,(%ebx)
    6168:	00 00                	add    %al,(%eax)
    616a:	40                   	inc    %eax
    616b:	00 11                	add    %dl,(%ecx)
    616d:	00 00                	add    %al,(%eax)
    616f:	00 01                	add    %al,(%ecx)
    6171:	9c                   	pushf  
    6172:	1f                   	pop    %ds
    6173:	7d 0f                	jge    6184 <mbh-0x2f9e7c>
    6175:	00 00                	add    %al,(%eax)
    6177:	01 15 1d 47 30 00    	add    %edx,0x30471d
    617d:	0b 00                	or     (%eax),%eax
    617f:	00 00                	add    %al,(%eax)
    6181:	01 9c 20 63 70 74 00 	add    %ebx,0x747063(%eax,%eiz,1)
    6188:	01 15 f8 02 00 00    	add    %edx,0x2f8
    618e:	02                   	.byte 0x2
    618f:	91                   	xchg   %eax,%ecx
    6190:	00 00                	add    %al,(%eax)
	...

Disassembly of section .debug_abbrev:

00000000 <.debug_abbrev>:
   0:	01 11                	add    %edx,(%ecx)
   2:	00 10                	add    %dl,(%eax)
   4:	06                   	push   %es
   5:	11 01                	adc    %eax,(%ecx)
   7:	12 01                	adc    (%ecx),%al
   9:	03 0e                	add    (%esi),%ecx
   b:	1b 0e                	sbb    (%esi),%ecx
   d:	25 0e 13 05 00       	and    $0x5130e,%eax
  12:	00 00                	add    %al,(%eax)
  14:	01 11                	add    %edx,(%ecx)
  16:	01 25 0e 13 0b 03    	add    %esp,0x30b130e
  1c:	0e                   	push   %cs
  1d:	1b 0e                	sbb    (%esi),%ecx
  1f:	11 01                	adc    %eax,(%ecx)
  21:	12 06                	adc    (%esi),%al
  23:	10 17                	adc    %dl,(%edi)
  25:	00 00                	add    %al,(%eax)
  27:	02 24 00             	add    (%eax,%eax,1),%ah
  2a:	0b 0b                	or     (%ebx),%ecx
  2c:	3e 0b 03             	or     %ds:(%ebx),%eax
  2f:	0e                   	push   %cs
  30:	00 00                	add    %al,(%eax)
  32:	03 16                	add    (%esi),%edx
  34:	00 03                	add    %al,(%ebx)
  36:	0e                   	push   %cs
  37:	3a 0b                	cmp    (%ebx),%cl
  39:	3b 0b                	cmp    (%ebx),%ecx
  3b:	49                   	dec    %ecx
  3c:	13 00                	adc    (%eax),%eax
  3e:	00 04 26             	add    %al,(%esi,%eiz,1)
  41:	00 49 13             	add    %cl,0x13(%ecx)
  44:	00 00                	add    %al,(%eax)
  46:	05 35 00 49 13       	add    $0x13490035,%eax
  4b:	00 00                	add    %al,(%eax)
  4d:	06                   	push   %es
  4e:	24 00                	and    $0x0,%al
  50:	0b 0b                	or     (%ebx),%ecx
  52:	3e 0b 03             	or     %ds:(%ebx),%eax
  55:	08 00                	or     %al,(%eax)
  57:	00 07                	add    %al,(%edi)
  59:	13 01                	adc    (%ecx),%eax
  5b:	03 0e                	add    (%esi),%ecx
  5d:	0b 0b                	or     (%ebx),%ecx
  5f:	3a 0b                	cmp    (%ebx),%cl
  61:	3b 0b                	cmp    (%ebx),%ecx
  63:	01 13                	add    %edx,(%ebx)
  65:	00 00                	add    %al,(%eax)
  67:	08 0d 00 03 0e 3a    	or     %cl,0x3a0e0300
  6d:	0b 3b                	or     (%ebx),%edi
  6f:	0b 49 13             	or     0x13(%ecx),%ecx
  72:	38 0b                	cmp    %cl,(%ebx)
  74:	00 00                	add    %al,(%eax)
  76:	09 0d 00 03 08 3a    	or     %ecx,0x3a080300
  7c:	0b 3b                	or     (%ebx),%edi
  7e:	0b 49 13             	or     0x13(%ecx),%ecx
  81:	38 0b                	cmp    %cl,(%ebx)
  83:	00 00                	add    %al,(%eax)
  85:	0a 17                	or     (%edi),%dl
  87:	01 0b                	add    %ecx,(%ebx)
  89:	0b 3a                	or     (%edx),%edi
  8b:	0b 3b                	or     (%ebx),%edi
  8d:	0b 01                	or     (%ecx),%eax
  8f:	13 00                	adc    (%eax),%eax
  91:	00 0b                	add    %cl,(%ebx)
  93:	0d 00 03 0e 3a       	or     $0x3a0e0300,%eax
  98:	0b 3b                	or     (%ebx),%edi
  9a:	0b 49 13             	or     0x13(%ecx),%ecx
  9d:	00 00                	add    %al,(%eax)
  9f:	0c 13                	or     $0x13,%al
  a1:	01 0b                	add    %ecx,(%ebx)
  a3:	0b 3a                	or     (%edx),%edi
  a5:	0b 3b                	or     (%ebx),%edi
  a7:	0b 01                	or     (%ecx),%eax
  a9:	13 00                	adc    (%eax),%eax
  ab:	00 0d 0d 00 49 13    	add    %cl,0x1349000d
  b1:	00 00                	add    %al,(%eax)
  b3:	0e                   	push   %cs
  b4:	0d 00 49 13 38       	or     $0x38134900,%eax
  b9:	0b 00                	or     (%eax),%eax
  bb:	00 0f                	add    %cl,(%edi)
  bd:	0f 00 0b             	str    (%ebx)
  c0:	0b 49 13             	or     0x13(%ecx),%ecx
  c3:	00 00                	add    %al,(%eax)
  c5:	10 01                	adc    %al,(%ecx)
  c7:	01 49 13             	add    %ecx,0x13(%ecx)
  ca:	01 13                	add    %edx,(%ebx)
  cc:	00 00                	add    %al,(%eax)
  ce:	11 21                	adc    %esp,(%ecx)
  d0:	00 49 13             	add    %cl,0x13(%ecx)
  d3:	2f                   	das    
  d4:	0b 00                	or     (%eax),%eax
  d6:	00 12                	add    %dl,(%edx)
  d8:	34 00                	xor    $0x0,%al
  da:	03 08                	add    (%eax),%ecx
  dc:	3a 0b                	cmp    (%ebx),%cl
  de:	3b 0b                	cmp    (%ebx),%ecx
  e0:	49                   	dec    %ecx
  e1:	13 3f                	adc    (%edi),%edi
  e3:	19 88 01 0b 02 18    	sbb    %ecx,0x18020b01(%eax)
  e9:	00 00                	add    %al,(%eax)
  eb:	13 34 00             	adc    (%eax,%eax,1),%esi
  ee:	03 0e                	add    (%esi),%ecx
  f0:	3a 0b                	cmp    (%ebx),%cl
  f2:	3b 0b                	cmp    (%ebx),%ecx
  f4:	49                   	dec    %ecx
  f5:	13 88 01 0b 02 18    	adc    0x18020b01(%eax),%ecx
  fb:	00 00                	add    %al,(%eax)
  fd:	14 34                	adc    $0x34,%al
  ff:	00 03                	add    %al,(%ebx)
 101:	0e                   	push   %cs
 102:	3a 0b                	cmp    (%ebx),%cl
 104:	3b 0b                	cmp    (%ebx),%ecx
 106:	49                   	dec    %ecx
 107:	13 3f                	adc    (%edi),%edi
 109:	19 02                	sbb    %eax,(%edx)
 10b:	18 00                	sbb    %al,(%eax)
 10d:	00 15 2e 01 3f 19    	add    %dl,0x193f012e
 113:	03 0e                	add    (%esi),%ecx
 115:	3a 0b                	cmp    (%ebx),%cl
 117:	3b 0b                	cmp    (%ebx),%ecx
 119:	27                   	daa    
 11a:	19 11                	sbb    %edx,(%ecx)
 11c:	01 12                	add    %edx,(%edx)
 11e:	06                   	push   %es
 11f:	40                   	inc    %eax
 120:	18 96 42 19 00 00    	sbb    %dl,0x1942(%esi)
 126:	16                   	push   %ss
 127:	05 00 03 08 3a       	add    $0x3a080300,%eax
 12c:	0b 3b                	or     (%ebx),%edi
 12e:	0b 49 13             	or     0x13(%ecx),%ecx
 131:	02 18                	add    (%eax),%bl
 133:	00 00                	add    %al,(%eax)
 135:	00 01                	add    %al,(%ecx)
 137:	11 01                	adc    %eax,(%ecx)
 139:	25 0e 13 0b 03       	and    $0x30b130e,%eax
 13e:	0e                   	push   %cs
 13f:	1b 0e                	sbb    (%esi),%ecx
 141:	11 01                	adc    %eax,(%ecx)
 143:	12 06                	adc    (%esi),%al
 145:	10 17                	adc    %dl,(%edi)
 147:	00 00                	add    %al,(%eax)
 149:	02 16                	add    (%esi),%dl
 14b:	00 03                	add    %al,(%ebx)
 14d:	0e                   	push   %cs
 14e:	3a 0b                	cmp    (%ebx),%cl
 150:	3b 0b                	cmp    (%ebx),%ecx
 152:	49                   	dec    %ecx
 153:	13 00                	adc    (%eax),%eax
 155:	00 03                	add    %al,(%ebx)
 157:	24 00                	and    $0x0,%al
 159:	0b 0b                	or     (%ebx),%ecx
 15b:	3e 0b 03             	or     %ds:(%ebx),%eax
 15e:	0e                   	push   %cs
 15f:	00 00                	add    %al,(%eax)
 161:	04 24                	add    $0x24,%al
 163:	00 0b                	add    %cl,(%ebx)
 165:	0b 3e                	or     (%esi),%edi
 167:	0b 03                	or     (%ebx),%eax
 169:	08 00                	or     %al,(%eax)
 16b:	00 05 0f 00 0b 0b    	add    %al,0xb0b000f
 171:	49                   	dec    %ecx
 172:	13 00                	adc    (%eax),%eax
 174:	00 06                	add    %al,(%esi)
 176:	26 00 49 13          	add    %cl,%es:0x13(%ecx)
 17a:	00 00                	add    %al,(%eax)
 17c:	07                   	pop    %es
 17d:	04 01                	add    $0x1,%al
 17f:	3e 0b 0b             	or     %ds:(%ebx),%ecx
 182:	0b 49 13             	or     0x13(%ecx),%ecx
 185:	3a 0b                	cmp    (%ebx),%cl
 187:	3b 0b                	cmp    (%ebx),%ecx
 189:	01 13                	add    %edx,(%ebx)
 18b:	00 00                	add    %al,(%eax)
 18d:	08 28                	or     %ch,(%eax)
 18f:	00 03                	add    %al,(%ebx)
 191:	0e                   	push   %cs
 192:	1c 0b                	sbb    $0xb,%al
 194:	00 00                	add    %al,(%eax)
 196:	09 13                	or     %edx,(%ebx)
 198:	01 0b                	add    %ecx,(%ebx)
 19a:	0b 3a                	or     (%edx),%edi
 19c:	0b 3b                	or     (%ebx),%edi
 19e:	0b 01                	or     (%ecx),%eax
 1a0:	13 00                	adc    (%eax),%eax
 1a2:	00 0a                	add    %cl,(%edx)
 1a4:	0d 00 03 0e 3a       	or     $0x3a0e0300,%eax
 1a9:	0b 3b                	or     (%ebx),%edi
 1ab:	0b 49 13             	or     0x13(%ecx),%ecx
 1ae:	38 0b                	cmp    %cl,(%ebx)
 1b0:	00 00                	add    %al,(%eax)
 1b2:	0b 17                	or     (%edi),%edx
 1b4:	01 03                	add    %eax,(%ebx)
 1b6:	0e                   	push   %cs
 1b7:	0b 0b                	or     (%ebx),%ecx
 1b9:	3a 0b                	cmp    (%ebx),%cl
 1bb:	3b 0b                	cmp    (%ebx),%ecx
 1bd:	01 13                	add    %edx,(%ebx)
 1bf:	00 00                	add    %al,(%eax)
 1c1:	0c 0d                	or     $0xd,%al
 1c3:	00 03                	add    %al,(%ebx)
 1c5:	08 3a                	or     %bh,(%edx)
 1c7:	0b 3b                	or     (%ebx),%edi
 1c9:	0b 49 13             	or     0x13(%ecx),%ecx
 1cc:	00 00                	add    %al,(%eax)
 1ce:	0d 0d 00 03 0e       	or     $0xe03000d,%eax
 1d3:	3a 0b                	cmp    (%ebx),%cl
 1d5:	3b 0b                	cmp    (%ebx),%ecx
 1d7:	49                   	dec    %ecx
 1d8:	13 00                	adc    (%eax),%eax
 1da:	00 0e                	add    %cl,(%esi)
 1dc:	0d 00 49 13 00       	or     $0x134900,%eax
 1e1:	00 0f                	add    %cl,(%edi)
 1e3:	01 01                	add    %eax,(%ecx)
 1e5:	49                   	dec    %ecx
 1e6:	13 01                	adc    (%ecx),%eax
 1e8:	13 00                	adc    (%eax),%eax
 1ea:	00 10                	add    %dl,(%eax)
 1ec:	21 00                	and    %eax,(%eax)
 1ee:	49                   	dec    %ecx
 1ef:	13 2f                	adc    (%edi),%ebp
 1f1:	0b 00                	or     (%eax),%eax
 1f3:	00 11                	add    %dl,(%ecx)
 1f5:	17                   	pop    %ss
 1f6:	01 0b                	add    %ecx,(%ebx)
 1f8:	0b 3a                	or     (%edx),%edi
 1fa:	0b 3b                	or     (%ebx),%edi
 1fc:	0b 01                	or     (%ecx),%eax
 1fe:	13 00                	adc    (%eax),%eax
 200:	00 12                	add    %dl,(%edx)
 202:	0d 00 49 13 38       	or     $0x38134900,%eax
 207:	0b 00                	or     (%eax),%eax
 209:	00 13                	add    %dl,(%ebx)
 20b:	13 01                	adc    (%ecx),%eax
 20d:	03 0e                	add    (%esi),%ecx
 20f:	0b 0b                	or     (%ebx),%ecx
 211:	3a 0b                	cmp    (%ebx),%cl
 213:	3b 0b                	cmp    (%ebx),%ecx
 215:	01 13                	add    %edx,(%ebx)
 217:	00 00                	add    %al,(%eax)
 219:	14 0f                	adc    $0xf,%al
 21b:	00 0b                	add    %cl,(%ebx)
 21d:	0b 00                	or     (%eax),%eax
 21f:	00 15 0d 00 03 08    	add    %dl,0x803000d
 225:	3a 0b                	cmp    (%ebx),%cl
 227:	3b 0b                	cmp    (%ebx),%ecx
 229:	49                   	dec    %ecx
 22a:	13 38                	adc    (%eax),%edi
 22c:	0b 00                	or     (%eax),%eax
 22e:	00 16                	add    %dl,(%esi)
 230:	0f 00 0b             	str    (%ebx)
 233:	0b 03                	or     (%ebx),%eax
 235:	0e                   	push   %cs
 236:	49                   	dec    %ecx
 237:	13 00                	adc    (%eax),%eax
 239:	00 17                	add    %dl,(%edi)
 23b:	21 00                	and    %eax,(%eax)
 23d:	49                   	dec    %ecx
 23e:	13 2f                	adc    (%edi),%ebp
 240:	05 00 00 18 34       	add    $0x34180000,%eax
 245:	00 03                	add    %al,(%ebx)
 247:	0e                   	push   %cs
 248:	3a 0b                	cmp    (%ebx),%cl
 24a:	3b 0b                	cmp    (%ebx),%ecx
 24c:	49                   	dec    %ecx
 24d:	13 02                	adc    (%edx),%eax
 24f:	18 00                	sbb    %al,(%eax)
 251:	00 19                	add    %bl,(%ecx)
 253:	2e 01 3f             	add    %edi,%cs:(%edi)
 256:	19 03                	sbb    %eax,(%ebx)
 258:	0e                   	push   %cs
 259:	3a 0b                	cmp    (%ebx),%cl
 25b:	3b 0b                	cmp    (%ebx),%ecx
 25d:	27                   	daa    
 25e:	19 49 13             	sbb    %ecx,0x13(%ecx)
 261:	11 01                	adc    %eax,(%ecx)
 263:	12 06                	adc    (%esi),%al
 265:	40                   	inc    %eax
 266:	18 96 42 19 01 13    	sbb    %dl,0x13011942(%esi)
 26c:	00 00                	add    %al,(%eax)
 26e:	1a 05 00 03 0e 3a    	sbb    0x3a0e0300,%al
 274:	0b 3b                	or     (%ebx),%edi
 276:	0b 49 13             	or     0x13(%ecx),%ecx
 279:	02 18                	add    (%eax),%bl
 27b:	00 00                	add    %al,(%eax)
 27d:	1b 05 00 03 08 3a    	sbb    0x3a080300,%eax
 283:	0b 3b                	or     (%ebx),%edi
 285:	0b 49 13             	or     0x13(%ecx),%ecx
 288:	02 18                	add    (%eax),%bl
 28a:	00 00                	add    %al,(%eax)
 28c:	1c 34                	sbb    $0x34,%al
 28e:	00 03                	add    %al,(%ebx)
 290:	08 3a                	or     %bh,(%edx)
 292:	0b 3b                	or     (%ebx),%edi
 294:	0b 49 13             	or     0x13(%ecx),%ecx
 297:	02 18                	add    (%eax),%bl
 299:	00 00                	add    %al,(%eax)
 29b:	1d 0b 01 11 01       	sbb    $0x111010b,%eax
 2a0:	12 06                	adc    (%esi),%al
 2a2:	01 13                	add    %edx,(%ebx)
 2a4:	00 00                	add    %al,(%eax)
 2a6:	1e                   	push   %ds
 2a7:	0b 01                	or     (%ecx),%eax
 2a9:	55                   	push   %ebp
 2aa:	17                   	pop    %ss
 2ab:	01 13                	add    %edx,(%ebx)
 2ad:	00 00                	add    %al,(%eax)
 2af:	1f                   	pop    %ds
 2b0:	0b 01                	or     (%ecx),%eax
 2b2:	11 01                	adc    %eax,(%ecx)
 2b4:	12 06                	adc    (%esi),%al
 2b6:	00 00                	add    %al,(%eax)
 2b8:	20 2e                	and    %ch,(%esi)
 2ba:	01 03                	add    %eax,(%ebx)
 2bc:	0e                   	push   %cs
 2bd:	3a 0b                	cmp    (%ebx),%cl
 2bf:	3b 0b                	cmp    (%ebx),%ecx
 2c1:	27                   	daa    
 2c2:	19 11                	sbb    %edx,(%ecx)
 2c4:	01 12                	add    %edx,(%edx)
 2c6:	06                   	push   %es
 2c7:	40                   	inc    %eax
 2c8:	18 96 42 19 01 13    	sbb    %dl,0x13011942(%esi)
 2ce:	00 00                	add    %al,(%eax)
 2d0:	21 18                	and    %ebx,(%eax)
 2d2:	00 00                	add    %al,(%eax)
 2d4:	00 22                	add    %ah,(%edx)
 2d6:	2e 01 3f             	add    %edi,%cs:(%edi)
 2d9:	19 03                	sbb    %eax,(%ebx)
 2db:	0e                   	push   %cs
 2dc:	3a 0b                	cmp    (%ebx),%cl
 2de:	3b 0b                	cmp    (%ebx),%ecx
 2e0:	27                   	daa    
 2e1:	19 11                	sbb    %edx,(%ecx)
 2e3:	01 12                	add    %edx,(%edx)
 2e5:	06                   	push   %es
 2e6:	40                   	inc    %eax
 2e7:	18 96 42 19 01 13    	sbb    %dl,0x13011942(%esi)
 2ed:	00 00                	add    %al,(%eax)
 2ef:	23 2e                	and    (%esi),%ebp
 2f1:	01 03                	add    %eax,(%ebx)
 2f3:	0e                   	push   %cs
 2f4:	3a 0b                	cmp    (%ebx),%cl
 2f6:	3b 0b                	cmp    (%ebx),%ecx
 2f8:	27                   	daa    
 2f9:	19 11                	sbb    %edx,(%ecx)
 2fb:	01 12                	add    %edx,(%edx)
 2fd:	06                   	push   %es
 2fe:	40                   	inc    %eax
 2ff:	18 97 42 19 00 00    	sbb    %dl,0x1942(%edi)
 305:	00 01                	add    %al,(%ecx)
 307:	11 01                	adc    %eax,(%ecx)
 309:	25 0e 13 0b 03       	and    $0x30b130e,%eax
 30e:	0e                   	push   %cs
 30f:	1b 0e                	sbb    (%esi),%ecx
 311:	11 01                	adc    %eax,(%ecx)
 313:	12 06                	adc    (%esi),%al
 315:	10 17                	adc    %dl,(%edi)
 317:	00 00                	add    %al,(%eax)
 319:	02 16                	add    (%esi),%dl
 31b:	00 03                	add    %al,(%ebx)
 31d:	0e                   	push   %cs
 31e:	3a 0b                	cmp    (%ebx),%cl
 320:	3b 0b                	cmp    (%ebx),%ecx
 322:	49                   	dec    %ecx
 323:	13 00                	adc    (%eax),%eax
 325:	00 03                	add    %al,(%ebx)
 327:	24 00                	and    $0x0,%al
 329:	0b 0b                	or     (%ebx),%ecx
 32b:	3e 0b 03             	or     %ds:(%ebx),%eax
 32e:	0e                   	push   %cs
 32f:	00 00                	add    %al,(%eax)
 331:	04 24                	add    $0x24,%al
 333:	00 0b                	add    %cl,(%ebx)
 335:	0b 3e                	or     (%esi),%edi
 337:	0b 03                	or     (%ebx),%eax
 339:	08 00                	or     %al,(%eax)
 33b:	00 05 0f 00 0b 0b    	add    %al,0xb0b000f
 341:	49                   	dec    %ecx
 342:	13 00                	adc    (%eax),%eax
 344:	00 06                	add    %al,(%esi)
 346:	13 01                	adc    (%ecx),%eax
 348:	0b 0b                	or     (%ebx),%ecx
 34a:	3a 0b                	cmp    (%ebx),%cl
 34c:	3b 0b                	cmp    (%ebx),%ecx
 34e:	01 13                	add    %edx,(%ebx)
 350:	00 00                	add    %al,(%eax)
 352:	07                   	pop    %es
 353:	0d 00 03 0e 3a       	or     $0x3a0e0300,%eax
 358:	0b 3b                	or     (%ebx),%edi
 35a:	0b 49 13             	or     0x13(%ecx),%ecx
 35d:	38 0b                	cmp    %cl,(%ebx)
 35f:	00 00                	add    %al,(%eax)
 361:	08 17                	or     %dl,(%edi)
 363:	01 03                	add    %eax,(%ebx)
 365:	0e                   	push   %cs
 366:	0b 0b                	or     (%ebx),%ecx
 368:	3a 0b                	cmp    (%ebx),%cl
 36a:	3b 0b                	cmp    (%ebx),%ecx
 36c:	01 13                	add    %edx,(%ebx)
 36e:	00 00                	add    %al,(%eax)
 370:	09 0d 00 03 08 3a    	or     %ecx,0x3a080300
 376:	0b 3b                	or     (%ebx),%edi
 378:	0b 49 13             	or     0x13(%ecx),%ecx
 37b:	00 00                	add    %al,(%eax)
 37d:	0a 0d 00 03 0e 3a    	or     0x3a0e0300,%cl
 383:	0b 3b                	or     (%ebx),%edi
 385:	0b 49 13             	or     0x13(%ecx),%ecx
 388:	00 00                	add    %al,(%eax)
 38a:	0b 0d 00 49 13 00    	or     0x134900,%ecx
 390:	00 0c 01             	add    %cl,(%ecx,%eax,1)
 393:	01 49 13             	add    %ecx,0x13(%ecx)
 396:	01 13                	add    %edx,(%ebx)
 398:	00 00                	add    %al,(%eax)
 39a:	0d 21 00 49 13       	or     $0x13490021,%eax
 39f:	2f                   	das    
 3a0:	0b 00                	or     (%eax),%eax
 3a2:	00 0e                	add    %cl,(%esi)
 3a4:	17                   	pop    %ss
 3a5:	01 0b                	add    %ecx,(%ebx)
 3a7:	0b 3a                	or     (%edx),%edi
 3a9:	0b 3b                	or     (%ebx),%edi
 3ab:	0b 01                	or     (%ecx),%eax
 3ad:	13 00                	adc    (%eax),%eax
 3af:	00 0f                	add    %cl,(%edi)
 3b1:	0d 00 49 13 38       	or     $0x38134900,%eax
 3b6:	0b 00                	or     (%eax),%eax
 3b8:	00 10                	add    %dl,(%eax)
 3ba:	13 01                	adc    (%ecx),%eax
 3bc:	03 0e                	add    (%esi),%ecx
 3be:	0b 0b                	or     (%ebx),%ecx
 3c0:	3a 0b                	cmp    (%ebx),%cl
 3c2:	3b 0b                	cmp    (%ebx),%ecx
 3c4:	01 13                	add    %edx,(%ebx)
 3c6:	00 00                	add    %al,(%eax)
 3c8:	11 0f                	adc    %ecx,(%edi)
 3ca:	00 0b                	add    %cl,(%ebx)
 3cc:	0b 00                	or     (%eax),%eax
 3ce:	00 12                	add    %dl,(%edx)
 3d0:	0d 00 03 08 3a       	or     $0x3a080300,%eax
 3d5:	0b 3b                	or     (%ebx),%edi
 3d7:	0b 49 13             	or     0x13(%ecx),%ecx
 3da:	38 0b                	cmp    %cl,(%ebx)
 3dc:	00 00                	add    %al,(%eax)
 3de:	13 0d 00 03 0e 3a    	adc    0x3a0e0300,%ecx
 3e4:	0b 3b                	or     (%ebx),%edi
 3e6:	0b 49 13             	or     0x13(%ecx),%ecx
 3e9:	0b 0b                	or     (%ebx),%ecx
 3eb:	0d 0b 0c 0b 38       	or     $0x380b0c0b,%eax
 3f0:	0b 00                	or     (%eax),%eax
 3f2:	00 14 0d 00 03 08 3a 	add    %dl,0x3a080300(,%ecx,1)
 3f9:	0b 3b                	or     (%ebx),%edi
 3fb:	0b 49 13             	or     0x13(%ecx),%ecx
 3fe:	0b 0b                	or     (%ebx),%ecx
 400:	0d 0b 0c 0b 38       	or     $0x380b0c0b,%eax
 405:	0b 00                	or     (%eax),%eax
 407:	00 15 2e 01 3f 19    	add    %dl,0x193f012e
 40d:	03 0e                	add    (%esi),%ecx
 40f:	3a 0b                	cmp    (%ebx),%cl
 411:	3b 0b                	cmp    (%ebx),%ecx
 413:	11 01                	adc    %eax,(%ecx)
 415:	12 06                	adc    (%esi),%al
 417:	40                   	inc    %eax
 418:	18 97 42 19 01 13    	sbb    %dl,0x13011942(%edi)
 41e:	00 00                	add    %al,(%eax)
 420:	16                   	push   %ss
 421:	34 00                	xor    $0x0,%al
 423:	03 08                	add    (%eax),%ecx
 425:	3a 0b                	cmp    (%ebx),%cl
 427:	3b 0b                	cmp    (%ebx),%ecx
 429:	49                   	dec    %ecx
 42a:	13 02                	adc    (%edx),%eax
 42c:	18 00                	sbb    %al,(%eax)
 42e:	00 17                	add    %dl,(%edi)
 430:	0b 01                	or     (%ecx),%eax
 432:	11 01                	adc    %eax,(%ecx)
 434:	12 06                	adc    (%esi),%al
 436:	00 00                	add    %al,(%eax)
 438:	18 2e                	sbb    %ch,(%esi)
 43a:	01 3f                	add    %edi,(%edi)
 43c:	19 03                	sbb    %eax,(%ebx)
 43e:	0e                   	push   %cs
 43f:	3a 0b                	cmp    (%ebx),%cl
 441:	3b 0b                	cmp    (%ebx),%ecx
 443:	27                   	daa    
 444:	19 49 13             	sbb    %ecx,0x13(%ecx)
 447:	11 01                	adc    %eax,(%ecx)
 449:	12 06                	adc    (%esi),%al
 44b:	40                   	inc    %eax
 44c:	18 96 42 19 01 13    	sbb    %dl,0x13011942(%esi)
 452:	00 00                	add    %al,(%eax)
 454:	19 05 00 03 0e 3a    	sbb    %eax,0x3a0e0300
 45a:	0b 3b                	or     (%ebx),%edi
 45c:	0b 49 13             	or     0x13(%ecx),%ecx
 45f:	02 18                	add    (%eax),%bl
 461:	00 00                	add    %al,(%eax)
 463:	1a 05 00 03 08 3a    	sbb    0x3a080300,%al
 469:	0b 3b                	or     (%ebx),%edi
 46b:	0b 49 13             	or     0x13(%ecx),%ecx
 46e:	02 18                	add    (%eax),%bl
 470:	00 00                	add    %al,(%eax)
 472:	1b 2e                	sbb    (%esi),%ebp
 474:	01 03                	add    %eax,(%ebx)
 476:	0e                   	push   %cs
 477:	3a 0b                	cmp    (%ebx),%cl
 479:	3b 0b                	cmp    (%ebx),%ecx
 47b:	27                   	daa    
 47c:	19 11                	sbb    %edx,(%ecx)
 47e:	01 12                	add    %edx,(%edx)
 480:	06                   	push   %es
 481:	40                   	inc    %eax
 482:	18 97 42 19 01 13    	sbb    %dl,0x13011942(%edi)
 488:	00 00                	add    %al,(%eax)
 48a:	1c 0b                	sbb    $0xb,%al
 48c:	01 11                	add    %edx,(%ecx)
 48e:	01 12                	add    %edx,(%edx)
 490:	06                   	push   %es
 491:	01 13                	add    %edx,(%ebx)
 493:	00 00                	add    %al,(%eax)
 495:	1d 2e 00 3f 19       	sbb    $0x193f002e,%eax
 49a:	03 0e                	add    (%esi),%ecx
 49c:	3a 0b                	cmp    (%ebx),%cl
 49e:	3b 0b                	cmp    (%ebx),%ecx
 4a0:	11 01                	adc    %eax,(%ecx)
 4a2:	12 06                	adc    (%esi),%al
 4a4:	40                   	inc    %eax
 4a5:	18 96 42 19 00 00    	sbb    %dl,0x1942(%esi)
 4ab:	1e                   	push   %ds
 4ac:	2e 01 03             	add    %eax,%cs:(%ebx)
 4af:	0e                   	push   %cs
 4b0:	3a 0b                	cmp    (%ebx),%cl
 4b2:	3b 0b                	cmp    (%ebx),%ecx
 4b4:	27                   	daa    
 4b5:	19 11                	sbb    %edx,(%ecx)
 4b7:	01 12                	add    %edx,(%edx)
 4b9:	06                   	push   %es
 4ba:	40                   	inc    %eax
 4bb:	18 96 42 19 01 13    	sbb    %dl,0x13011942(%esi)
 4c1:	00 00                	add    %al,(%eax)
 4c3:	1f                   	pop    %ds
 4c4:	2e 01 03             	add    %eax,%cs:(%ebx)
 4c7:	0e                   	push   %cs
 4c8:	3a 0b                	cmp    (%ebx),%cl
 4ca:	3b 0b                	cmp    (%ebx),%ecx
 4cc:	27                   	daa    
 4cd:	19 11                	sbb    %edx,(%ecx)
 4cf:	01 12                	add    %edx,(%edx)
 4d1:	06                   	push   %es
 4d2:	40                   	inc    %eax
 4d3:	18 97 42 19 00 00    	sbb    %dl,0x1942(%edi)
 4d9:	00 01                	add    %al,(%ecx)
 4db:	11 01                	adc    %eax,(%ecx)
 4dd:	25 0e 13 0b 03       	and    $0x30b130e,%eax
 4e2:	0e                   	push   %cs
 4e3:	1b 0e                	sbb    (%esi),%ecx
 4e5:	11 01                	adc    %eax,(%ecx)
 4e7:	12 06                	adc    (%esi),%al
 4e9:	10 17                	adc    %dl,(%edi)
 4eb:	00 00                	add    %al,(%eax)
 4ed:	02 16                	add    (%esi),%dl
 4ef:	00 03                	add    %al,(%ebx)
 4f1:	0e                   	push   %cs
 4f2:	3a 0b                	cmp    (%ebx),%cl
 4f4:	3b 0b                	cmp    (%ebx),%ecx
 4f6:	49                   	dec    %ecx
 4f7:	13 00                	adc    (%eax),%eax
 4f9:	00 03                	add    %al,(%ebx)
 4fb:	24 00                	and    $0x0,%al
 4fd:	0b 0b                	or     (%ebx),%ecx
 4ff:	3e 0b 03             	or     %ds:(%ebx),%eax
 502:	0e                   	push   %cs
 503:	00 00                	add    %al,(%eax)
 505:	04 24                	add    $0x24,%al
 507:	00 0b                	add    %cl,(%ebx)
 509:	0b 3e                	or     (%esi),%edi
 50b:	0b 03                	or     (%ebx),%eax
 50d:	08 00                	or     %al,(%eax)
 50f:	00 05 13 01 0b 0b    	add    %al,0xb0b0113
 515:	3a 0b                	cmp    (%ebx),%cl
 517:	3b 0b                	cmp    (%ebx),%ecx
 519:	01 13                	add    %edx,(%ebx)
 51b:	00 00                	add    %al,(%eax)
 51d:	06                   	push   %es
 51e:	0d 00 03 0e 3a       	or     $0x3a0e0300,%eax
 523:	0b 3b                	or     (%ebx),%edi
 525:	0b 49 13             	or     0x13(%ecx),%ecx
 528:	0b 0b                	or     (%ebx),%ecx
 52a:	0d 0b 0c 0b 38       	or     $0x380b0c0b,%eax
 52f:	0b 00                	or     (%eax),%eax
 531:	00 07                	add    %al,(%edi)
 533:	0d 00 03 08 3a       	or     $0x3a080300,%eax
 538:	0b 3b                	or     (%ebx),%edi
 53a:	0b 49 13             	or     0x13(%ecx),%ecx
 53d:	0b 0b                	or     (%ebx),%ecx
 53f:	0d 0b 0c 0b 38       	or     $0x380b0c0b,%eax
 544:	0b 00                	or     (%eax),%eax
 546:	00 08                	add    %cl,(%eax)
 548:	17                   	pop    %ss
 549:	01 03                	add    %eax,(%ebx)
 54b:	0e                   	push   %cs
 54c:	0b 0b                	or     (%ebx),%ecx
 54e:	3a 0b                	cmp    (%ebx),%cl
 550:	3b 0b                	cmp    (%ebx),%ecx
 552:	01 13                	add    %edx,(%ebx)
 554:	00 00                	add    %al,(%eax)
 556:	09 0d 00 49 13 00    	or     %ecx,0x134900
 55c:	00 0a                	add    %cl,(%edx)
 55e:	0d 00 03 08 3a       	or     $0x3a080300,%eax
 563:	0b 3b                	or     (%ebx),%edi
 565:	0b 49 13             	or     0x13(%ecx),%ecx
 568:	00 00                	add    %al,(%eax)
 56a:	0b 0d 00 03 0e 3a    	or     0x3a0e0300,%ecx
 570:	0b 3b                	or     (%ebx),%edi
 572:	0b 49 13             	or     0x13(%ecx),%ecx
 575:	00 00                	add    %al,(%eax)
 577:	0c 2e                	or     $0x2e,%al
 579:	01 3f                	add    %edi,(%edi)
 57b:	19 03                	sbb    %eax,(%ebx)
 57d:	0e                   	push   %cs
 57e:	3a 0b                	cmp    (%ebx),%cl
 580:	3b 0b                	cmp    (%ebx),%ecx
 582:	11 01                	adc    %eax,(%ecx)
 584:	12 06                	adc    (%esi),%al
 586:	40                   	inc    %eax
 587:	18 97 42 19 00 00    	sbb    %dl,0x1942(%edi)
 58d:	0d 34 00 03 0e       	or     $0xe030034,%eax
 592:	3a 0b                	cmp    (%ebx),%cl
 594:	3b 0b                	cmp    (%ebx),%ecx
 596:	49                   	dec    %ecx
 597:	13 02                	adc    (%edx),%eax
 599:	18 00                	sbb    %al,(%eax)
 59b:	00 00                	add    %al,(%eax)
 59d:	01 11                	add    %edx,(%ecx)
 59f:	01 25 0e 13 0b 03    	add    %esp,0x30b130e
 5a5:	0e                   	push   %cs
 5a6:	1b 0e                	sbb    (%esi),%ecx
 5a8:	11 01                	adc    %eax,(%ecx)
 5aa:	12 06                	adc    (%esi),%al
 5ac:	10 17                	adc    %dl,(%edi)
 5ae:	00 00                	add    %al,(%eax)
 5b0:	02 16                	add    (%esi),%dl
 5b2:	00 03                	add    %al,(%ebx)
 5b4:	0e                   	push   %cs
 5b5:	3a 0b                	cmp    (%ebx),%cl
 5b7:	3b 0b                	cmp    (%ebx),%ecx
 5b9:	49                   	dec    %ecx
 5ba:	13 00                	adc    (%eax),%eax
 5bc:	00 03                	add    %al,(%ebx)
 5be:	24 00                	and    $0x0,%al
 5c0:	0b 0b                	or     (%ebx),%ecx
 5c2:	3e 0b 03             	or     %ds:(%ebx),%eax
 5c5:	0e                   	push   %cs
 5c6:	00 00                	add    %al,(%eax)
 5c8:	04 24                	add    $0x24,%al
 5ca:	00 0b                	add    %cl,(%ebx)
 5cc:	0b 3e                	or     (%esi),%edi
 5ce:	0b 03                	or     (%ebx),%eax
 5d0:	08 00                	or     %al,(%eax)
 5d2:	00 05 13 01 0b 0b    	add    %al,0xb0b0113
 5d8:	3a 0b                	cmp    (%ebx),%cl
 5da:	3b 0b                	cmp    (%ebx),%ecx
 5dc:	01 13                	add    %edx,(%ebx)
 5de:	00 00                	add    %al,(%eax)
 5e0:	06                   	push   %es
 5e1:	0d 00 03 0e 3a       	or     $0x3a0e0300,%eax
 5e6:	0b 3b                	or     (%ebx),%edi
 5e8:	0b 49 13             	or     0x13(%ecx),%ecx
 5eb:	38 0b                	cmp    %cl,(%ebx)
 5ed:	00 00                	add    %al,(%eax)
 5ef:	07                   	pop    %es
 5f0:	17                   	pop    %ss
 5f1:	01 03                	add    %eax,(%ebx)
 5f3:	0e                   	push   %cs
 5f4:	0b 0b                	or     (%ebx),%ecx
 5f6:	3a 0b                	cmp    (%ebx),%cl
 5f8:	3b 0b                	cmp    (%ebx),%ecx
 5fa:	01 13                	add    %edx,(%ebx)
 5fc:	00 00                	add    %al,(%eax)
 5fe:	08 0d 00 03 08 3a    	or     %cl,0x3a080300
 604:	0b 3b                	or     (%ebx),%edi
 606:	0b 49 13             	or     0x13(%ecx),%ecx
 609:	00 00                	add    %al,(%eax)
 60b:	09 0d 00 03 0e 3a    	or     %ecx,0x3a0e0300
 611:	0b 3b                	or     (%ebx),%edi
 613:	0b 49 13             	or     0x13(%ecx),%ecx
 616:	00 00                	add    %al,(%eax)
 618:	0a 0d 00 49 13 00    	or     0x134900,%cl
 61e:	00 0b                	add    %cl,(%ebx)
 620:	01 01                	add    %eax,(%ecx)
 622:	49                   	dec    %ecx
 623:	13 01                	adc    (%ecx),%eax
 625:	13 00                	adc    (%eax),%eax
 627:	00 0c 21             	add    %cl,(%ecx,%eiz,1)
 62a:	00 49 13             	add    %cl,0x13(%ecx)
 62d:	2f                   	das    
 62e:	0b 00                	or     (%eax),%eax
 630:	00 0d 17 01 0b 0b    	add    %cl,0xb0b0117
 636:	3a 0b                	cmp    (%ebx),%cl
 638:	3b 0b                	cmp    (%ebx),%ecx
 63a:	01 13                	add    %edx,(%ebx)
 63c:	00 00                	add    %al,(%eax)
 63e:	0e                   	push   %cs
 63f:	0d 00 49 13 38       	or     $0x38134900,%eax
 644:	0b 00                	or     (%eax),%eax
 646:	00 0f                	add    %cl,(%edi)
 648:	0f 00 0b             	str    (%ebx)
 64b:	0b 49 13             	or     0x13(%ecx),%ecx
 64e:	00 00                	add    %al,(%eax)
 650:	10 13                	adc    %dl,(%ebx)
 652:	01 03                	add    %eax,(%ebx)
 654:	0e                   	push   %cs
 655:	0b 0b                	or     (%ebx),%ecx
 657:	3a 0b                	cmp    (%ebx),%cl
 659:	3b 0b                	cmp    (%ebx),%ecx
 65b:	01 13                	add    %edx,(%ebx)
 65d:	00 00                	add    %al,(%eax)
 65f:	11 0d 00 03 08 3a    	adc    %ecx,0x3a080300
 665:	0b 3b                	or     (%ebx),%edi
 667:	0b 49 13             	or     0x13(%ecx),%ecx
 66a:	0b 0b                	or     (%ebx),%ecx
 66c:	0d 0b 0c 0b 38       	or     $0x380b0c0b,%eax
 671:	0b 00                	or     (%eax),%eax
 673:	00 12                	add    %dl,(%edx)
 675:	0d 00 03 0e 3a       	or     $0x3a0e0300,%eax
 67a:	0b 3b                	or     (%ebx),%edi
 67c:	0b 49 13             	or     0x13(%ecx),%ecx
 67f:	0b 0b                	or     (%ebx),%ecx
 681:	0d 0b 0c 0b 38       	or     $0x380b0c0b,%eax
 686:	0b 00                	or     (%eax),%eax
 688:	00 13                	add    %dl,(%ebx)
 68a:	0d 00 03 08 3a       	or     $0x3a080300,%eax
 68f:	0b 3b                	or     (%ebx),%edi
 691:	0b 49 13             	or     0x13(%ecx),%ecx
 694:	38 0b                	cmp    %cl,(%ebx)
 696:	00 00                	add    %al,(%eax)
 698:	14 13                	adc    $0x13,%al
 69a:	01 03                	add    %eax,(%ebx)
 69c:	0e                   	push   %cs
 69d:	0b 05 3a 0b 3b 0b    	or     0xb3b0b3a,%eax
 6a3:	01 13                	add    %edx,(%ebx)
 6a5:	00 00                	add    %al,(%eax)
 6a7:	15 0d 00 03 0e       	adc    $0xe03000d,%eax
 6ac:	3a 0b                	cmp    (%ebx),%cl
 6ae:	3b 0b                	cmp    (%ebx),%ecx
 6b0:	49                   	dec    %ecx
 6b1:	13 38                	adc    (%eax),%edi
 6b3:	05 00 00 16 21       	add    $0x21160000,%eax
 6b8:	00 49 13             	add    %cl,0x13(%ecx)
 6bb:	2f                   	das    
 6bc:	05 00 00 17 34       	add    $0x34170000,%eax
 6c1:	00 03                	add    %al,(%ebx)
 6c3:	0e                   	push   %cs
 6c4:	3a 0b                	cmp    (%ebx),%cl
 6c6:	3b 0b                	cmp    (%ebx),%ecx
 6c8:	49                   	dec    %ecx
 6c9:	13 3f                	adc    (%edi),%edi
 6cb:	19 3c 19             	sbb    %edi,(%ecx,%ebx,1)
 6ce:	00 00                	add    %al,(%eax)
 6d0:	18 34 00             	sbb    %dh,(%eax,%eax,1)
 6d3:	03 08                	add    (%eax),%ecx
 6d5:	3a 0b                	cmp    (%ebx),%cl
 6d7:	3b 0b                	cmp    (%ebx),%ecx
 6d9:	49                   	dec    %ecx
 6da:	13 02                	adc    (%edx),%eax
 6dc:	18 00                	sbb    %al,(%eax)
 6de:	00 19                	add    %bl,(%ecx)
 6e0:	34 00                	xor    $0x0,%al
 6e2:	03 0e                	add    (%esi),%ecx
 6e4:	3a 0b                	cmp    (%ebx),%cl
 6e6:	3b 0b                	cmp    (%ebx),%ecx
 6e8:	49                   	dec    %ecx
 6e9:	13 3f                	adc    (%edi),%edi
 6eb:	19 02                	sbb    %eax,(%edx)
 6ed:	18 00                	sbb    %al,(%eax)
 6ef:	00 1a                	add    %bl,(%edx)
 6f1:	34 00                	xor    $0x0,%al
 6f3:	03 08                	add    (%eax),%ecx
 6f5:	3a 0b                	cmp    (%ebx),%cl
 6f7:	3b 0b                	cmp    (%ebx),%ecx
 6f9:	49                   	dec    %ecx
 6fa:	13 3f                	adc    (%edi),%edi
 6fc:	19 3c 19             	sbb    %edi,(%ecx,%ebx,1)
 6ff:	00 00                	add    %al,(%eax)
 701:	1b 2e                	sbb    (%esi),%ebp
 703:	01 3f                	add    %edi,(%edi)
 705:	19 03                	sbb    %eax,(%ebx)
 707:	0e                   	push   %cs
 708:	3a 0b                	cmp    (%ebx),%cl
 70a:	3b 0b                	cmp    (%ebx),%ecx
 70c:	27                   	daa    
 70d:	19 11                	sbb    %edx,(%ecx)
 70f:	01 12                	add    %edx,(%edx)
 711:	06                   	push   %es
 712:	40                   	inc    %eax
 713:	18 96 42 19 01 13    	sbb    %dl,0x13011942(%esi)
 719:	00 00                	add    %al,(%eax)
 71b:	1c 05                	sbb    $0x5,%al
 71d:	00 03                	add    %al,(%ebx)
 71f:	08 3a                	or     %bh,(%edx)
 721:	0b 3b                	or     (%ebx),%edi
 723:	0b 49 13             	or     0x13(%ecx),%ecx
 726:	02 18                	add    (%eax),%bl
 728:	00 00                	add    %al,(%eax)
 72a:	1d 34 00 03 0e       	sbb    $0xe030034,%eax
 72f:	3a 0b                	cmp    (%ebx),%cl
 731:	3b 0b                	cmp    (%ebx),%ecx
 733:	49                   	dec    %ecx
 734:	13 02                	adc    (%edx),%eax
 736:	18 00                	sbb    %al,(%eax)
 738:	00 1e                	add    %bl,(%esi)
 73a:	2e 01 3f             	add    %edi,%cs:(%edi)
 73d:	19 03                	sbb    %eax,(%ebx)
 73f:	0e                   	push   %cs
 740:	3a 0b                	cmp    (%ebx),%cl
 742:	3b 0b                	cmp    (%ebx),%ecx
 744:	11 01                	adc    %eax,(%ecx)
 746:	12 06                	adc    (%esi),%al
 748:	40                   	inc    %eax
 749:	18 97 42 19 00 00    	sbb    %dl,0x1942(%edi)
 74f:	1f                   	pop    %ds
 750:	0b 01                	or     (%ecx),%eax
 752:	11 01                	adc    %eax,(%ecx)
 754:	12 06                	adc    (%esi),%al
 756:	00 00                	add    %al,(%eax)
 758:	00 01                	add    %al,(%ecx)
 75a:	11 00                	adc    %eax,(%eax)
 75c:	10 06                	adc    %al,(%esi)
 75e:	55                   	push   %ebp
 75f:	06                   	push   %es
 760:	03 0e                	add    (%esi),%ecx
 762:	1b 0e                	sbb    (%esi),%ecx
 764:	25 0e 13 05 00       	and    $0x5130e,%eax
 769:	00 00                	add    %al,(%eax)
 76b:	01 11                	add    %edx,(%ecx)
 76d:	01 25 0e 13 0b 03    	add    %esp,0x30b130e
 773:	0e                   	push   %cs
 774:	1b 0e                	sbb    (%esi),%ecx
 776:	11 01                	adc    %eax,(%ecx)
 778:	12 06                	adc    (%esi),%al
 77a:	10 17                	adc    %dl,(%edi)
 77c:	00 00                	add    %al,(%eax)
 77e:	02 16                	add    (%esi),%dl
 780:	00 03                	add    %al,(%ebx)
 782:	0e                   	push   %cs
 783:	3a 0b                	cmp    (%ebx),%cl
 785:	3b 0b                	cmp    (%ebx),%ecx
 787:	49                   	dec    %ecx
 788:	13 00                	adc    (%eax),%eax
 78a:	00 03                	add    %al,(%ebx)
 78c:	24 00                	and    $0x0,%al
 78e:	0b 0b                	or     (%ebx),%ecx
 790:	3e 0b 03             	or     %ds:(%ebx),%eax
 793:	0e                   	push   %cs
 794:	00 00                	add    %al,(%eax)
 796:	04 24                	add    $0x24,%al
 798:	00 0b                	add    %cl,(%ebx)
 79a:	0b 3e                	or     (%esi),%edi
 79c:	0b 03                	or     (%ebx),%eax
 79e:	08 00                	or     %al,(%eax)
 7a0:	00 05 0f 00 0b 0b    	add    %al,0xb0b000f
 7a6:	49                   	dec    %ecx
 7a7:	13 00                	adc    (%eax),%eax
 7a9:	00 06                	add    %al,(%esi)
 7ab:	13 01                	adc    (%ecx),%eax
 7ad:	0b 0b                	or     (%ebx),%ecx
 7af:	3a 0b                	cmp    (%ebx),%cl
 7b1:	3b 0b                	cmp    (%ebx),%ecx
 7b3:	01 13                	add    %edx,(%ebx)
 7b5:	00 00                	add    %al,(%eax)
 7b7:	07                   	pop    %es
 7b8:	0d 00 03 0e 3a       	or     $0x3a0e0300,%eax
 7bd:	0b 3b                	or     (%ebx),%edi
 7bf:	0b 49 13             	or     0x13(%ecx),%ecx
 7c2:	38 0b                	cmp    %cl,(%ebx)
 7c4:	00 00                	add    %al,(%eax)
 7c6:	08 17                	or     %dl,(%edi)
 7c8:	01 03                	add    %eax,(%ebx)
 7ca:	0e                   	push   %cs
 7cb:	0b 0b                	or     (%ebx),%ecx
 7cd:	3a 0b                	cmp    (%ebx),%cl
 7cf:	3b 0b                	cmp    (%ebx),%ecx
 7d1:	01 13                	add    %edx,(%ebx)
 7d3:	00 00                	add    %al,(%eax)
 7d5:	09 0d 00 03 08 3a    	or     %ecx,0x3a080300
 7db:	0b 3b                	or     (%ebx),%edi
 7dd:	0b 49 13             	or     0x13(%ecx),%ecx
 7e0:	00 00                	add    %al,(%eax)
 7e2:	0a 0d 00 03 0e 3a    	or     0x3a0e0300,%cl
 7e8:	0b 3b                	or     (%ebx),%edi
 7ea:	0b 49 13             	or     0x13(%ecx),%ecx
 7ed:	00 00                	add    %al,(%eax)
 7ef:	0b 0d 00 49 13 00    	or     0x134900,%ecx
 7f5:	00 0c 01             	add    %cl,(%ecx,%eax,1)
 7f8:	01 49 13             	add    %ecx,0x13(%ecx)
 7fb:	01 13                	add    %edx,(%ebx)
 7fd:	00 00                	add    %al,(%eax)
 7ff:	0d 21 00 49 13       	or     $0x13490021,%eax
 804:	2f                   	das    
 805:	0b 00                	or     (%eax),%eax
 807:	00 0e                	add    %cl,(%esi)
 809:	17                   	pop    %ss
 80a:	01 0b                	add    %ecx,(%ebx)
 80c:	0b 3a                	or     (%edx),%edi
 80e:	0b 3b                	or     (%ebx),%edi
 810:	0b 01                	or     (%ecx),%eax
 812:	13 00                	adc    (%eax),%eax
 814:	00 0f                	add    %cl,(%edi)
 816:	0d 00 49 13 38       	or     $0x38134900,%eax
 81b:	0b 00                	or     (%eax),%eax
 81d:	00 10                	add    %dl,(%eax)
 81f:	13 01                	adc    (%ecx),%eax
 821:	03 0e                	add    (%esi),%ecx
 823:	0b 0b                	or     (%ebx),%ecx
 825:	3a 0b                	cmp    (%ebx),%cl
 827:	3b 0b                	cmp    (%ebx),%ecx
 829:	01 13                	add    %edx,(%ebx)
 82b:	00 00                	add    %al,(%eax)
 82d:	11 0d 00 03 08 3a    	adc    %ecx,0x3a080300
 833:	0b 3b                	or     (%ebx),%edi
 835:	0b 49 13             	or     0x13(%ecx),%ecx
 838:	0b 0b                	or     (%ebx),%ecx
 83a:	0d 0b 0c 0b 38       	or     $0x380b0c0b,%eax
 83f:	0b 00                	or     (%eax),%eax
 841:	00 12                	add    %dl,(%edx)
 843:	0d 00 03 0e 3a       	or     $0x3a0e0300,%eax
 848:	0b 3b                	or     (%ebx),%edi
 84a:	0b 49 13             	or     0x13(%ecx),%ecx
 84d:	0b 0b                	or     (%ebx),%ecx
 84f:	0d 0b 0c 0b 38       	or     $0x380b0c0b,%eax
 854:	0b 00                	or     (%eax),%eax
 856:	00 13                	add    %dl,(%ebx)
 858:	0d 00 03 08 3a       	or     $0x3a080300,%eax
 85d:	0b 3b                	or     (%ebx),%edi
 85f:	0b 49 13             	or     0x13(%ecx),%ecx
 862:	38 0b                	cmp    %cl,(%ebx)
 864:	00 00                	add    %al,(%eax)
 866:	14 34                	adc    $0x34,%al
 868:	00 03                	add    %al,(%ebx)
 86a:	0e                   	push   %cs
 86b:	3a 0b                	cmp    (%ebx),%cl
 86d:	3b 0b                	cmp    (%ebx),%ecx
 86f:	49                   	dec    %ecx
 870:	13 3f                	adc    (%edi),%edi
 872:	19 3c 19             	sbb    %edi,(%ecx,%ebx,1)
 875:	00 00                	add    %al,(%eax)
 877:	15 34 00 03 0e       	adc    $0xe030034,%eax
 87c:	3a 0b                	cmp    (%ebx),%cl
 87e:	3b 0b                	cmp    (%ebx),%ecx
 880:	49                   	dec    %ecx
 881:	13 02                	adc    (%edx),%eax
 883:	18 00                	sbb    %al,(%eax)
 885:	00 16                	add    %dl,(%esi)
 887:	2e 01 3f             	add    %edi,%cs:(%edi)
 88a:	19 03                	sbb    %eax,(%ebx)
 88c:	0e                   	push   %cs
 88d:	3a 0b                	cmp    (%ebx),%cl
 88f:	3b 0b                	cmp    (%ebx),%ecx
 891:	27                   	daa    
 892:	19 11                	sbb    %edx,(%ecx)
 894:	01 12                	add    %edx,(%edx)
 896:	06                   	push   %es
 897:	40                   	inc    %eax
 898:	18 96 42 19 00 00    	sbb    %dl,0x1942(%esi)
 89e:	17                   	pop    %ss
 89f:	05 00 03 08 3a       	add    $0x3a080300,%eax
 8a4:	0b 3b                	or     (%ebx),%edi
 8a6:	0b 49 13             	or     0x13(%ecx),%ecx
 8a9:	02 18                	add    (%eax),%bl
 8ab:	00 00                	add    %al,(%eax)
 8ad:	18 0b                	sbb    %cl,(%ebx)
 8af:	01 11                	add    %edx,(%ecx)
 8b1:	01 12                	add    %edx,(%edx)
 8b3:	06                   	push   %es
 8b4:	01 13                	add    %edx,(%ebx)
 8b6:	00 00                	add    %al,(%eax)
 8b8:	19 34 00             	sbb    %esi,(%eax,%eax,1)
 8bb:	03 08                	add    (%eax),%ecx
 8bd:	3a 0b                	cmp    (%ebx),%cl
 8bf:	3b 0b                	cmp    (%ebx),%ecx
 8c1:	49                   	dec    %ecx
 8c2:	13 02                	adc    (%edx),%eax
 8c4:	18 00                	sbb    %al,(%eax)
 8c6:	00 1a                	add    %bl,(%edx)
 8c8:	0b 01                	or     (%ecx),%eax
 8ca:	11 01                	adc    %eax,(%ecx)
 8cc:	12 06                	adc    (%esi),%al
 8ce:	00 00                	add    %al,(%eax)
 8d0:	00 01                	add    %al,(%ecx)
 8d2:	11 01                	adc    %eax,(%ecx)
 8d4:	25 0e 13 0b 03       	and    $0x30b130e,%eax
 8d9:	0e                   	push   %cs
 8da:	1b 0e                	sbb    (%esi),%ecx
 8dc:	11 01                	adc    %eax,(%ecx)
 8de:	12 06                	adc    (%esi),%al
 8e0:	10 17                	adc    %dl,(%edi)
 8e2:	00 00                	add    %al,(%eax)
 8e4:	02 24 00             	add    (%eax,%eax,1),%ah
 8e7:	0b 0b                	or     (%ebx),%ecx
 8e9:	3e 0b 03             	or     %ds:(%ebx),%eax
 8ec:	0e                   	push   %cs
 8ed:	00 00                	add    %al,(%eax)
 8ef:	03 24 00             	add    (%eax,%eax,1),%esp
 8f2:	0b 0b                	or     (%ebx),%ecx
 8f4:	3e 0b 03             	or     %ds:(%ebx),%eax
 8f7:	08 00                	or     %al,(%eax)
 8f9:	00 04 16             	add    %al,(%esi,%edx,1)
 8fc:	00 03                	add    %al,(%ebx)
 8fe:	0e                   	push   %cs
 8ff:	3a 0b                	cmp    (%ebx),%cl
 901:	3b 0b                	cmp    (%ebx),%ecx
 903:	49                   	dec    %ecx
 904:	13 00                	adc    (%eax),%eax
 906:	00 05 13 01 03 0e    	add    %al,0xe030113
 90c:	0b 0b                	or     (%ebx),%ecx
 90e:	3a 0b                	cmp    (%ebx),%cl
 910:	3b 0b                	cmp    (%ebx),%ecx
 912:	01 13                	add    %edx,(%ebx)
 914:	00 00                	add    %al,(%eax)
 916:	06                   	push   %es
 917:	0d 00 03 0e 3a       	or     $0x3a0e0300,%eax
 91c:	0b 3b                	or     (%ebx),%edi
 91e:	0b 49 13             	or     0x13(%ecx),%ecx
 921:	38 0b                	cmp    %cl,(%ebx)
 923:	00 00                	add    %al,(%eax)
 925:	07                   	pop    %es
 926:	0d 00 03 08 3a       	or     $0x3a080300,%eax
 92b:	0b 3b                	or     (%ebx),%edi
 92d:	0b 49 13             	or     0x13(%ecx),%ecx
 930:	38 0b                	cmp    %cl,(%ebx)
 932:	00 00                	add    %al,(%eax)
 934:	08 17                	or     %dl,(%edi)
 936:	01 0b                	add    %ecx,(%ebx)
 938:	0b 3a                	or     (%edx),%edi
 93a:	0b 3b                	or     (%ebx),%edi
 93c:	0b 01                	or     (%ecx),%eax
 93e:	13 00                	adc    (%eax),%eax
 940:	00 09                	add    %cl,(%ecx)
 942:	0d 00 03 0e 3a       	or     $0x3a0e0300,%eax
 947:	0b 3b                	or     (%ebx),%edi
 949:	0b 49 13             	or     0x13(%ecx),%ecx
 94c:	00 00                	add    %al,(%eax)
 94e:	0a 13                	or     (%ebx),%dl
 950:	01 0b                	add    %ecx,(%ebx)
 952:	0b 3a                	or     (%edx),%edi
 954:	0b 3b                	or     (%ebx),%edi
 956:	0b 01                	or     (%ecx),%eax
 958:	13 00                	adc    (%eax),%eax
 95a:	00 0b                	add    %cl,(%ebx)
 95c:	0d 00 49 13 00       	or     $0x134900,%eax
 961:	00 0c 0d 00 49 13 38 	add    %cl,0x38134900(,%ecx,1)
 968:	0b 00                	or     (%eax),%eax
 96a:	00 0d 0f 00 0b 0b    	add    %cl,0xb0b000f
 970:	49                   	dec    %ecx
 971:	13 00                	adc    (%eax),%eax
 973:	00 0e                	add    %cl,(%esi)
 975:	34 00                	xor    $0x0,%al
 977:	03 0e                	add    (%esi),%ecx
 979:	3a 0b                	cmp    (%ebx),%cl
 97b:	3b 0b                	cmp    (%ebx),%ecx
 97d:	49                   	dec    %ecx
 97e:	13 3f                	adc    (%edi),%edi
 980:	19 3c 19             	sbb    %edi,(%ecx,%ebx,1)
 983:	00 00                	add    %al,(%eax)
 985:	0f 2e 01             	ucomiss (%ecx),%xmm0
 988:	3f                   	aas    
 989:	19 03                	sbb    %eax,(%ebx)
 98b:	0e                   	push   %cs
 98c:	3a 0b                	cmp    (%ebx),%cl
 98e:	3b 0b                	cmp    (%ebx),%ecx
 990:	27                   	daa    
 991:	19 11                	sbb    %edx,(%ecx)
 993:	01 12                	add    %edx,(%edx)
 995:	06                   	push   %es
 996:	40                   	inc    %eax
 997:	18 96 42 19 01 13    	sbb    %dl,0x13011942(%esi)
 99d:	00 00                	add    %al,(%eax)
 99f:	10 05 00 03 0e 3a    	adc    %al,0x3a0e0300
 9a5:	0b 3b                	or     (%ebx),%edi
 9a7:	0b 49 13             	or     0x13(%ecx),%ecx
 9aa:	02 18                	add    (%eax),%bl
 9ac:	00 00                	add    %al,(%eax)
 9ae:	11 34 00             	adc    %esi,(%eax,%eax,1)
 9b1:	03 08                	add    (%eax),%ecx
 9b3:	3a 0b                	cmp    (%ebx),%cl
 9b5:	3b 0b                	cmp    (%ebx),%ecx
 9b7:	49                   	dec    %ecx
 9b8:	13 02                	adc    (%edx),%eax
 9ba:	18 00                	sbb    %al,(%eax)
 9bc:	00 00                	add    %al,(%eax)
 9be:	01 11                	add    %edx,(%ecx)
 9c0:	00 10                	add    %dl,(%eax)
 9c2:	06                   	push   %es
 9c3:	11 01                	adc    %eax,(%ecx)
 9c5:	12 01                	adc    (%ecx),%al
 9c7:	03 0e                	add    (%esi),%ecx
 9c9:	1b 0e                	sbb    (%esi),%ecx
 9cb:	25 0e 13 05 00       	and    $0x5130e,%eax
 9d0:	00 00                	add    %al,(%eax)
 9d2:	01 11                	add    %edx,(%ecx)
 9d4:	01 25 0e 13 0b 03    	add    %esp,0x30b130e
 9da:	0e                   	push   %cs
 9db:	1b 0e                	sbb    (%esi),%ecx
 9dd:	11 01                	adc    %eax,(%ecx)
 9df:	12 06                	adc    (%esi),%al
 9e1:	10 17                	adc    %dl,(%edi)
 9e3:	00 00                	add    %al,(%eax)
 9e5:	02 16                	add    (%esi),%dl
 9e7:	00 03                	add    %al,(%ebx)
 9e9:	0e                   	push   %cs
 9ea:	3a 0b                	cmp    (%ebx),%cl
 9ec:	3b 0b                	cmp    (%ebx),%ecx
 9ee:	49                   	dec    %ecx
 9ef:	13 00                	adc    (%eax),%eax
 9f1:	00 03                	add    %al,(%ebx)
 9f3:	24 00                	and    $0x0,%al
 9f5:	0b 0b                	or     (%ebx),%ecx
 9f7:	3e 0b 03             	or     %ds:(%ebx),%eax
 9fa:	0e                   	push   %cs
 9fb:	00 00                	add    %al,(%eax)
 9fd:	04 24                	add    $0x24,%al
 9ff:	00 0b                	add    %cl,(%ebx)
 a01:	0b 3e                	or     (%esi),%edi
 a03:	0b 03                	or     (%ebx),%eax
 a05:	08 00                	or     %al,(%eax)
 a07:	00 05 13 01 0b 0b    	add    %al,0xb0b0113
 a0d:	3a 0b                	cmp    (%ebx),%cl
 a0f:	3b 0b                	cmp    (%ebx),%ecx
 a11:	01 13                	add    %edx,(%ebx)
 a13:	00 00                	add    %al,(%eax)
 a15:	06                   	push   %es
 a16:	0d 00 03 0e 3a       	or     $0x3a0e0300,%eax
 a1b:	0b 3b                	or     (%ebx),%edi
 a1d:	0b 49 13             	or     0x13(%ecx),%ecx
 a20:	38 0b                	cmp    %cl,(%ebx)
 a22:	00 00                	add    %al,(%eax)
 a24:	07                   	pop    %es
 a25:	17                   	pop    %ss
 a26:	01 03                	add    %eax,(%ebx)
 a28:	0e                   	push   %cs
 a29:	0b 0b                	or     (%ebx),%ecx
 a2b:	3a 0b                	cmp    (%ebx),%cl
 a2d:	3b 0b                	cmp    (%ebx),%ecx
 a2f:	01 13                	add    %edx,(%ebx)
 a31:	00 00                	add    %al,(%eax)
 a33:	08 0d 00 03 08 3a    	or     %cl,0x3a080300
 a39:	0b 3b                	or     (%ebx),%edi
 a3b:	0b 49 13             	or     0x13(%ecx),%ecx
 a3e:	00 00                	add    %al,(%eax)
 a40:	09 0d 00 03 0e 3a    	or     %ecx,0x3a0e0300
 a46:	0b 3b                	or     (%ebx),%edi
 a48:	0b 49 13             	or     0x13(%ecx),%ecx
 a4b:	00 00                	add    %al,(%eax)
 a4d:	0a 0d 00 49 13 00    	or     0x134900,%cl
 a53:	00 0b                	add    %cl,(%ebx)
 a55:	01 01                	add    %eax,(%ecx)
 a57:	49                   	dec    %ecx
 a58:	13 01                	adc    (%ecx),%eax
 a5a:	13 00                	adc    (%eax),%eax
 a5c:	00 0c 21             	add    %cl,(%ecx,%eiz,1)
 a5f:	00 49 13             	add    %cl,0x13(%ecx)
 a62:	2f                   	das    
 a63:	0b 00                	or     (%eax),%eax
 a65:	00 0d 17 01 0b 0b    	add    %cl,0xb0b0117
 a6b:	3a 0b                	cmp    (%ebx),%cl
 a6d:	3b 0b                	cmp    (%ebx),%ecx
 a6f:	01 13                	add    %edx,(%ebx)
 a71:	00 00                	add    %al,(%eax)
 a73:	0e                   	push   %cs
 a74:	0d 00 49 13 38       	or     $0x38134900,%eax
 a79:	0b 00                	or     (%eax),%eax
 a7b:	00 0f                	add    %cl,(%edi)
 a7d:	13 01                	adc    (%ecx),%eax
 a7f:	03 0e                	add    (%esi),%ecx
 a81:	0b 0b                	or     (%ebx),%ecx
 a83:	3a 0b                	cmp    (%ebx),%cl
 a85:	3b 0b                	cmp    (%ebx),%ecx
 a87:	01 13                	add    %edx,(%ebx)
 a89:	00 00                	add    %al,(%eax)
 a8b:	10 0d 00 03 08 3a    	adc    %cl,0x3a080300
 a91:	0b 3b                	or     (%ebx),%edi
 a93:	0b 49 13             	or     0x13(%ecx),%ecx
 a96:	0b 0b                	or     (%ebx),%ecx
 a98:	0d 0b 0c 0b 38       	or     $0x380b0c0b,%eax
 a9d:	0b 00                	or     (%eax),%eax
 a9f:	00 11                	add    %dl,(%ecx)
 aa1:	0d 00 03 0e 3a       	or     $0x3a0e0300,%eax
 aa6:	0b 3b                	or     (%ebx),%edi
 aa8:	0b 49 13             	or     0x13(%ecx),%ecx
 aab:	0b 0b                	or     (%ebx),%ecx
 aad:	0d 0b 0c 0b 38       	or     $0x380b0c0b,%eax
 ab2:	0b 00                	or     (%eax),%eax
 ab4:	00 12                	add    %dl,(%edx)
 ab6:	0d 00 03 08 3a       	or     $0x3a080300,%eax
 abb:	0b 3b                	or     (%ebx),%edi
 abd:	0b 49 13             	or     0x13(%ecx),%ecx
 ac0:	38 0b                	cmp    %cl,(%ebx)
 ac2:	00 00                	add    %al,(%eax)
 ac4:	13 0f                	adc    (%edi),%ecx
 ac6:	00 0b                	add    %cl,(%ebx)
 ac8:	0b 49 13             	or     0x13(%ecx),%ecx
 acb:	00 00                	add    %al,(%eax)
 acd:	14 13                	adc    $0x13,%al
 acf:	01 03                	add    %eax,(%ebx)
 ad1:	0e                   	push   %cs
 ad2:	0b 05 3a 0b 3b 0b    	or     0xb3b0b3a,%eax
 ad8:	01 13                	add    %edx,(%ebx)
 ada:	00 00                	add    %al,(%eax)
 adc:	15 0d 00 03 0e       	adc    $0xe03000d,%eax
 ae1:	3a 0b                	cmp    (%ebx),%cl
 ae3:	3b 0b                	cmp    (%ebx),%ecx
 ae5:	49                   	dec    %ecx
 ae6:	13 38                	adc    (%eax),%edi
 ae8:	05 00 00 16 21       	add    $0x21160000,%eax
 aed:	00 49 13             	add    %cl,0x13(%ecx)
 af0:	2f                   	das    
 af1:	05 00 00 17 34       	add    $0x34170000,%eax
 af6:	00 03                	add    %al,(%ebx)
 af8:	08 3a                	or     %bh,(%edx)
 afa:	0b 3b                	or     (%ebx),%edi
 afc:	0b 49 13             	or     0x13(%ecx),%ecx
 aff:	3f                   	aas    
 b00:	19 3c 19             	sbb    %edi,(%ecx,%ebx,1)
 b03:	00 00                	add    %al,(%eax)
 b05:	18 34 00             	sbb    %dh,(%eax,%eax,1)
 b08:	47                   	inc    %edi
 b09:	13 3a                	adc    (%edx),%edi
 b0b:	0b 3b                	or     (%ebx),%edi
 b0d:	0b 02                	or     (%edx),%eax
 b0f:	18 00                	sbb    %al,(%eax)
 b11:	00 19                	add    %bl,(%ecx)
 b13:	2e 01 3f             	add    %edi,%cs:(%edi)
 b16:	19 03                	sbb    %eax,(%ebx)
 b18:	0e                   	push   %cs
 b19:	3a 0b                	cmp    (%ebx),%cl
 b1b:	3b 0b                	cmp    (%ebx),%ecx
 b1d:	11 01                	adc    %eax,(%ecx)
 b1f:	12 06                	adc    (%esi),%al
 b21:	40                   	inc    %eax
 b22:	18 96 42 19 01 13    	sbb    %dl,0x13011942(%esi)
 b28:	00 00                	add    %al,(%eax)
 b2a:	1a 34 00             	sbb    (%eax,%eax,1),%dh
 b2d:	03 0e                	add    (%esi),%ecx
 b2f:	3a 0b                	cmp    (%ebx),%cl
 b31:	3b 0b                	cmp    (%ebx),%ecx
 b33:	49                   	dec    %ecx
 b34:	13 02                	adc    (%edx),%eax
 b36:	18 00                	sbb    %al,(%eax)
 b38:	00 1b                	add    %bl,(%ebx)
 b3a:	0b 01                	or     (%ecx),%eax
 b3c:	11 01                	adc    %eax,(%ecx)
 b3e:	12 06                	adc    (%esi),%al
 b40:	00 00                	add    %al,(%eax)
 b42:	1c 34                	sbb    $0x34,%al
 b44:	00 03                	add    %al,(%ebx)
 b46:	08 3a                	or     %bh,(%edx)
 b48:	0b 3b                	or     (%ebx),%edi
 b4a:	0b 49 13             	or     0x13(%ecx),%ecx
 b4d:	02 18                	add    (%eax),%bl
 b4f:	00 00                	add    %al,(%eax)
 b51:	1d 2e 01 3f 19       	sbb    $0x193f012e,%eax
 b56:	03 0e                	add    (%esi),%ecx
 b58:	3a 0b                	cmp    (%ebx),%cl
 b5a:	3b 0b                	cmp    (%ebx),%ecx
 b5c:	27                   	daa    
 b5d:	19 11                	sbb    %edx,(%ecx)
 b5f:	01 12                	add    %edx,(%edx)
 b61:	06                   	push   %es
 b62:	40                   	inc    %eax
 b63:	18 97 42 19 01 13    	sbb    %dl,0x13011942(%edi)
 b69:	00 00                	add    %al,(%eax)
 b6b:	1e                   	push   %ds
 b6c:	05 00 03 08 3a       	add    $0x3a080300,%eax
 b71:	0b 3b                	or     (%ebx),%edi
 b73:	0b 49 13             	or     0x13(%ecx),%ecx
 b76:	02 18                	add    (%eax),%bl
 b78:	00 00                	add    %al,(%eax)
 b7a:	1f                   	pop    %ds
 b7b:	05 00 03 0e 3a       	add    $0x3a0e0300,%eax
 b80:	0b 3b                	or     (%ebx),%edi
 b82:	0b 49 13             	or     0x13(%ecx),%ecx
 b85:	02 18                	add    (%eax),%bl
 b87:	00 00                	add    %al,(%eax)
 b89:	20 2e                	and    %ch,(%esi)
 b8b:	01 3f                	add    %edi,(%edi)
 b8d:	19 03                	sbb    %eax,(%ebx)
 b8f:	0e                   	push   %cs
 b90:	3a 0b                	cmp    (%ebx),%cl
 b92:	3b 0b                	cmp    (%ebx),%ecx
 b94:	11 01                	adc    %eax,(%ecx)
 b96:	12 06                	adc    (%esi),%al
 b98:	40                   	inc    %eax
 b99:	18 96 42 19 00 00    	sbb    %dl,0x1942(%esi)
 b9f:	21 0b                	and    %ecx,(%ebx)
 ba1:	01 11                	add    %edx,(%ecx)
 ba3:	01 12                	add    %edx,(%edx)
 ba5:	06                   	push   %es
 ba6:	01 13                	add    %edx,(%ebx)
 ba8:	00 00                	add    %al,(%eax)
 baa:	00 01                	add    %al,(%ecx)
 bac:	11 01                	adc    %eax,(%ecx)
 bae:	25 0e 13 0b 03       	and    $0x30b130e,%eax
 bb3:	0e                   	push   %cs
 bb4:	1b 0e                	sbb    (%esi),%ecx
 bb6:	11 01                	adc    %eax,(%ecx)
 bb8:	12 06                	adc    (%esi),%al
 bba:	10 17                	adc    %dl,(%edi)
 bbc:	00 00                	add    %al,(%eax)
 bbe:	02 16                	add    (%esi),%dl
 bc0:	00 03                	add    %al,(%ebx)
 bc2:	0e                   	push   %cs
 bc3:	3a 0b                	cmp    (%ebx),%cl
 bc5:	3b 0b                	cmp    (%ebx),%ecx
 bc7:	49                   	dec    %ecx
 bc8:	13 00                	adc    (%eax),%eax
 bca:	00 03                	add    %al,(%ebx)
 bcc:	24 00                	and    $0x0,%al
 bce:	0b 0b                	or     (%ebx),%ecx
 bd0:	3e 0b 03             	or     %ds:(%ebx),%eax
 bd3:	0e                   	push   %cs
 bd4:	00 00                	add    %al,(%eax)
 bd6:	04 24                	add    $0x24,%al
 bd8:	00 0b                	add    %cl,(%ebx)
 bda:	0b 3e                	or     (%esi),%edi
 bdc:	0b 03                	or     (%ebx),%eax
 bde:	08 00                	or     %al,(%eax)
 be0:	00 05 0f 00 0b 0b    	add    %al,0xb0b000f
 be6:	49                   	dec    %ecx
 be7:	13 00                	adc    (%eax),%eax
 be9:	00 06                	add    %al,(%esi)
 beb:	13 01                	adc    (%ecx),%eax
 bed:	0b 0b                	or     (%ebx),%ecx
 bef:	3a 0b                	cmp    (%ebx),%cl
 bf1:	3b 0b                	cmp    (%ebx),%ecx
 bf3:	01 13                	add    %edx,(%ebx)
 bf5:	00 00                	add    %al,(%eax)
 bf7:	07                   	pop    %es
 bf8:	0d 00 03 0e 3a       	or     $0x3a0e0300,%eax
 bfd:	0b 3b                	or     (%ebx),%edi
 bff:	0b 49 13             	or     0x13(%ecx),%ecx
 c02:	38 0b                	cmp    %cl,(%ebx)
 c04:	00 00                	add    %al,(%eax)
 c06:	08 17                	or     %dl,(%edi)
 c08:	01 03                	add    %eax,(%ebx)
 c0a:	0e                   	push   %cs
 c0b:	0b 0b                	or     (%ebx),%ecx
 c0d:	3a 0b                	cmp    (%ebx),%cl
 c0f:	3b 0b                	cmp    (%ebx),%ecx
 c11:	01 13                	add    %edx,(%ebx)
 c13:	00 00                	add    %al,(%eax)
 c15:	09 0d 00 03 08 3a    	or     %ecx,0x3a080300
 c1b:	0b 3b                	or     (%ebx),%edi
 c1d:	0b 49 13             	or     0x13(%ecx),%ecx
 c20:	00 00                	add    %al,(%eax)
 c22:	0a 0d 00 03 0e 3a    	or     0x3a0e0300,%cl
 c28:	0b 3b                	or     (%ebx),%edi
 c2a:	0b 49 13             	or     0x13(%ecx),%ecx
 c2d:	00 00                	add    %al,(%eax)
 c2f:	0b 0d 00 49 13 00    	or     0x134900,%ecx
 c35:	00 0c 01             	add    %cl,(%ecx,%eax,1)
 c38:	01 49 13             	add    %ecx,0x13(%ecx)
 c3b:	01 13                	add    %edx,(%ebx)
 c3d:	00 00                	add    %al,(%eax)
 c3f:	0d 21 00 49 13       	or     $0x13490021,%eax
 c44:	2f                   	das    
 c45:	0b 00                	or     (%eax),%eax
 c47:	00 0e                	add    %cl,(%esi)
 c49:	17                   	pop    %ss
 c4a:	01 0b                	add    %ecx,(%ebx)
 c4c:	0b 3a                	or     (%edx),%edi
 c4e:	0b 3b                	or     (%ebx),%edi
 c50:	0b 01                	or     (%ecx),%eax
 c52:	13 00                	adc    (%eax),%eax
 c54:	00 0f                	add    %cl,(%edi)
 c56:	0d 00 49 13 38       	or     $0x38134900,%eax
 c5b:	0b 00                	or     (%eax),%eax
 c5d:	00 10                	add    %dl,(%eax)
 c5f:	13 01                	adc    (%ecx),%eax
 c61:	03 0e                	add    (%esi),%ecx
 c63:	0b 0b                	or     (%ebx),%ecx
 c65:	3a 0b                	cmp    (%ebx),%cl
 c67:	3b 0b                	cmp    (%ebx),%ecx
 c69:	01 13                	add    %edx,(%ebx)
 c6b:	00 00                	add    %al,(%eax)
 c6d:	11 0f                	adc    %ecx,(%edi)
 c6f:	00 0b                	add    %cl,(%ebx)
 c71:	0b 00                	or     (%eax),%eax
 c73:	00 12                	add    %dl,(%edx)
 c75:	0d 00 03 08 3a       	or     $0x3a080300,%eax
 c7a:	0b 3b                	or     (%ebx),%edi
 c7c:	0b 49 13             	or     0x13(%ecx),%ecx
 c7f:	0b 0b                	or     (%ebx),%ecx
 c81:	0d 0b 0c 0b 38       	or     $0x380b0c0b,%eax
 c86:	0b 00                	or     (%eax),%eax
 c88:	00 13                	add    %dl,(%ebx)
 c8a:	0d 00 03 0e 3a       	or     $0x3a0e0300,%eax
 c8f:	0b 3b                	or     (%ebx),%edi
 c91:	0b 49 13             	or     0x13(%ecx),%ecx
 c94:	0b 0b                	or     (%ebx),%ecx
 c96:	0d 0b 0c 0b 38       	or     $0x380b0c0b,%eax
 c9b:	0b 00                	or     (%eax),%eax
 c9d:	00 14 0d 00 03 08 3a 	add    %dl,0x3a080300(,%ecx,1)
 ca4:	0b 3b                	or     (%ebx),%edi
 ca6:	0b 49 13             	or     0x13(%ecx),%ecx
 ca9:	38 0b                	cmp    %cl,(%ebx)
 cab:	00 00                	add    %al,(%eax)
 cad:	15 13 01 03 0e       	adc    $0xe030113,%eax
 cb2:	0b 05 3a 0b 3b 0b    	or     0xb3b0b3a,%eax
 cb8:	01 13                	add    %edx,(%ebx)
 cba:	00 00                	add    %al,(%eax)
 cbc:	16                   	push   %ss
 cbd:	0d 00 03 0e 3a       	or     $0x3a0e0300,%eax
 cc2:	0b 3b                	or     (%ebx),%edi
 cc4:	0b 49 13             	or     0x13(%ecx),%ecx
 cc7:	38 05 00 00 17 21    	cmp    %al,0x21170000
 ccd:	00 49 13             	add    %cl,0x13(%ecx)
 cd0:	2f                   	das    
 cd1:	05 00 00 18 34       	add    $0x34180000,%eax
 cd6:	00 03                	add    %al,(%ebx)
 cd8:	08 3a                	or     %bh,(%edx)
 cda:	0b 3b                	or     (%ebx),%edi
 cdc:	0b 49 13             	or     0x13(%ecx),%ecx
 cdf:	3f                   	aas    
 ce0:	19 3c 19             	sbb    %edi,(%ecx,%ebx,1)
 ce3:	00 00                	add    %al,(%eax)
 ce5:	19 2e                	sbb    %ebp,(%esi)
 ce7:	01 3f                	add    %edi,(%edi)
 ce9:	19 03                	sbb    %eax,(%ebx)
 ceb:	0e                   	push   %cs
 cec:	3a 0b                	cmp    (%ebx),%cl
 cee:	3b 0b                	cmp    (%ebx),%ecx
 cf0:	27                   	daa    
 cf1:	19 11                	sbb    %edx,(%ecx)
 cf3:	01 12                	add    %edx,(%edx)
 cf5:	06                   	push   %es
 cf6:	40                   	inc    %eax
 cf7:	18 96 42 19 01 13    	sbb    %dl,0x13011942(%esi)
 cfd:	00 00                	add    %al,(%eax)
 cff:	1a 05 00 03 0e 3a    	sbb    0x3a0e0300,%al
 d05:	0b 3b                	or     (%ebx),%edi
 d07:	0b 49 13             	or     0x13(%ecx),%ecx
 d0a:	02 18                	add    (%eax),%bl
 d0c:	00 00                	add    %al,(%eax)
 d0e:	1b 05 00 03 08 3a    	sbb    0x3a080300,%eax
 d14:	0b 3b                	or     (%ebx),%edi
 d16:	0b 49 13             	or     0x13(%ecx),%ecx
 d19:	02 18                	add    (%eax),%bl
 d1b:	00 00                	add    %al,(%eax)
 d1d:	1c 34                	sbb    $0x34,%al
 d1f:	00 03                	add    %al,(%ebx)
 d21:	08 3a                	or     %bh,(%edx)
 d23:	0b 3b                	or     (%ebx),%edi
 d25:	0b 49 13             	or     0x13(%ecx),%ecx
 d28:	02 18                	add    (%eax),%bl
 d2a:	00 00                	add    %al,(%eax)
 d2c:	1d 2e 01 3f 19       	sbb    $0x193f012e,%eax
 d31:	03 0e                	add    (%esi),%ecx
 d33:	3a 0b                	cmp    (%ebx),%cl
 d35:	3b 0b                	cmp    (%ebx),%ecx
 d37:	27                   	daa    
 d38:	19 11                	sbb    %edx,(%ecx)
 d3a:	01 12                	add    %edx,(%edx)
 d3c:	06                   	push   %es
 d3d:	40                   	inc    %eax
 d3e:	18 97 42 19 01 13    	sbb    %dl,0x13011942(%edi)
 d44:	00 00                	add    %al,(%eax)
 d46:	1e                   	push   %ds
 d47:	2e 01 03             	add    %eax,%cs:(%ebx)
 d4a:	0e                   	push   %cs
 d4b:	3a 0b                	cmp    (%ebx),%cl
 d4d:	3b 0b                	cmp    (%ebx),%ecx
 d4f:	27                   	daa    
 d50:	19 49 13             	sbb    %ecx,0x13(%ecx)
 d53:	11 01                	adc    %eax,(%ecx)
 d55:	12 06                	adc    (%esi),%al
 d57:	40                   	inc    %eax
 d58:	18 97 42 19 00 00    	sbb    %dl,0x1942(%edi)
 d5e:	1f                   	pop    %ds
 d5f:	34 00                	xor    $0x0,%al
 d61:	03 0e                	add    (%esi),%ecx
 d63:	3a 0b                	cmp    (%ebx),%cl
 d65:	3b 0b                	cmp    (%ebx),%ecx
 d67:	49                   	dec    %ecx
 d68:	13 02                	adc    (%edx),%eax
 d6a:	18 00                	sbb    %al,(%eax)
 d6c:	00 20                	add    %ah,(%eax)
 d6e:	0b 01                	or     (%ecx),%eax
 d70:	11 01                	adc    %eax,(%ecx)
 d72:	12 06                	adc    (%esi),%al
 d74:	01 13                	add    %edx,(%ebx)
 d76:	00 00                	add    %al,(%eax)
 d78:	21 0b                	and    %ecx,(%ebx)
 d7a:	01 11                	add    %edx,(%ecx)
 d7c:	01 12                	add    %edx,(%edx)
 d7e:	06                   	push   %es
 d7f:	00 00                	add    %al,(%eax)
 d81:	00 01                	add    %al,(%ecx)
 d83:	11 01                	adc    %eax,(%ecx)
 d85:	25 0e 13 0b 03       	and    $0x30b130e,%eax
 d8a:	0e                   	push   %cs
 d8b:	1b 0e                	sbb    (%esi),%ecx
 d8d:	55                   	push   %ebp
 d8e:	17                   	pop    %ss
 d8f:	11 01                	adc    %eax,(%ecx)
 d91:	10 17                	adc    %dl,(%edi)
 d93:	00 00                	add    %al,(%eax)
 d95:	02 16                	add    (%esi),%dl
 d97:	00 03                	add    %al,(%ebx)
 d99:	0e                   	push   %cs
 d9a:	3a 0b                	cmp    (%ebx),%cl
 d9c:	3b 0b                	cmp    (%ebx),%ecx
 d9e:	49                   	dec    %ecx
 d9f:	13 00                	adc    (%eax),%eax
 da1:	00 03                	add    %al,(%ebx)
 da3:	24 00                	and    $0x0,%al
 da5:	0b 0b                	or     (%ebx),%ecx
 da7:	3e 0b 03             	or     %ds:(%ebx),%eax
 daa:	0e                   	push   %cs
 dab:	00 00                	add    %al,(%eax)
 dad:	04 24                	add    $0x24,%al
 daf:	00 0b                	add    %cl,(%ebx)
 db1:	0b 3e                	or     (%esi),%edi
 db3:	0b 03                	or     (%ebx),%eax
 db5:	08 00                	or     %al,(%eax)
 db7:	00 05 13 01 0b 0b    	add    %al,0xb0b0113
 dbd:	3a 0b                	cmp    (%ebx),%cl
 dbf:	3b 0b                	cmp    (%ebx),%ecx
 dc1:	01 13                	add    %edx,(%ebx)
 dc3:	00 00                	add    %al,(%eax)
 dc5:	06                   	push   %es
 dc6:	0d 00 03 0e 3a       	or     $0x3a0e0300,%eax
 dcb:	0b 3b                	or     (%ebx),%edi
 dcd:	0b 49 13             	or     0x13(%ecx),%ecx
 dd0:	38 0b                	cmp    %cl,(%ebx)
 dd2:	00 00                	add    %al,(%eax)
 dd4:	07                   	pop    %es
 dd5:	17                   	pop    %ss
 dd6:	01 03                	add    %eax,(%ebx)
 dd8:	0e                   	push   %cs
 dd9:	0b 0b                	or     (%ebx),%ecx
 ddb:	3a 0b                	cmp    (%ebx),%cl
 ddd:	3b 0b                	cmp    (%ebx),%ecx
 ddf:	01 13                	add    %edx,(%ebx)
 de1:	00 00                	add    %al,(%eax)
 de3:	08 0d 00 03 08 3a    	or     %cl,0x3a080300
 de9:	0b 3b                	or     (%ebx),%edi
 deb:	0b 49 13             	or     0x13(%ecx),%ecx
 dee:	00 00                	add    %al,(%eax)
 df0:	09 0d 00 03 0e 3a    	or     %ecx,0x3a0e0300
 df6:	0b 3b                	or     (%ebx),%edi
 df8:	0b 49 13             	or     0x13(%ecx),%ecx
 dfb:	00 00                	add    %al,(%eax)
 dfd:	0a 0d 00 49 13 00    	or     0x134900,%cl
 e03:	00 0b                	add    %cl,(%ebx)
 e05:	01 01                	add    %eax,(%ecx)
 e07:	49                   	dec    %ecx
 e08:	13 01                	adc    (%ecx),%eax
 e0a:	13 00                	adc    (%eax),%eax
 e0c:	00 0c 21             	add    %cl,(%ecx,%eiz,1)
 e0f:	00 49 13             	add    %cl,0x13(%ecx)
 e12:	2f                   	das    
 e13:	0b 00                	or     (%eax),%eax
 e15:	00 0d 17 01 0b 0b    	add    %cl,0xb0b0117
 e1b:	3a 0b                	cmp    (%ebx),%cl
 e1d:	3b 0b                	cmp    (%ebx),%ecx
 e1f:	01 13                	add    %edx,(%ebx)
 e21:	00 00                	add    %al,(%eax)
 e23:	0e                   	push   %cs
 e24:	0d 00 49 13 38       	or     $0x38134900,%eax
 e29:	0b 00                	or     (%eax),%eax
 e2b:	00 0f                	add    %cl,(%edi)
 e2d:	0f 00 0b             	str    (%ebx)
 e30:	0b 49 13             	or     0x13(%ecx),%ecx
 e33:	00 00                	add    %al,(%eax)
 e35:	10 13                	adc    %dl,(%ebx)
 e37:	01 03                	add    %eax,(%ebx)
 e39:	0e                   	push   %cs
 e3a:	0b 0b                	or     (%ebx),%ecx
 e3c:	3a 0b                	cmp    (%ebx),%cl
 e3e:	3b 0b                	cmp    (%ebx),%ecx
 e40:	01 13                	add    %edx,(%ebx)
 e42:	00 00                	add    %al,(%eax)
 e44:	11 0d 00 03 08 3a    	adc    %ecx,0x3a080300
 e4a:	0b 3b                	or     (%ebx),%edi
 e4c:	0b 49 13             	or     0x13(%ecx),%ecx
 e4f:	38 0b                	cmp    %cl,(%ebx)
 e51:	00 00                	add    %al,(%eax)
 e53:	12 0d 00 03 08 3a    	adc    0x3a080300,%cl
 e59:	0b 3b                	or     (%ebx),%edi
 e5b:	0b 49 13             	or     0x13(%ecx),%ecx
 e5e:	0b 0b                	or     (%ebx),%ecx
 e60:	0d 0b 0c 0b 38       	or     $0x380b0c0b,%eax
 e65:	0b 00                	or     (%eax),%eax
 e67:	00 13                	add    %dl,(%ebx)
 e69:	0d 00 03 0e 3a       	or     $0x3a0e0300,%eax
 e6e:	0b 3b                	or     (%ebx),%edi
 e70:	0b 49 13             	or     0x13(%ecx),%ecx
 e73:	0b 0b                	or     (%ebx),%ecx
 e75:	0d 0b 0c 0b 38       	or     $0x380b0c0b,%eax
 e7a:	0b 00                	or     (%eax),%eax
 e7c:	00 14 13             	add    %dl,(%ebx,%edx,1)
 e7f:	01 03                	add    %eax,(%ebx)
 e81:	0e                   	push   %cs
 e82:	0b 05 3a 0b 3b 0b    	or     0xb3b0b3a,%eax
 e88:	01 13                	add    %edx,(%ebx)
 e8a:	00 00                	add    %al,(%eax)
 e8c:	15 0d 00 03 0e       	adc    $0xe03000d,%eax
 e91:	3a 0b                	cmp    (%ebx),%cl
 e93:	3b 0b                	cmp    (%ebx),%ecx
 e95:	49                   	dec    %ecx
 e96:	13 38                	adc    (%eax),%edi
 e98:	05 00 00 16 21       	add    $0x21160000,%eax
 e9d:	00 49 13             	add    %cl,0x13(%ecx)
 ea0:	2f                   	das    
 ea1:	05 00 00 17 34       	add    $0x34170000,%eax
 ea6:	00 03                	add    %al,(%ebx)
 ea8:	08 3a                	or     %bh,(%edx)
 eaa:	0b 3b                	or     (%ebx),%edi
 eac:	0b 49 13             	or     0x13(%ecx),%ecx
 eaf:	3f                   	aas    
 eb0:	19 3c 19             	sbb    %edi,(%ecx,%ebx,1)
 eb3:	00 00                	add    %al,(%eax)
 eb5:	18 34 00             	sbb    %dh,(%eax,%eax,1)
 eb8:	03 0e                	add    (%esi),%ecx
 eba:	3a 0b                	cmp    (%ebx),%cl
 ebc:	3b 0b                	cmp    (%ebx),%ecx
 ebe:	49                   	dec    %ecx
 ebf:	13 3f                	adc    (%edi),%edi
 ec1:	19 3c 19             	sbb    %edi,(%ecx,%ebx,1)
 ec4:	00 00                	add    %al,(%eax)
 ec6:	19 34 00             	sbb    %esi,(%eax,%eax,1)
 ec9:	03 0e                	add    (%esi),%ecx
 ecb:	3a 0b                	cmp    (%ebx),%cl
 ecd:	3b 0b                	cmp    (%ebx),%ecx
 ecf:	49                   	dec    %ecx
 ed0:	13 3f                	adc    (%edi),%edi
 ed2:	19 02                	sbb    %eax,(%edx)
 ed4:	18 00                	sbb    %al,(%eax)
 ed6:	00 1a                	add    %bl,(%edx)
 ed8:	2e 01 3f             	add    %edi,%cs:(%edi)
 edb:	19 03                	sbb    %eax,(%ebx)
 edd:	08 3a                	or     %bh,(%edx)
 edf:	0b 3b                	or     (%ebx),%edi
 ee1:	0b 11                	or     (%ecx),%edx
 ee3:	01 12                	add    %edx,(%edx)
 ee5:	06                   	push   %es
 ee6:	40                   	inc    %eax
 ee7:	18 96 42 19 01 13    	sbb    %dl,0x13011942(%esi)
 eed:	00 00                	add    %al,(%eax)
 eef:	1b 34 00             	sbb    (%eax,%eax,1),%esi
 ef2:	03 0e                	add    (%esi),%ecx
 ef4:	3a 0b                	cmp    (%ebx),%cl
 ef6:	3b 0b                	cmp    (%ebx),%ecx
 ef8:	49                   	dec    %ecx
 ef9:	13 02                	adc    (%edx),%eax
 efb:	18 00                	sbb    %al,(%eax)
 efd:	00 1c 2e             	add    %bl,(%esi,%ebp,1)
 f00:	01 3f                	add    %edi,(%edi)
 f02:	19 03                	sbb    %eax,(%ebx)
 f04:	0e                   	push   %cs
 f05:	3a 0b                	cmp    (%ebx),%cl
 f07:	3b 0b                	cmp    (%ebx),%ecx
 f09:	11 01                	adc    %eax,(%ecx)
 f0b:	12 06                	adc    (%esi),%al
 f0d:	40                   	inc    %eax
 f0e:	18 96 42 19 01 13    	sbb    %dl,0x13011942(%esi)
 f14:	00 00                	add    %al,(%eax)
 f16:	1d 2e 00 3f 19       	sbb    $0x193f002e,%eax
 f1b:	03 0e                	add    (%esi),%ecx
 f1d:	3a 0b                	cmp    (%ebx),%cl
 f1f:	3b 0b                	cmp    (%ebx),%ecx
 f21:	11 01                	adc    %eax,(%ecx)
 f23:	12 06                	adc    (%esi),%al
 f25:	40                   	inc    %eax
 f26:	18 96 42 19 00 00    	sbb    %dl,0x1942(%esi)
 f2c:	1e                   	push   %ds
 f2d:	2e 00 3f             	add    %bh,%cs:(%edi)
 f30:	19 03                	sbb    %eax,(%ebx)
 f32:	0e                   	push   %cs
 f33:	3a 0b                	cmp    (%ebx),%cl
 f35:	3b 0b                	cmp    (%ebx),%ecx
 f37:	11 01                	adc    %eax,(%ecx)
 f39:	12 06                	adc    (%esi),%al
 f3b:	40                   	inc    %eax
 f3c:	18 97 42 19 00 00    	sbb    %dl,0x1942(%edi)
 f42:	1f                   	pop    %ds
 f43:	2e 01 3f             	add    %edi,%cs:(%edi)
 f46:	19 03                	sbb    %eax,(%ebx)
 f48:	0e                   	push   %cs
 f49:	3a 0b                	cmp    (%ebx),%cl
 f4b:	3b 0b                	cmp    (%ebx),%ecx
 f4d:	27                   	daa    
 f4e:	19 11                	sbb    %edx,(%ecx)
 f50:	01 12                	add    %edx,(%edx)
 f52:	06                   	push   %es
 f53:	40                   	inc    %eax
 f54:	18 97 42 19 00 00    	sbb    %dl,0x1942(%edi)
 f5a:	20 05 00 03 08 3a    	and    %al,0x3a080300
 f60:	0b 3b                	or     (%ebx),%edi
 f62:	0b 49 13             	or     0x13(%ecx),%ecx
 f65:	02 18                	add    (%eax),%bl
 f67:	00 00                	add    %al,(%eax)
	...

Disassembly of section .debug_aranges:

00000000 <.debug_aranges>:
   0:	1c 00                	sbb    $0x0,%al
   2:	00 00                	add    %al,(%eax)
   4:	02 00                	add    (%eax),%al
   6:	00 00                	add    %al,(%eax)
   8:	00 00                	add    %al,(%eax)
   a:	04 00                	add    $0x0,%al
   c:	00 00                	add    %al,(%eax)
   e:	00 00                	add    %al,(%eax)
  10:	10 30                	adc    %dh,(%eax)
  12:	30 00                	xor    %al,(%eax)
  14:	13 00                	adc    (%eax),%eax
	...
  1e:	00 00                	add    %al,(%eax)
  20:	1c 00                	sbb    $0x0,%al
  22:	00 00                	add    %al,(%eax)
  24:	02 00                	add    (%eax),%al
  26:	26 00 00             	add    %al,%es:(%eax)
  29:	00 04 00             	add    %al,(%eax,%eax,1)
  2c:	00 00                	add    %al,(%eax)
  2e:	00 00                	add    %al,(%eax)
  30:	23 30                	and    (%eax),%esi
  32:	30 00                	xor    %al,(%eax)
  34:	4a                   	dec    %edx
	...
  3d:	00 00                	add    %al,(%eax)
  3f:	00 1c 00             	add    %bl,(%eax,%eax,1)
  42:	00 00                	add    %al,(%eax)
  44:	02 00                	add    (%eax),%al
  46:	11 04 00             	adc    %eax,(%eax,%eax,1)
  49:	00 04 00             	add    %al,(%eax,%eax,1)
  4c:	00 00                	add    %al,(%eax)
  4e:	00 00                	add    %al,(%eax)
  50:	6d                   	insl   (%dx),%es:(%edi)
  51:	30 30                	xor    %dh,(%eax)
  53:	00 a3 08 00 00 00    	add    %ah,0x8(%ebx)
  59:	00 00                	add    %al,(%eax)
  5b:	00 00                	add    %al,(%eax)
  5d:	00 00                	add    %al,(%eax)
  5f:	00 1c 00             	add    %bl,(%eax,%eax,1)
  62:	00 00                	add    %al,(%eax)
  64:	02 00                	add    (%eax),%al
  66:	93                   	xchg   %eax,%ebx
  67:	0e                   	push   %cs
  68:	00 00                	add    %al,(%eax)
  6a:	04 00                	add    $0x0,%al
  6c:	00 00                	add    %al,(%eax)
  6e:	00 00                	add    %al,(%eax)
  70:	10 39                	adc    %bh,(%ecx)
  72:	30 00                	xor    %al,(%eax)
  74:	a2 02 00 00 00       	mov    %al,0x2
  79:	00 00                	add    %al,(%eax)
  7b:	00 00                	add    %al,(%eax)
  7d:	00 00                	add    %al,(%eax)
  7f:	00 1c 00             	add    %bl,(%eax,%eax,1)
  82:	00 00                	add    %al,(%eax)
  84:	02 00                	add    (%eax),%al
  86:	bc 17 00 00 04       	mov    $0x4000017,%esp
  8b:	00 00                	add    %al,(%eax)
  8d:	00 00                	add    %al,(%eax)
  8f:	00 b2 3b 30 00 88    	add    %dh,-0x77ffcfc5(%edx)
	...
  9d:	00 00                	add    %al,(%eax)
  9f:	00 1c 00             	add    %bl,(%eax,%eax,1)
  a2:	00 00                	add    %al,(%eax)
  a4:	02 00                	add    (%eax),%al
  a6:	c1 1a 00             	rcrl   $0x0,(%edx)
  a9:	00 04 00             	add    %al,(%eax,%eax,1)
  ac:	00 00                	add    %al,(%eax)
  ae:	00 00                	add    %al,(%eax)
  b0:	3a 3c 30             	cmp    (%eax,%esi,1),%bh
  b3:	00 d0                	add    %dl,%al
  b5:	02 00                	add    (%eax),%al
	...
  bf:	00 24 00             	add    %ah,(%eax,%eax,1)
  c2:	00 00                	add    %al,(%eax)
  c4:	02 00                	add    (%eax),%al
  c6:	78 2b                	js     f3 <mbh-0x2fff0d>
  c8:	00 00                	add    %al,(%eax)
  ca:	04 00                	add    $0x0,%al
  cc:	00 00                	add    %al,(%eax)
  ce:	00 00                	add    %al,(%eax)
  d0:	0a 3f                	or     (%edi),%bh
  d2:	30 00                	xor    %al,(%eax)
  d4:	1a 00                	sbb    (%eax),%al
  d6:	00 00                	add    %al,(%eax)
  d8:	10 20                	adc    %ah,(%eax)
  da:	30 00                	xor    %al,(%eax)
  dc:	fc                   	cld    
  dd:	0f 00 00             	sldt   (%eax)
	...
  e8:	1c 00                	sbb    $0x0,%al
  ea:	00 00                	add    %al,(%eax)
  ec:	02 00                	add    (%eax),%al
  ee:	9a 2b 00 00 04 00 00 	lcall  $0x0,$0x400002b
  f5:	00 00                	add    %al,(%eax)
  f7:	00 24 3f             	add    %ah,(%edi,%edi,1)
  fa:	30 00                	xor    %al,(%eax)
  fc:	72 01                	jb     ff <mbh-0x2fff01>
	...
 106:	00 00                	add    %al,(%eax)
 108:	1c 00                	sbb    $0x0,%al
 10a:	00 00                	add    %al,(%eax)
 10c:	02 00                	add    (%eax),%al
 10e:	d9 34 00             	fnstenv (%eax,%eax,1)
 111:	00 04 00             	add    %al,(%eax,%eax,1)
 114:	00 00                	add    %al,(%eax)
 116:	00 00                	add    %al,(%eax)
 118:	96                   	xchg   %eax,%esi
 119:	40                   	inc    %eax
 11a:	30 00                	xor    %al,(%eax)
 11c:	57                   	push   %edi
	...
 125:	00 00                	add    %al,(%eax)
 127:	00 1c 00             	add    %bl,(%eax,%eax,1)
 12a:	00 00                	add    %al,(%eax)
 12c:	02 00                	add    (%eax),%al
 12e:	a7                   	cmpsl  %es:(%edi),%ds:(%esi)
 12f:	38 00                	cmp    %al,(%eax)
 131:	00 04 00             	add    %al,(%eax,%eax,1)
 134:	00 00                	add    %al,(%eax)
 136:	00 00                	add    %al,(%eax)
 138:	ed                   	in     (%dx),%eax
 139:	40                   	inc    %eax
 13a:	30 00                	xor    %al,(%eax)
 13c:	07                   	pop    %es
	...
 145:	00 00                	add    %al,(%eax)
 147:	00 1c 00             	add    %bl,(%eax,%eax,1)
 14a:	00 00                	add    %al,(%eax)
 14c:	02 00                	add    (%eax),%al
 14e:	cd 38                	int    $0x38
 150:	00 00                	add    %al,(%eax)
 152:	04 00                	add    $0x0,%al
 154:	00 00                	add    %al,(%eax)
 156:	00 00                	add    %al,(%eax)
 158:	f4                   	hlt    
 159:	40                   	inc    %eax
 15a:	30 00                	xor    %al,(%eax)
 15c:	4b                   	dec    %ebx
 15d:	04 00                	add    $0x0,%al
	...
 167:	00 1c 00             	add    %bl,(%eax,%eax,1)
 16a:	00 00                	add    %al,(%eax)
 16c:	02 00                	add    (%eax),%al
 16e:	3e 43                	ds inc %ebx
 170:	00 00                	add    %al,(%eax)
 172:	04 00                	add    $0x0,%al
 174:	00 00                	add    %al,(%eax)
 176:	00 00                	add    %al,(%eax)
 178:	3f                   	aas    
 179:	45                   	inc    %ebp
 17a:	30 00                	xor    %al,(%eax)
 17c:	de 01                	fiadds (%ecx)
	...
 186:	00 00                	add    %al,(%eax)
 188:	2c 00                	sub    $0x0,%al
 18a:	00 00                	add    %al,(%eax)
 18c:	02 00                	add    (%eax),%al
 18e:	6d                   	insl   (%dx),%es:(%edi)
 18f:	52                   	push   %edx
 190:	00 00                	add    %al,(%eax)
 192:	04 00                	add    $0x0,%al
 194:	00 00                	add    %al,(%eax)
 196:	00 00                	add    %al,(%eax)
 198:	1d 47 30 00 18       	sbb    $0x18003047,%eax
 19d:	01 00                	add    %eax,(%eax)
 19f:	00 00                	add    %al,(%eax)
 1a1:	00 40 00             	add    %al,0x0(%eax)
 1a4:	11 00                	adc    %eax,(%eax)
 1a6:	00 00                	add    %al,(%eax)
 1a8:	00 00                	add    %al,(%eax)
 1aa:	80 00 13             	addb   $0x13,(%eax)
	...

Disassembly of section .debug_str:

00000000 <.debug_str>:
   0:	2e 2e 2f             	cs cs das 
   3:	6b 65 72 6e          	imul   $0x6e,0x72(%ebp),%esp
   7:	65 6c                	gs insb (%dx),%es:(%edi)
   9:	2f                   	das    
   a:	63 6f 72             	arpl   %bp,0x72(%edi)
   d:	65 2f                	gs das 
   f:	65 6e                	outsb  %gs:(%esi),(%dx)
  11:	74 72                	je     85 <mbh-0x2fff7b>
  13:	79 2e                	jns    43 <mbh-0x2fffbd>
  15:	73 00                	jae    17 <mbh-0x2fffe9>
  17:	2f                   	das    
  18:	68 6f 6d 65 2f       	push   $0x2f656d6f
  1d:	6a 69                	push   $0x69
  1f:	6e                   	outsb  %ds:(%esi),(%dx)
  20:	79 75                	jns    97 <mbh-0x2fff69>
  22:	2f                   	das    
  23:	65 78 61             	gs js  87 <mbh-0x2fff79>
  26:	6d                   	insl   (%dx),%es:(%edi)
  27:	5f                   	pop    %edi
  28:	73 65                	jae    8f <mbh-0x2fff71>
  2a:	63 6f 73             	arpl   %bp,0x73(%edi)
  2d:	2f                   	das    
  2e:	73 65                	jae    95 <mbh-0x2fff6b>
  30:	63 6f 73             	arpl   %bp,0x73(%edi)
  33:	2f                   	das    
  34:	74 70                	je     a6 <mbh-0x2fff5a>
  36:	5f                   	pop    %edi
  37:	65 78 61             	gs js  9b <mbh-0x2fff65>
  3a:	6d                   	insl   (%dx),%es:(%edi)
  3b:	00 47 4e             	add    %al,0x4e(%edi)
  3e:	55                   	push   %ebp
  3f:	20 41 53             	and    %al,0x53(%ecx)
  42:	20 32                	and    %dh,(%edx)
  44:	2e 33 30             	xor    %cs:(%eax),%esi
  47:	00 66 72             	add    %ah,0x72(%esi)
  4a:	61                   	popa   
  4b:	6d                   	insl   (%dx),%es:(%edi)
  4c:	65 62 75 66          	bound  %esi,%gs:0x66(%ebp)
  50:	66 65 72 5f          	data16 gs jb b3 <mbh-0x2fff4d>
  54:	62 6c 75 65          	bound  %ebp,0x65(%ebp,%esi,2)
  58:	5f                   	pop    %edi
  59:	6d                   	insl   (%dx),%es:(%edi)
  5a:	61                   	popa   
  5b:	73 6b                	jae    c8 <mbh-0x2fff38>
  5d:	5f                   	pop    %edi
  5e:	73 69                	jae    c9 <mbh-0x2fff37>
  60:	7a 65                	jp     c7 <mbh-0x2fff39>
  62:	00 6d 6d             	add    %ch,0x6d(%ebp)
  65:	61                   	popa   
  66:	70 5f                	jo     c7 <mbh-0x2fff39>
  68:	61                   	popa   
  69:	64 64 72 00          	fs fs jb 6d <mbh-0x2fff93>
  6d:	66 72 61             	data16 jb d1 <mbh-0x2fff2f>
  70:	6d                   	insl   (%dx),%es:(%edi)
  71:	65 62 75 66          	bound  %esi,%gs:0x66(%ebp)
  75:	66 65 72 5f          	data16 gs jb d8 <mbh-0x2fff28>
  79:	61                   	popa   
  7a:	64 64 72 00          	fs fs jb 7e <mbh-0x2fff82>
  7e:	76 62                	jbe    e2 <mbh-0x2fff1e>
  80:	65 5f                	gs pop %edi
  82:	69 6e 74 65 72 66 61 	imul   $0x61667265,0x74(%esi),%ebp
  89:	63 65 5f             	arpl   %sp,0x5f(%ebp)
  8c:	6f                   	outsl  %ds:(%esi),(%dx)
  8d:	66 66 00 6d 75       	data16 data16 add %ch,0x75(%ebp)
  92:	6c                   	insb   (%dx),%es:(%edi)
  93:	74 69                	je     fe <mbh-0x2fff02>
  95:	62 6f 6f             	bound  %ebp,0x6f(%edi)
  98:	74 5f                	je     f9 <mbh-0x2fff07>
  9a:	75 69                	jne    105 <mbh-0x2ffefb>
  9c:	6e                   	outsb  %ds:(%esi),(%dx)
  9d:	74 33                	je     d2 <mbh-0x2fff2e>
  9f:	32 5f 74             	xor    0x74(%edi),%bl
  a2:	00 73 68             	add    %dh,0x68(%ebx)
  a5:	6f                   	outsl  %ds:(%esi),(%dx)
  a6:	72 74                	jb     11c <mbh-0x2ffee4>
  a8:	20 69 6e             	and    %ch,0x6e(%ecx)
  ab:	74 00                	je     ad <mbh-0x2fff53>
  ad:	6d                   	insl   (%dx),%es:(%edi)
  ae:	75 6c                	jne    11c <mbh-0x2ffee4>
  b0:	74 69                	je     11b <mbh-0x2ffee5>
  b2:	62 6f 6f             	bound  %ebp,0x6f(%edi)
  b5:	74 5f                	je     116 <mbh-0x2ffeea>
  b7:	75 69                	jne    122 <mbh-0x2ffede>
  b9:	6e                   	outsb  %ds:(%esi),(%dx)
  ba:	74 31                	je     ed <mbh-0x2fff13>
  bc:	36 5f                	ss pop %edi
  be:	74 00                	je     c0 <mbh-0x2fff40>
  c0:	66 72 61             	data16 jb 124 <mbh-0x2ffedc>
  c3:	6d                   	insl   (%dx),%es:(%edi)
  c4:	65 62 75 66          	bound  %esi,%gs:0x66(%ebp)
  c8:	66 65 72 5f          	data16 gs jb 12b <mbh-0x2ffed5>
  cc:	72 65                	jb     133 <mbh-0x2ffecd>
  ce:	64 5f                	fs pop %edi
  d0:	66 69 65 6c 64 5f    	imul   $0x5f64,0x6c(%ebp),%sp
  d6:	70 6f                	jo     147 <mbh-0x2ffeb9>
  d8:	73 69                	jae    143 <mbh-0x2ffebd>
  da:	74 69                	je     145 <mbh-0x2ffebb>
  dc:	6f                   	outsl  %ds:(%esi),(%dx)
  dd:	6e                   	outsb  %ds:(%esi),(%dx)
  de:	00 5f 5f             	add    %bl,0x5f(%edi)
  e1:	69 6e 66 6f 00 64 72 	imul   $0x7264006f,0x66(%esi),%ebp
  e8:	69 76 65 73 5f 61 64 	imul   $0x64615f73,0x65(%esi),%esi
  ef:	64 72 00             	fs jb  f2 <mbh-0x2fff0e>
  f2:	63 6d 64             	arpl   %bp,0x64(%ebp)
  f5:	6c                   	insb   (%dx),%es:(%edi)
  f6:	69 6e 65 00 66 72 61 	imul   $0x61726600,0x65(%esi),%ebp
  fd:	6d                   	insl   (%dx),%es:(%edi)
  fe:	65 62 75 66          	bound  %esi,%gs:0x66(%ebp)
 102:	66 65 72 5f          	data16 gs jb 165 <mbh-0x2ffe9b>
 106:	62 6c 75 65          	bound  %ebp,0x65(%ebp,%esi,2)
 10a:	5f                   	pop    %edi
 10b:	66 69 65 6c 64 5f    	imul   $0x5f64,0x6c(%ebp),%sp
 111:	70 6f                	jo     182 <mbh-0x2ffe7e>
 113:	73 69                	jae    17e <mbh-0x2ffe82>
 115:	74 69                	je     180 <mbh-0x2ffe80>
 117:	6f                   	outsl  %ds:(%esi),(%dx)
 118:	6e                   	outsb  %ds:(%esi),(%dx)
 119:	00 61 6f             	add    %ah,0x6f(%ecx)
 11c:	75 74                	jne    192 <mbh-0x2ffe6e>
 11e:	5f                   	pop    %edi
 11f:	73 79                	jae    19a <mbh-0x2ffe66>
 121:	6d                   	insl   (%dx),%es:(%edi)
 122:	00 6d 6f             	add    %ch,0x6f(%ebp)
 125:	64 73 5f             	fs jae 187 <mbh-0x2ffe79>
 128:	61                   	popa   
 129:	64 64 72 00          	fs fs jb 12d <mbh-0x2ffed3>
 12d:	47                   	inc    %edi
 12e:	4e                   	dec    %esi
 12f:	55                   	push   %ebp
 130:	20 43 31             	and    %al,0x31(%ebx)
 133:	31 20                	xor    %esp,(%eax)
 135:	37                   	aaa    
 136:	2e 35 2e 30 20 2d    	cs xor $0x2d20302e,%eax
 13c:	6d                   	insl   (%dx),%es:(%edi)
 13d:	6e                   	outsb  %ds:(%esi),(%dx)
 13e:	6f                   	outsl  %ds:(%esi),(%dx)
 13f:	2d 6d 6d 78 20       	sub    $0x20786d6d,%eax
 144:	2d 6d 6e 6f 2d       	sub    $0x2d6f6e6d,%eax
 149:	73 73                	jae    1be <mbh-0x2ffe42>
 14b:	65 20 2d 6d 6e 6f 2d 	and    %ch,%gs:0x2d6f6e6d
 152:	73 73                	jae    1c7 <mbh-0x2ffe39>
 154:	65 32 20             	xor    %gs:(%eax),%ah
 157:	2d 6d 6e 6f 2d       	sub    $0x2d6f6e6d,%eax
 15c:	73 73                	jae    1d1 <mbh-0x2ffe2f>
 15e:	65 33 20             	xor    %gs:(%eax),%esp
 161:	2d 6d 6e 6f 2d       	sub    $0x2d6f6e6d,%eax
 166:	73 73                	jae    1db <mbh-0x2ffe25>
 168:	73 65                	jae    1cf <mbh-0x2ffe31>
 16a:	33 20                	xor    (%eax),%esp
 16c:	2d 6d 6e 6f 2d       	sub    $0x2d6f6e6d,%eax
 171:	73 73                	jae    1e6 <mbh-0x2ffe1a>
 173:	65 34 2e             	gs xor $0x2e,%al
 176:	31 20                	xor    %esp,(%eax)
 178:	2d 6d 6e 6f 2d       	sub    $0x2d6f6e6d,%eax
 17d:	73 73                	jae    1f2 <mbh-0x2ffe0e>
 17f:	65 34 2e             	gs xor $0x2e,%al
 182:	32 20                	xor    (%eax),%ah
 184:	2d 6d 6e 6f 2d       	sub    $0x2d6f6e6d,%eax
 189:	73 73                	jae    1fe <mbh-0x2ffe02>
 18b:	65 34 20             	gs xor $0x20,%al
 18e:	2d 6d 6e 6f 2d       	sub    $0x2d6f6e6d,%eax
 193:	61                   	popa   
 194:	76 78                	jbe    20e <mbh-0x2ffdf2>
 196:	20 2d 6d 6e 6f 2d    	and    %ch,0x2d6f6e6d
 19c:	61                   	popa   
 19d:	76 78                	jbe    217 <mbh-0x2ffde9>
 19f:	32 20                	xor    (%eax),%ah
 1a1:	2d 6d 6e 6f 2d       	sub    $0x2d6f6e6d,%eax
 1a6:	61                   	popa   
 1a7:	65 73 20             	gs jae 1ca <mbh-0x2ffe36>
 1aa:	2d 6d 6e 6f 2d       	sub    $0x2d6f6e6d,%eax
 1af:	70 63                	jo     214 <mbh-0x2ffdec>
 1b1:	6c                   	insb   (%dx),%es:(%edi)
 1b2:	6d                   	insl   (%dx),%es:(%edi)
 1b3:	75 6c                	jne    221 <mbh-0x2ffddf>
 1b5:	20 2d 6d 6e 6f 2d    	and    %ch,0x2d6f6e6d
 1bb:	66 73 67             	data16 jae 225 <mbh-0x2ffddb>
 1be:	73 62                	jae    222 <mbh-0x2ffdde>
 1c0:	61                   	popa   
 1c1:	73 65                	jae    228 <mbh-0x2ffdd8>
 1c3:	20 2d 6d 6e 6f 2d    	and    %ch,0x2d6f6e6d
 1c9:	72 64                	jb     22f <mbh-0x2ffdd1>
 1cb:	72 6e                	jb     23b <mbh-0x2ffdc5>
 1cd:	64 20 2d 6d 6e 6f 2d 	and    %ch,%fs:0x2d6f6e6d
 1d4:	66 31 36             	xor    %si,(%esi)
 1d7:	63 20                	arpl   %sp,(%eax)
 1d9:	2d 6d 6e 6f 2d       	sub    $0x2d6f6e6d,%eax
 1de:	66 6d                	insw   (%dx),%es:(%edi)
 1e0:	61                   	popa   
 1e1:	20 2d 6d 6e 6f 2d    	and    %ch,0x2d6f6e6d
 1e7:	73 73                	jae    25c <mbh-0x2ffda4>
 1e9:	65 34 61             	gs xor $0x61,%al
 1ec:	20 2d 6d 6e 6f 2d    	and    %ch,0x2d6f6e6d
 1f2:	66 6d                	insw   (%dx),%es:(%edi)
 1f4:	61                   	popa   
 1f5:	34 20                	xor    $0x20,%al
 1f7:	2d 6d 6e 6f 2d       	sub    $0x2d6f6e6d,%eax
 1fc:	78 6f                	js     26d <mbh-0x2ffd93>
 1fe:	70 20                	jo     220 <mbh-0x2ffde0>
 200:	2d 6d 6e 6f 2d       	sub    $0x2d6f6e6d,%eax
 205:	6c                   	insb   (%dx),%es:(%edi)
 206:	77 70                	ja     278 <mbh-0x2ffd88>
 208:	20 2d 6d 6e 6f 2d    	and    %ch,0x2d6f6e6d
 20e:	33 64 6e 6f          	xor    0x6f(%esi,%ebp,2),%esp
 212:	77 20                	ja     234 <mbh-0x2ffdcc>
 214:	2d 6d 6e 6f 2d       	sub    $0x2d6f6e6d,%eax
 219:	70 6f                	jo     28a <mbh-0x2ffd76>
 21b:	70 63                	jo     280 <mbh-0x2ffd80>
 21d:	6e                   	outsb  %ds:(%esi),(%dx)
 21e:	74 20                	je     240 <mbh-0x2ffdc0>
 220:	2d 6d 6e 6f 2d       	sub    $0x2d6f6e6d,%eax
 225:	61                   	popa   
 226:	62 6d 20             	bound  %ebp,0x20(%ebp)
 229:	2d 6d 6e 6f 2d       	sub    $0x2d6f6e6d,%eax
 22e:	62 6d 69             	bound  %ebp,0x69(%ebp)
 231:	20 2d 6d 6e 6f 2d    	and    %ch,0x2d6f6e6d
 237:	62 6d 69             	bound  %ebp,0x69(%ebp)
 23a:	32 20                	xor    (%eax),%ah
 23c:	2d 6d 6e 6f 2d       	sub    $0x2d6f6e6d,%eax
 241:	6c                   	insb   (%dx),%es:(%edi)
 242:	7a 63                	jp     2a7 <mbh-0x2ffd59>
 244:	6e                   	outsb  %ds:(%esi),(%dx)
 245:	74 20                	je     267 <mbh-0x2ffd99>
 247:	2d 6d 6e 6f 2d       	sub    $0x2d6f6e6d,%eax
 24c:	74 62                	je     2b0 <mbh-0x2ffd50>
 24e:	6d                   	insl   (%dx),%es:(%edi)
 24f:	20 2d 6d 33 32 20    	and    %ch,0x2032336d
 255:	2d 6d 74 75 6e       	sub    $0x6e75746d,%eax
 25a:	65 3d 67 65 6e 65    	gs cmp $0x656e6567,%eax
 260:	72 69                	jb     2cb <mbh-0x2ffd35>
 262:	63 20                	arpl   %sp,(%eax)
 264:	2d 6d 61 72 63       	sub    $0x6372616d,%eax
 269:	68 3d 69 36 38       	push   $0x3836693d
 26e:	36 20 2d 67 20 2d 66 	and    %ch,%ss:0x662d2067
 275:	66 72 65             	data16 jb 2dd <mbh-0x2ffd23>
 278:	65 73 74             	gs jae 2ef <mbh-0x2ffd11>
 27b:	61                   	popa   
 27c:	6e                   	outsb  %ds:(%esi),(%dx)
 27d:	64 69 6e 67 20 2d 66 	imul   $0x6d662d20,%fs:0x67(%esi),%ebp
 284:	6d 
 285:	73 2d                	jae    2b4 <mbh-0x2ffd4c>
 287:	65 78 74             	gs js  2fe <mbh-0x2ffd02>
 28a:	65 6e                	outsb  %gs:(%esi),(%dx)
 28c:	73 69                	jae    2f7 <mbh-0x2ffd09>
 28e:	6f                   	outsl  %ds:(%esi),(%dx)
 28f:	6e                   	outsb  %ds:(%esi),(%dx)
 290:	73 20                	jae    2b2 <mbh-0x2ffd4e>
 292:	2d 66 6e 6f 2d       	sub    $0x2d6f6e66,%eax
 297:	70 69                	jo     302 <mbh-0x2ffcfe>
 299:	63 00                	arpl   %ax,(%eax)
 29b:	73 74                	jae    311 <mbh-0x2ffcef>
 29d:	72 73                	jb     312 <mbh-0x2ffcee>
 29f:	69 7a 65 00 6d 75 6c 	imul   $0x6c756d00,0x65(%edx),%edi
 2a6:	74 69                	je     311 <mbh-0x2ffcef>
 2a8:	62 6f 6f             	bound  %ebp,0x6f(%edi)
 2ab:	74 5f                	je     30c <mbh-0x2ffcf4>
 2ad:	65 6c                	gs insb (%dx),%es:(%edi)
 2af:	66 5f                	pop    %di
 2b1:	73 65                	jae    318 <mbh-0x2ffce8>
 2b3:	63 74 69 6f          	arpl   %si,0x6f(%ecx,%ebp,2)
 2b7:	6e                   	outsb  %ds:(%esi),(%dx)
 2b8:	5f                   	pop    %edi
 2b9:	68 65 61 64 65       	push   $0x65646165
 2be:	72 5f                	jb     31f <mbh-0x2ffce1>
 2c0:	74 61                	je     323 <mbh-0x2ffcdd>
 2c2:	62 6c 65 5f          	bound  %ebp,0x5f(%ebp,%eiz,2)
 2c6:	74 00                	je     2c8 <mbh-0x2ffd38>
 2c8:	73 68                	jae    332 <mbh-0x2ffcce>
 2ca:	6e                   	outsb  %ds:(%esi),(%dx)
 2cb:	64 78 00             	fs js  2ce <mbh-0x2ffd32>
 2ce:	61                   	popa   
 2cf:	70 6d                	jo     33e <mbh-0x2ffcc2>
 2d1:	5f                   	pop    %edi
 2d2:	74 61                	je     335 <mbh-0x2ffccb>
 2d4:	62 6c 65 00          	bound  %ebp,0x0(%ebp,%eiz,2)
 2d8:	6c                   	insb   (%dx),%es:(%edi)
 2d9:	6f                   	outsl  %ds:(%esi),(%dx)
 2da:	6e                   	outsb  %ds:(%esi),(%dx)
 2db:	67 20 6c 6f          	and    %ch,0x6f(%si)
 2df:	6e                   	outsb  %ds:(%esi),(%dx)
 2e0:	67 20 69 6e          	and    %ch,0x6e(%bx,%di)
 2e4:	74 00                	je     2e6 <mbh-0x2ffd1a>
 2e6:	6d                   	insl   (%dx),%es:(%edi)
 2e7:	62 69 5f             	bound  %ebp,0x5f(%ecx)
 2ea:	74 00                	je     2ec <mbh-0x2ffd14>
 2ec:	66 72 61             	data16 jb 350 <mbh-0x2ffcb0>
 2ef:	6d                   	insl   (%dx),%es:(%edi)
 2f0:	65 62 75 66          	bound  %esi,%gs:0x66(%ebp)
 2f4:	66 65 72 5f          	data16 gs jb 357 <mbh-0x2ffca9>
 2f8:	70 61                	jo     35b <mbh-0x2ffca5>
 2fa:	6c                   	insb   (%dx),%es:(%edi)
 2fb:	65 74 74             	gs je  372 <mbh-0x2ffc8e>
 2fe:	65 5f                	gs pop %edi
 300:	6e                   	outsb  %ds:(%esi),(%dx)
 301:	75 6d                	jne    370 <mbh-0x2ffc90>
 303:	5f                   	pop    %edi
 304:	63 6f 6c             	arpl   %bp,0x6c(%edi)
 307:	6f                   	outsl  %ds:(%esi),(%dx)
 308:	72 73                	jb     37d <mbh-0x2ffc83>
 30a:	00 62 6f             	add    %ah,0x6f(%edx)
 30d:	6f                   	outsl  %ds:(%esi),(%dx)
 30e:	74 5f                	je     36f <mbh-0x2ffc91>
 310:	6c                   	insb   (%dx),%es:(%edi)
 311:	6f                   	outsl  %ds:(%esi),(%dx)
 312:	61                   	popa   
 313:	64 65 72 5f          	fs gs jb 376 <mbh-0x2ffc8a>
 317:	6e                   	outsb  %ds:(%esi),(%dx)
 318:	61                   	popa   
 319:	6d                   	insl   (%dx),%es:(%edi)
 31a:	65 00 2e             	add    %ch,%gs:(%esi)
 31d:	2e 2f                	cs das 
 31f:	6b 65 72 6e          	imul   $0x6e,0x72(%ebp),%esp
 323:	65 6c                	gs insb (%dx),%es:(%edi)
 325:	2f                   	das    
 326:	63 6f 72             	arpl   %bp,0x72(%edi)
 329:	65 2f                	gs das 
 32b:	73 74                	jae    3a1 <mbh-0x2ffc5f>
 32d:	61                   	popa   
 32e:	72 74                	jb     3a4 <mbh-0x2ffc5c>
 330:	2e 63 00             	arpl   %ax,%cs:(%eax)
 333:	66 72 61             	data16 jb 397 <mbh-0x2ffc69>
 336:	6d                   	insl   (%dx),%es:(%edi)
 337:	65 62 75 66          	bound  %esi,%gs:0x66(%ebp)
 33b:	66 65 72 5f          	data16 gs jb 39e <mbh-0x2ffc62>
 33f:	62 70 70             	bound  %esi,0x70(%eax)
 342:	00 76 62             	add    %dh,0x62(%esi)
 345:	65 5f                	gs pop %edi
 347:	6d                   	insl   (%dx),%es:(%edi)
 348:	6f                   	outsl  %ds:(%esi),(%dx)
 349:	64 65 5f             	fs gs pop %edi
 34c:	69 6e 66 6f 00 75 6e 	imul   $0x6e75006f,0x66(%esi),%ebp
 353:	73 69                	jae    3be <mbh-0x2ffc42>
 355:	67 6e                	outsb  %ds:(%si),(%dx)
 357:	65 64 20 63 68       	gs and %ah,%fs:0x68(%ebx)
 35c:	61                   	popa   
 35d:	72 00                	jb     35f <mbh-0x2ffca1>
 35f:	76 62                	jbe    3c3 <mbh-0x2ffc3d>
 361:	65 5f                	gs pop %edi
 363:	63 6f 6e             	arpl   %bp,0x6e(%edi)
 366:	74 72                	je     3da <mbh-0x2ffc26>
 368:	6f                   	outsl  %ds:(%esi),(%dx)
 369:	6c                   	insb   (%dx),%es:(%edi)
 36a:	5f                   	pop    %edi
 36b:	69 6e 66 6f 00 65 6c 	imul   $0x6c65006f,0x66(%esi),%ebp
 372:	66 5f                	pop    %di
 374:	73 65                	jae    3db <mbh-0x2ffc25>
 376:	63 00                	arpl   %ax,(%eax)
 378:	6d                   	insl   (%dx),%es:(%edi)
 379:	65 6d                	gs insl (%dx),%es:(%edi)
 37b:	5f                   	pop    %edi
 37c:	6c                   	insb   (%dx),%es:(%edi)
 37d:	6f                   	outsl  %ds:(%esi),(%dx)
 37e:	77 65                	ja     3e5 <mbh-0x2ffc1b>
 380:	72 00                	jb     382 <mbh-0x2ffc7e>
 382:	76 62                	jbe    3e6 <mbh-0x2ffc1a>
 384:	65 5f                	gs pop %edi
 386:	6d                   	insl   (%dx),%es:(%edi)
 387:	6f                   	outsl  %ds:(%esi),(%dx)
 388:	64 65 00 6c 6f 6e    	fs add %ch,%gs:0x6e(%edi,%ebp,2)
 38e:	67 20 6c 6f          	and    %ch,0x6f(%si)
 392:	6e                   	outsb  %ds:(%esi),(%dx)
 393:	67 20 75 6e          	and    %dh,0x6e(%di)
 397:	73 69                	jae    402 <mbh-0x2ffbfe>
 399:	67 6e                	outsb  %ds:(%si),(%dx)
 39b:	65 64 20 69 6e       	gs and %ch,%fs:0x6e(%ecx)
 3a0:	74 00                	je     3a2 <mbh-0x2ffc5e>
 3a2:	66 72 61             	data16 jb 406 <mbh-0x2ffbfa>
 3a5:	6d                   	insl   (%dx),%es:(%edi)
 3a6:	65 62 75 66          	bound  %esi,%gs:0x66(%ebp)
 3aa:	66 65 72 5f          	data16 gs jb 40d <mbh-0x2ffbf3>
 3ae:	77 69                	ja     419 <mbh-0x2ffbe7>
 3b0:	64 74 68             	fs je  41b <mbh-0x2ffbe5>
 3b3:	00 6d 6d             	add    %ch,0x6d(%ebp)
 3b6:	61                   	popa   
 3b7:	70 5f                	jo     418 <mbh-0x2ffbe8>
 3b9:	6c                   	insb   (%dx),%es:(%edi)
 3ba:	65 6e                	outsb  %gs:(%esi),(%dx)
 3bc:	67 74 68             	addr16 je 427 <mbh-0x2ffbd9>
 3bf:	00 66 72             	add    %ah,0x72(%esi)
 3c2:	61                   	popa   
 3c3:	6d                   	insl   (%dx),%es:(%edi)
 3c4:	65 62 75 66          	bound  %esi,%gs:0x66(%ebp)
 3c8:	66 65 72 5f          	data16 gs jb 42b <mbh-0x2ffbd5>
 3cc:	67 72 65             	addr16 jb 434 <mbh-0x2ffbcc>
 3cf:	65 6e                	outsb  %gs:(%esi),(%dx)
 3d1:	5f                   	pop    %edi
 3d2:	66 69 65 6c 64 5f    	imul   $0x5f64,0x6c(%ebp),%sp
 3d8:	70 6f                	jo     449 <mbh-0x2ffbb7>
 3da:	73 69                	jae    445 <mbh-0x2ffbbb>
 3dc:	74 69                	je     447 <mbh-0x2ffbb9>
 3de:	6f                   	outsl  %ds:(%esi),(%dx)
 3df:	6e                   	outsb  %ds:(%esi),(%dx)
 3e0:	00 69 6e             	add    %ch,0x6e(%ecx)
 3e3:	66 6f                	outsw  %ds:(%esi),(%dx)
 3e5:	72 6d                	jb     454 <mbh-0x2ffbac>
 3e7:	61                   	popa   
 3e8:	74 69                	je     453 <mbh-0x2ffbad>
 3ea:	6f                   	outsl  %ds:(%esi),(%dx)
 3eb:	6e                   	outsb  %ds:(%esi),(%dx)
 3ec:	00 73 74             	add    %dh,0x74(%ebx)
 3ef:	61                   	popa   
 3f0:	72 74                	jb     466 <mbh-0x2ffb9a>
 3f2:	00 73 68             	add    %dh,0x68(%ebx)
 3f5:	6f                   	outsl  %ds:(%esi),(%dx)
 3f6:	72 74                	jb     46c <mbh-0x2ffb94>
 3f8:	20 75 6e             	and    %dh,0x6e(%ebp)
 3fb:	73 69                	jae    466 <mbh-0x2ffb9a>
 3fd:	67 6e                	outsb  %ds:(%si),(%dx)
 3ff:	65 64 20 69 6e       	gs and %ch,%fs:0x6e(%ecx)
 404:	74 00                	je     406 <mbh-0x2ffbfa>
 406:	6d                   	insl   (%dx),%es:(%edi)
 407:	75 6c                	jne    475 <mbh-0x2ffb8b>
 409:	74 69                	je     474 <mbh-0x2ffb8c>
 40b:	62 6f 6f             	bound  %ebp,0x6f(%edi)
 40e:	74 5f                	je     46f <mbh-0x2ffb91>
 410:	75 69                	jne    47b <mbh-0x2ffb85>
 412:	6e                   	outsb  %ds:(%esi),(%dx)
 413:	74 36                	je     44b <mbh-0x2ffbb5>
 415:	34 5f                	xor    $0x5f,%al
 417:	74 00                	je     419 <mbh-0x2ffbe7>
 419:	62 6f 6f             	bound  %ebp,0x6f(%edi)
 41c:	74 5f                	je     47d <mbh-0x2ffb83>
 41e:	64 65 76 69          	fs gs jbe 48b <mbh-0x2ffb75>
 422:	63 65 00             	arpl   %sp,0x0(%ebp)
 425:	6d                   	insl   (%dx),%es:(%edi)
 426:	75 6c                	jne    494 <mbh-0x2ffb6c>
 428:	74 69                	je     493 <mbh-0x2ffb6d>
 42a:	62 6f 6f             	bound  %ebp,0x6f(%edi)
 42d:	74 5f                	je     48e <mbh-0x2ffb72>
 42f:	69 6e 66 6f 00 6d 75 	imul   $0x756d006f,0x66(%esi),%ebp
 436:	6c                   	insb   (%dx),%es:(%edi)
 437:	74 69                	je     4a2 <mbh-0x2ffb5e>
 439:	62 6f 6f             	bound  %ebp,0x6f(%edi)
 43c:	74 5f                	je     49d <mbh-0x2ffb63>
 43e:	65 6c                	gs insb (%dx),%es:(%edi)
 440:	66 5f                	pop    %di
 442:	73 65                	jae    4a9 <mbh-0x2ffb57>
 444:	63 74 69 6f          	arpl   %si,0x6f(%ecx,%ebp,2)
 448:	6e                   	outsb  %ds:(%esi),(%dx)
 449:	5f                   	pop    %edi
 44a:	68 65 61 64 65       	push   $0x65646165
 44f:	72 5f                	jb     4b0 <mbh-0x2ffb50>
 451:	74 61                	je     4b4 <mbh-0x2ffb4c>
 453:	62 6c 65 00          	bound  %ebp,0x0(%ebp,%eiz,2)
 457:	66 72 61             	data16 jb 4bb <mbh-0x2ffb45>
 45a:	6d                   	insl   (%dx),%es:(%edi)
 45b:	65 62 75 66          	bound  %esi,%gs:0x66(%ebp)
 45f:	66 65 72 5f          	data16 gs jb 4c2 <mbh-0x2ffb3e>
 463:	70 69                	jo     4ce <mbh-0x2ffb32>
 465:	74 63                	je     4ca <mbh-0x2ffb36>
 467:	68 00 66 72 61       	push   $0x61726600
 46c:	6d                   	insl   (%dx),%es:(%edi)
 46d:	65 62 75 66          	bound  %esi,%gs:0x66(%ebp)
 471:	66 65 72 5f          	data16 gs jb 4d4 <mbh-0x2ffb2c>
 475:	74 79                	je     4f0 <mbh-0x2ffb10>
 477:	70 65                	jo     4de <mbh-0x2ffb22>
 479:	00 6d 75             	add    %ch,0x75(%ebp)
 47c:	6c                   	insb   (%dx),%es:(%edi)
 47d:	74 69                	je     4e8 <mbh-0x2ffb18>
 47f:	62 6f 6f             	bound  %ebp,0x6f(%edi)
 482:	74 5f                	je     4e3 <mbh-0x2ffb1d>
 484:	61                   	popa   
 485:	6f                   	outsl  %ds:(%esi),(%dx)
 486:	75 74                	jne    4fc <mbh-0x2ffb04>
 488:	5f                   	pop    %edi
 489:	73 79                	jae    504 <mbh-0x2ffafc>
 48b:	6d                   	insl   (%dx),%es:(%edi)
 48c:	62 6f 6c             	bound  %ebp,0x6c(%edi)
 48f:	5f                   	pop    %edi
 490:	74 61                	je     4f3 <mbh-0x2ffb0d>
 492:	62 6c 65 5f          	bound  %ebp,0x5f(%ebp,%eiz,2)
 496:	74 00                	je     498 <mbh-0x2ffb68>
 498:	76 62                	jbe    4fc <mbh-0x2ffb04>
 49a:	65 5f                	gs pop %edi
 49c:	69 6e 74 65 72 66 61 	imul   $0x61667265,0x74(%esi),%ebp
 4a3:	63 65 5f             	arpl   %sp,0x5f(%ebp)
 4a6:	6c                   	insb   (%dx),%es:(%edi)
 4a7:	65 6e                	outsb  %gs:(%esi),(%dx)
 4a9:	00 74 61 62          	add    %dh,0x62(%ecx,%eiz,2)
 4ad:	73 69                	jae    518 <mbh-0x2ffae8>
 4af:	7a 65                	jp     516 <mbh-0x2ffaea>
 4b1:	00 66 72             	add    %ah,0x72(%esi)
 4b4:	61                   	popa   
 4b5:	6d                   	insl   (%dx),%es:(%edi)
 4b6:	65 62 75 66          	bound  %esi,%gs:0x66(%ebp)
 4ba:	66 65 72 5f          	data16 gs jb 51d <mbh-0x2ffae3>
 4be:	72 65                	jb     525 <mbh-0x2ffadb>
 4c0:	64 5f                	fs pop %edi
 4c2:	6d                   	insl   (%dx),%es:(%edi)
 4c3:	61                   	popa   
 4c4:	73 6b                	jae    531 <mbh-0x2ffacf>
 4c6:	5f                   	pop    %edi
 4c7:	73 69                	jae    532 <mbh-0x2fface>
 4c9:	7a 65                	jp     530 <mbh-0x2ffad0>
 4cb:	00 64 72 69          	add    %ah,0x69(%edx,%esi,2)
 4cf:	76 65                	jbe    536 <mbh-0x2ffaca>
 4d1:	73 5f                	jae    532 <mbh-0x2fface>
 4d3:	6c                   	insb   (%dx),%es:(%edi)
 4d4:	65 6e                	outsb  %gs:(%esi),(%dx)
 4d6:	67 74 68             	addr16 je 541 <mbh-0x2ffabf>
 4d9:	00 6d 65             	add    %ch,0x65(%ebp)
 4dc:	6d                   	insl   (%dx),%es:(%edi)
 4dd:	5f                   	pop    %edi
 4de:	75 70                	jne    550 <mbh-0x2ffab0>
 4e0:	70 65                	jo     547 <mbh-0x2ffab9>
 4e2:	72 00                	jb     4e4 <mbh-0x2ffb1c>
 4e4:	63 6f 6e             	arpl   %bp,0x6e(%edi)
 4e7:	66 69 67 5f 74 61    	imul   $0x6174,0x5f(%edi),%sp
 4ed:	62 6c 65 00          	bound  %ebp,0x0(%ebp,%eiz,2)
 4f1:	66 72 61             	data16 jb 555 <mbh-0x2ffaab>
 4f4:	6d                   	insl   (%dx),%es:(%edi)
 4f5:	65 62 75 66          	bound  %esi,%gs:0x66(%ebp)
 4f9:	66 65 72 5f          	data16 gs jb 55c <mbh-0x2ffaa4>
 4fd:	67 72 65             	addr16 jb 565 <mbh-0x2ffa9b>
 500:	65 6e                	outsb  %gs:(%esi),(%dx)
 502:	5f                   	pop    %edi
 503:	6d                   	insl   (%dx),%es:(%edi)
 504:	61                   	popa   
 505:	73 6b                	jae    572 <mbh-0x2ffa8e>
 507:	5f                   	pop    %edi
 508:	73 69                	jae    573 <mbh-0x2ffa8d>
 50a:	7a 65                	jp     571 <mbh-0x2ffa8f>
 50c:	00 6d 75             	add    %ch,0x75(%ebp)
 50f:	6c                   	insb   (%dx),%es:(%edi)
 510:	74 69                	je     57b <mbh-0x2ffa85>
 512:	62 6f 6f             	bound  %ebp,0x6f(%edi)
 515:	74 5f                	je     576 <mbh-0x2ffa8a>
 517:	69 6e 66 6f 5f 74 00 	imul   $0x745f6f,0x66(%esi),%ebp
 51e:	66 72 61             	data16 jb 582 <mbh-0x2ffa7e>
 521:	6d                   	insl   (%dx),%es:(%edi)
 522:	65 62 75 66          	bound  %esi,%gs:0x66(%ebp)
 526:	66 65 72 5f          	data16 gs jb 589 <mbh-0x2ffa77>
 52a:	68 65 69 67 68       	push   $0x68676965
 52f:	74 00                	je     531 <mbh-0x2ffacf>
 531:	6d                   	insl   (%dx),%es:(%edi)
 532:	75 6c                	jne    5a0 <mbh-0x2ffa60>
 534:	74 69                	je     59f <mbh-0x2ffa61>
 536:	62 6f 6f             	bound  %ebp,0x6f(%edi)
 539:	74 5f                	je     59a <mbh-0x2ffa66>
 53b:	61                   	popa   
 53c:	6f                   	outsl  %ds:(%esi),(%dx)
 53d:	75 74                	jne    5b3 <mbh-0x2ffa4d>
 53f:	5f                   	pop    %edi
 540:	73 79                	jae    5bb <mbh-0x2ffa45>
 542:	6d                   	insl   (%dx),%es:(%edi)
 543:	62 6f 6c             	bound  %ebp,0x6c(%edi)
 546:	5f                   	pop    %edi
 547:	74 61                	je     5aa <mbh-0x2ffa56>
 549:	62 6c 65 00          	bound  %ebp,0x0(%ebp,%eiz,2)
 54d:	6d                   	insl   (%dx),%es:(%edi)
 54e:	6f                   	outsl  %ds:(%esi),(%dx)
 54f:	64 73 5f             	fs jae 5b1 <mbh-0x2ffa4f>
 552:	63 6f 75             	arpl   %bp,0x75(%edi)
 555:	6e                   	outsb  %ds:(%esi),(%dx)
 556:	74 00                	je     558 <mbh-0x2ffaa8>
 558:	6d                   	insl   (%dx),%es:(%edi)
 559:	75 6c                	jne    5c7 <mbh-0x2ffa39>
 55b:	74 69                	je     5c6 <mbh-0x2ffa3a>
 55d:	62 6f 6f             	bound  %ebp,0x6f(%edi)
 560:	74 5f                	je     5c1 <mbh-0x2ffa3f>
 562:	75 69                	jne    5cd <mbh-0x2ffa33>
 564:	6e                   	outsb  %ds:(%esi),(%dx)
 565:	74 38                	je     59f <mbh-0x2ffa61>
 567:	5f                   	pop    %edi
 568:	74 00                	je     56a <mbh-0x2ffa96>
 56a:	76 62                	jbe    5ce <mbh-0x2ffa32>
 56c:	65 5f                	gs pop %edi
 56e:	69 6e 74 65 72 66 61 	imul   $0x61667265,0x74(%esi),%ebp
 575:	63 65 5f             	arpl   %sp,0x5f(%ebp)
 578:	73 65                	jae    5df <mbh-0x2ffa21>
 57a:	67 00 72 65          	add    %dh,0x65(%bp,%si)
 57e:	73 65                	jae    5e5 <mbh-0x2ffa1b>
 580:	72 76                	jb     5f8 <mbh-0x2ffa08>
 582:	65 64 00 66 72       	gs add %ah,%fs:0x72(%esi)
 587:	61                   	popa   
 588:	6d                   	insl   (%dx),%es:(%edi)
 589:	65 62 75 66          	bound  %esi,%gs:0x66(%ebp)
 58d:	66 65 72 5f          	data16 gs jb 5f0 <mbh-0x2ffa10>
 591:	70 61                	jo     5f4 <mbh-0x2ffa0c>
 593:	6c                   	insb   (%dx),%es:(%edi)
 594:	65 74 74             	gs je  60b <mbh-0x2ff9f5>
 597:	65 5f                	gs pop %edi
 599:	61                   	popa   
 59a:	64 64 72 00          	fs fs jb 59e <mbh-0x2ffa62>
 59e:	62 6c 6f 77          	bound  %ebp,0x77(%edi,%ebp,2)
 5a2:	00 76 61             	add    %dh,0x61(%esi)
 5a5:	6c                   	insb   (%dx),%es:(%edi)
 5a6:	75 65                	jne    60d <mbh-0x2ff9f3>
 5a8:	00 73 69             	add    %dh,0x69(%ebx)
 5ab:	7a 65                	jp     612 <mbh-0x2ff9ee>
 5ad:	5f                   	pop    %edi
 5ae:	74 00                	je     5b0 <mbh-0x2ffa50>
 5b0:	73 69                	jae    61b <mbh-0x2ff9e5>
 5b2:	6e                   	outsb  %ds:(%esi),(%dx)
 5b3:	74 33                	je     5e8 <mbh-0x2ffa18>
 5b5:	32 5f 74             	xor    0x74(%edi),%bl
 5b8:	00 73 74             	add    %dh,0x74(%ebx)
 5bb:	72 69                	jb     626 <mbh-0x2ff9da>
 5bd:	6e                   	outsb  %ds:(%esi),(%dx)
 5be:	67 00 76 70          	add    %dh,0x70(%bp)
 5c2:	72 69                	jb     62d <mbh-0x2ff9d3>
 5c4:	6e                   	outsb  %ds:(%esi),(%dx)
 5c5:	74 5f                	je     626 <mbh-0x2ff9da>
 5c7:	62 75 66             	bound  %esi,0x66(%ebp)
 5ca:	66 65 72 00          	data16 gs jb 5ce <mbh-0x2ffa32>
 5ce:	66 61                	popaw  
 5d0:	72 5f                	jb     631 <mbh-0x2ff9cf>
 5d2:	70 74                	jo     648 <mbh-0x2ff9b8>
 5d4:	72 36                	jb     60c <mbh-0x2ff9f4>
 5d6:	34 00                	xor    $0x0,%al
 5d8:	72 61                	jb     63b <mbh-0x2ff9c5>
 5da:	77 5f                	ja     63b <mbh-0x2ff9c5>
 5dc:	31 36                	xor    %esi,(%esi)
 5de:	5f                   	pop    %edi
 5df:	62 69 74             	bound  %ebp,0x74(%ecx)
 5e2:	73 5f                	jae    643 <mbh-0x2ff9bd>
 5e4:	65 6e                	outsb  %gs:(%esi),(%dx)
 5e6:	74 72                	je     65a <mbh-0x2ff9a6>
 5e8:	79 00                	jns    5ea <mbh-0x2ffa16>
 5ea:	66 70 74             	data16 jo 661 <mbh-0x2ff99f>
 5ed:	72 33                	jb     622 <mbh-0x2ff9de>
 5ef:	32 5f 74             	xor    0x74(%edi),%bl
 5f2:	00 6c 69 6e          	add    %ch,0x6e(%ecx,%ebp,2)
 5f6:	65 61                	gs popa 
 5f8:	72 00                	jb     5fa <mbh-0x2ffa06>
 5fa:	62 75 66             	bound  %esi,0x66(%ebp)
 5fd:	66 00 62 6f          	data16 add %ah,0x6f(%edx)
 601:	6f                   	outsl  %ds:(%esi),(%dx)
 602:	6c                   	insb   (%dx),%es:(%edi)
 603:	5f                   	pop    %edi
 604:	74 00                	je     606 <mbh-0x2ff9fa>
 606:	72 61                	jb     669 <mbh-0x2ff997>
 608:	77 31                	ja     63b <mbh-0x2ff9c5>
 60a:	36 5f                	ss pop %edi
 60c:	74 00                	je     60e <mbh-0x2ff9f2>
 60e:	70 61                	jo     671 <mbh-0x2ff98f>
 610:	6e                   	outsb  %ds:(%esi),(%dx)
 611:	69 63 00 69 6e 74 65 	imul   $0x65746e69,0x0(%ebx),%esp
 618:	72 70                	jb     68a <mbh-0x2ff976>
 61a:	00 5f 5f             	add    %bl,0x5f(%edi)
 61d:	62 75 69             	bound  %esi,0x69(%ebp)
 620:	6c                   	insb   (%dx),%es:(%edi)
 621:	74 69                	je     68c <mbh-0x2ff974>
 623:	6e                   	outsb  %ds:(%esi),(%dx)
 624:	5f                   	pop    %edi
 625:	76 61                	jbe    688 <mbh-0x2ff978>
 627:	5f                   	pop    %edi
 628:	6c                   	insb   (%dx),%es:(%edi)
 629:	69 73 74 00 72 61 77 	imul   $0x77617200,0x74(%ebx),%esi
 630:	5f                   	pop    %edi
 631:	36 34 5f             	ss xor $0x5f,%al
 634:	62 69 74             	bound  %ebp,0x74(%ecx)
 637:	73 5f                	jae    698 <mbh-0x2ff968>
 639:	65 6e                	outsb  %gs:(%esi),(%dx)
 63b:	74 72                	je     6af <mbh-0x2ff951>
 63d:	79 00                	jns    63f <mbh-0x2ff9c1>
 63f:	72 65                	jb     6a6 <mbh-0x2ff95a>
 641:	74 76                	je     6b9 <mbh-0x2ff947>
 643:	61                   	popa   
 644:	6c                   	insb   (%dx),%es:(%edi)
 645:	00 5f 5f             	add    %bl,0x5f(%edi)
 648:	66 6f                	outsw  %ds:(%esi),(%dx)
 64a:	72 6d                	jb     6b9 <mbh-0x2ff947>
 64c:	61                   	popa   
 64d:	74 5f                	je     6ae <mbh-0x2ff952>
 64f:	61                   	popa   
 650:	64 64 5f             	fs fs pop %edi
 653:	75 64                	jne    6b9 <mbh-0x2ff947>
 655:	65 63 00             	arpl   %ax,%gs:(%eax)
 658:	5f                   	pop    %edi
 659:	5f                   	pop    %edi
 65a:	76 73                	jbe    6cf <mbh-0x2ff931>
 65c:	6e                   	outsb  %ds:(%esi),(%dx)
 65d:	70 72                	jo     6d1 <mbh-0x2ff92f>
 65f:	69 6e 74 66 00 62 79 	imul   $0x79620066,0x74(%esi),%ebp
 666:	74 65                	je     6cd <mbh-0x2ff933>
 668:	00 62 75             	add    %ah,0x75(%edx)
 66b:	66 66 65 72 5f       	data16 data16 gs jb 6cf <mbh-0x2ff931>
 670:	74 00                	je     672 <mbh-0x2ff98e>
 672:	5f                   	pop    %edi
 673:	5f                   	pop    %edi
 674:	66 6f                	outsw  %ds:(%esi),(%dx)
 676:	72 6d                	jb     6e5 <mbh-0x2ff91b>
 678:	61                   	popa   
 679:	74 5f                	je     6da <mbh-0x2ff926>
 67b:	61                   	popa   
 67c:	64 64 5f             	fs fs pop %edi
 67f:	69 64 65 63 00 5f 6c 	imul   $0x6f6c5f00,0x63(%ebp,%eiz,2),%esp
 686:	6f 
 687:	77 00                	ja     689 <mbh-0x2ff977>
 689:	73 69                	jae    6f4 <mbh-0x2ff90c>
 68b:	6e                   	outsb  %ds:(%esi),(%dx)
 68c:	74 36                	je     6c4 <mbh-0x2ff93c>
 68e:	34 5f                	xor    $0x5f,%al
 690:	74 00                	je     692 <mbh-0x2ff96e>
 692:	62 68 69             	bound  %ebp,0x69(%eax)
 695:	67 68 00 5f 77 6c    	addr16 push $0x6c775f00
 69b:	6f                   	outsl  %ds:(%esi),(%dx)
 69c:	77 00                	ja     69e <mbh-0x2ff962>
 69e:	64 61                	fs popa 
 6a0:	74 61                	je     703 <mbh-0x2ff8fd>
 6a2:	00 2e                	add    %ch,(%esi)
 6a4:	2e 2f                	cs das 
 6a6:	6b 65 72 6e          	imul   $0x6e,0x72(%ebp),%esp
 6aa:	65 6c                	gs insb (%dx),%es:(%edi)
 6ac:	2f                   	das    
 6ad:	63 6f 72             	arpl   %bp,0x72(%edi)
 6b0:	65 2f                	gs das 
 6b2:	70 72                	jo     726 <mbh-0x2ff8da>
 6b4:	69 6e 74 2e 63 00 66 	imul   $0x6600632e,0x74(%esi),%ebp
 6bb:	61                   	popa   
 6bc:	72 5f                	jb     71d <mbh-0x2ff8e3>
 6be:	70 74                	jo     734 <mbh-0x2ff8cc>
 6c0:	72 31                	jb     6f3 <mbh-0x2ff90d>
 6c2:	36 00 5f 5f          	add    %bl,%ss:0x5f(%edi)
 6c6:	62 75 66             	bound  %esi,0x66(%ebp)
 6c9:	5f                   	pop    %edi
 6ca:	61                   	popa   
 6cb:	64 64 00 72 61       	fs add %dh,%fs:0x61(%edx)
 6d0:	77 5f                	ja     731 <mbh-0x2ff8cf>
 6d2:	33 32                	xor    (%edx),%esi
 6d4:	5f                   	pop    %edi
 6d5:	62 69 74             	bound  %ebp,0x74(%ecx)
 6d8:	73 5f                	jae    739 <mbh-0x2ff8c7>
 6da:	65 6e                	outsb  %gs:(%esi),(%dx)
 6dc:	74 72                	je     750 <mbh-0x2ff8b0>
 6de:	79 00                	jns    6e0 <mbh-0x2ff920>
 6e0:	75 69                	jne    74b <mbh-0x2ff8b5>
 6e2:	6e                   	outsb  %ds:(%esi),(%dx)
 6e3:	74 36                	je     71b <mbh-0x2ff8e5>
 6e5:	34 5f                	xor    $0x5f,%al
 6e7:	74 6f                	je     758 <mbh-0x2ff8a8>
 6e9:	5f                   	pop    %edi
 6ea:	68 65 78 00 5f       	push   $0x5f007865
 6ef:	68 69 67 68 00       	push   $0x686769
 6f4:	73 72                	jae    768 <mbh-0x2ff898>
 6f6:	61                   	popa   
 6f7:	77 00                	ja     6f9 <mbh-0x2ff907>
 6f9:	5f                   	pop    %edi
 6fa:	5f                   	pop    %edi
 6fb:	66 6f                	outsw  %ds:(%esi),(%dx)
 6fd:	72 6d                	jb     76c <mbh-0x2ff894>
 6ff:	61                   	popa   
 700:	74 5f                	je     761 <mbh-0x2ff89f>
 702:	61                   	popa   
 703:	64 64 5f             	fs fs pop %edi
 706:	73 74                	jae    77c <mbh-0x2ff884>
 708:	72 00                	jb     70a <mbh-0x2ff8f6>
 70a:	73 69                	jae    775 <mbh-0x2ff88b>
 70c:	6e                   	outsb  %ds:(%esi),(%dx)
 70d:	74 31                	je     740 <mbh-0x2ff8c0>
 70f:	36 5f                	ss pop %edi
 711:	74 00                	je     713 <mbh-0x2ff8ed>
 713:	5f                   	pop    %edi
 714:	5f                   	pop    %edi
 715:	66 6f                	outsw  %ds:(%esi),(%dx)
 717:	72 6d                	jb     786 <mbh-0x2ff87a>
 719:	61                   	popa   
 71a:	74 5f                	je     77b <mbh-0x2ff885>
 71c:	61                   	popa   
 71d:	64 64 5f             	fs fs pop %edi
 720:	68 65 78 00 5f       	push   $0x5f007865
 725:	5f                   	pop    %edi
 726:	68 65 78 74 61       	push   $0x61747865
 72b:	62 6c 65 00          	bound  %ebp,0x0(%ebp,%eiz,2)
 72f:	66 70 74             	data16 jo 7a6 <mbh-0x2ff85a>
 732:	72 36                	jb     76a <mbh-0x2ff896>
 734:	34 5f                	xor    $0x5f,%al
 736:	74 00                	je     738 <mbh-0x2ff8c8>
 738:	72 61                	jb     79b <mbh-0x2ff865>
 73a:	77 33                	ja     76f <mbh-0x2ff891>
 73c:	32 5f 74             	xor    0x74(%edi),%bl
 73f:	00 66 61             	add    %ah,0x61(%esi)
 742:	72 5f                	jb     7a3 <mbh-0x2ff85d>
 744:	70 74                	jo     7ba <mbh-0x2ff846>
 746:	72 33                	jb     77b <mbh-0x2ff885>
 748:	32 00                	xor    (%eax),%al
 74a:	66 61                	popaw  
 74c:	6c                   	insb   (%dx),%es:(%edi)
 74d:	73 65                	jae    7b4 <mbh-0x2ff84c>
 74f:	00 66 6f             	add    %ah,0x6f(%esi)
 752:	72 6d                	jb     7c1 <mbh-0x2ff83f>
 754:	61                   	popa   
 755:	74 00                	je     757 <mbh-0x2ff8a9>
 757:	5f                   	pop    %edi
 758:	5f                   	pop    %edi
 759:	76 70                	jbe    7cb <mbh-0x2ff835>
 75b:	72 69                	jb     7c6 <mbh-0x2ff83a>
 75d:	6e                   	outsb  %ds:(%esi),(%dx)
 75e:	74 66                	je     7c6 <mbh-0x2ff83a>
 760:	00 6c 6f 63          	add    %ch,0x63(%edi,%ebp,2)
 764:	61                   	popa   
 765:	74 69                	je     7d0 <mbh-0x2ff830>
 767:	6f                   	outsl  %ds:(%esi),(%dx)
 768:	6e                   	outsb  %ds:(%esi),(%dx)
 769:	00 6f 66             	add    %ch,0x66(%edi)
 76c:	66 73 65             	data16 jae 7d4 <mbh-0x2ff82c>
 76f:	74 5f                	je     7d0 <mbh-0x2ff830>
 771:	74 00                	je     773 <mbh-0x2ff88d>
 773:	70 61                	jo     7d6 <mbh-0x2ff82a>
 775:	72 61                	jb     7d8 <mbh-0x2ff828>
 777:	6d                   	insl   (%dx),%es:(%edi)
 778:	73 00                	jae    77a <mbh-0x2ff886>
 77a:	70 72                	jo     7ee <mbh-0x2ff812>
 77c:	65 63 69 73          	arpl   %bp,%gs:0x73(%ecx)
 780:	69 6f 6e 00 6f 66 66 	imul   $0x66666f00,0x6e(%edi),%ebp
 787:	73 65                	jae    7ee <mbh-0x2ff812>
 789:	74 00                	je     78b <mbh-0x2ff875>
 78b:	5f                   	pop    %edi
 78c:	5f                   	pop    %edi
 78d:	66 6f                	outsw  %ds:(%esi),(%dx)
 78f:	72 6d                	jb     7fe <mbh-0x2ff802>
 791:	61                   	popa   
 792:	74 5f                	je     7f3 <mbh-0x2ff80d>
 794:	61                   	popa   
 795:	64 64 5f             	fs fs pop %edi
 798:	62 69 6e             	bound  %ebp,0x6e(%ecx)
 79b:	00 5f 5f             	add    %bl,0x5f(%edi)
 79e:	66 6f                	outsw  %ds:(%esi),(%dx)
 7a0:	72 6d                	jb     80f <mbh-0x2ff7f1>
 7a2:	61                   	popa   
 7a3:	74 5f                	je     804 <mbh-0x2ff7fc>
 7a5:	61                   	popa   
 7a6:	64 64 5f             	fs fs pop %edi
 7a9:	63 68 72             	arpl   %bp,0x72(%eax)
 7ac:	00 66 70             	add    %ah,0x70(%esi)
 7af:	74 72                	je     823 <mbh-0x2ff7dd>
 7b1:	31 36                	xor    %esi,(%esi)
 7b3:	5f                   	pop    %edi
 7b4:	74 00                	je     7b6 <mbh-0x2ff84a>
 7b6:	5f                   	pop    %edi
 7b7:	77 68                	ja     821 <mbh-0x2ff7df>
 7b9:	69 67 68 00 73 69 6e 	imul   $0x6e697300,0x68(%edi),%esp
 7c0:	74 38                	je     7fa <mbh-0x2ff806>
 7c2:	5f                   	pop    %edi
 7c3:	74 00                	je     7c5 <mbh-0x2ff83b>
 7c5:	6c                   	insb   (%dx),%es:(%edi)
 7c6:	6f                   	outsl  %ds:(%esi),(%dx)
 7c7:	63 5f 74             	arpl   %bx,0x74(%edi)
 7ca:	00 72 61             	add    %dh,0x61(%edx)
 7cd:	77 36                	ja     805 <mbh-0x2ff7fb>
 7cf:	34 5f                	xor    $0x5f,%al
 7d1:	74 00                	je     7d3 <mbh-0x2ff82d>
 7d3:	74 72                	je     847 <mbh-0x2ff7b9>
 7d5:	75 65                	jne    83c <mbh-0x2ff7c4>
 7d7:	00 73 65             	add    %dh,0x65(%ebx)
 7da:	72 69                	jb     845 <mbh-0x2ff7bb>
 7dc:	61                   	popa   
 7dd:	6c                   	insb   (%dx),%es:(%edi)
 7de:	5f                   	pop    %edi
 7df:	6c                   	insb   (%dx),%es:(%edi)
 7e0:	63 72 5f             	arpl   %si,0x5f(%edx)
 7e3:	72 65                	jb     84a <mbh-0x2ff7b6>
 7e5:	67 69 73 74 65 72 00 	imul   $0x75007265,0x74(%bp,%di),%esi
 7ec:	75 
 7ed:	61                   	popa   
 7ee:	72 74                	jb     864 <mbh-0x2ff79c>
 7f0:	5f                   	pop    %edi
 7f1:	66 6c                	data16 insb (%dx),%es:(%edi)
 7f3:	75 73                	jne    868 <mbh-0x2ff798>
 7f5:	68 00 74 68 72       	push   $0x72687400
 7fa:	65 00 78 6f          	add    %bh,%gs:0x6f(%eax)
 7fe:	66 66 00 5f 5f       	data16 data16 add %bl,0x5f(%edi)
 803:	75 61                	jne    866 <mbh-0x2ff79a>
 805:	72 74                	jb     87b <mbh-0x2ff785>
 807:	5f                   	pop    %edi
 808:	66 6c                	data16 insb (%dx),%es:(%edi)
 80a:	75 73                	jne    87f <mbh-0x2ff781>
 80c:	68 5f 72 65 63       	push   $0x6365725f
 811:	76 00                	jbe    813 <mbh-0x2ff7ed>
 813:	75 61                	jne    876 <mbh-0x2ff78a>
 815:	72 74                	jb     88b <mbh-0x2ff775>
 817:	5f                   	pop    %edi
 818:	69 6e 69 74 00 72 78 	imul   $0x78720074,0x69(%esi),%ebp
 81f:	5f                   	pop    %edi
 820:	74 72                	je     894 <mbh-0x2ff76c>
 822:	69 67 67 65 72 00 5f 	imul   $0x5f007265,0x67(%edi),%esp
 829:	5f                   	pop    %edi
 82a:	75 61                	jne    88d <mbh-0x2ff773>
 82c:	72 74                	jb     8a2 <mbh-0x2ff75e>
 82e:	5f                   	pop    %edi
 82f:	63 6f 6d             	arpl   %bp,0x6d(%edi)
 832:	6d                   	insl   (%dx),%es:(%edi)
 833:	6f                   	outsl  %ds:(%esi),(%dx)
 834:	6e                   	outsb  %ds:(%esi),(%dx)
 835:	5f                   	pop    %edi
 836:	69 6e 69 74 00 73 65 	imul   $0x65730074,0x69(%esi),%ebp
 83d:	72 69                	jb     8a8 <mbh-0x2ff758>
 83f:	61                   	popa   
 840:	6c                   	insb   (%dx),%es:(%edi)
 841:	5f                   	pop    %edi
 842:	69 65 72 5f 72 65 67 	imul   $0x6765725f,0x72(%ebp),%esp
 849:	69 73 74 65 72 00 5f 	imul   $0x5f007265,0x74(%ebx),%esi
 850:	5f                   	pop    %edi
 851:	75 61                	jne    8b4 <mbh-0x2ff74c>
 853:	72 74                	jb     8c9 <mbh-0x2ff737>
 855:	5f                   	pop    %edi
 856:	77 72                	ja     8ca <mbh-0x2ff736>
 858:	69 74 65 00 73 65 72 	imul   $0x69726573,0x0(%ebp,%eiz,2),%esi
 85f:	69 
 860:	61                   	popa   
 861:	6c                   	insb   (%dx),%es:(%edi)
 862:	5f                   	pop    %edi
 863:	66 63 72 5f          	data16 arpl %si,0x5f(%edx)
 867:	72 65                	jb     8ce <mbh-0x2ff732>
 869:	67 69 73 74 65 72 00 	imul   $0x73007265,0x74(%bp,%di),%esi
 870:	73 
 871:	65 72 69             	gs jb  8dd <mbh-0x2ff723>
 874:	61                   	popa   
 875:	6c                   	insb   (%dx),%es:(%edi)
 876:	5f                   	pop    %edi
 877:	66 63 72 5f          	data16 arpl %si,0x5f(%edx)
 87b:	72 65                	jb     8e2 <mbh-0x2ff71e>
 87d:	67 5f                	addr16 pop %edi
 87f:	74 00                	je     881 <mbh-0x2ff77f>
 881:	2e 2e 2f             	cs cs das 
 884:	6b 65 72 6e          	imul   $0x6e,0x72(%ebp),%esp
 888:	65 6c                	gs insb (%dx),%es:(%edi)
 88a:	2f                   	das    
 88b:	63 6f 72             	arpl   %bp,0x72(%edi)
 88e:	65 2f                	gs das 
 890:	75 61                	jne    8f3 <mbh-0x2ff70d>
 892:	72 74                	jb     908 <mbh-0x2ff6f8>
 894:	2e 63 00             	arpl   %ax,%cs:(%eax)
 897:	70 61                	jo     8fa <mbh-0x2ff706>
 899:	72 69                	jb     904 <mbh-0x2ff6fc>
 89b:	74 79                	je     916 <mbh-0x2ff6ea>
 89d:	00 73 65             	add    %dh,0x65(%ebx)
 8a0:	72 69                	jb     90b <mbh-0x2ff6f5>
 8a2:	61                   	popa   
 8a3:	6c                   	insb   (%dx),%es:(%edi)
 8a4:	5f                   	pop    %edi
 8a5:	65 66 72 5f          	gs data16 jb 908 <mbh-0x2ff6f8>
 8a9:	72 65                	jb     910 <mbh-0x2ff6f0>
 8ab:	67 69 73 74 65 72 00 	imul   $0x73007265,0x74(%bp,%di),%esi
 8b2:	73 
 8b3:	6c                   	insb   (%dx),%es:(%edi)
 8b4:	65 65 70 00          	gs gs jo 8b8 <mbh-0x2ff748>
 8b8:	73 74                	jae    92e <mbh-0x2ff6d2>
 8ba:	6f                   	outsl  %ds:(%esi),(%dx)
 8bb:	70 00                	jo     8bd <mbh-0x2ff743>
 8bd:	61                   	popa   
 8be:	5f                   	pop    %edi
 8bf:	63 74 73 00          	arpl   %si,0x0(%ebx,%esi,2)
 8c3:	73 65                	jae    92a <mbh-0x2ff6d6>
 8c5:	72 69                	jb     930 <mbh-0x2ff6d0>
 8c7:	61                   	popa   
 8c8:	6c                   	insb   (%dx),%es:(%edi)
 8c9:	5f                   	pop    %edi
 8ca:	65 66 72 5f          	gs data16 jb 92d <mbh-0x2ff6d3>
 8ce:	72 65                	jb     935 <mbh-0x2ff6cb>
 8d0:	67 5f                	addr16 pop %edi
 8d2:	74 00                	je     8d4 <mbh-0x2ff72c>
 8d4:	65 6e                	outsb  %gs:(%esi),(%dx)
 8d6:	61                   	popa   
 8d7:	62 6c 65 00          	bound  %ebp,0x0(%ebp,%eiz,2)
 8db:	5f                   	pop    %edi
 8dc:	5f                   	pop    %edi
 8dd:	75 61                	jne    940 <mbh-0x2ff6c0>
 8df:	72 74                	jb     955 <mbh-0x2ff6ab>
 8e1:	5f                   	pop    %edi
 8e2:	66 69 66 6f 5f 69    	imul   $0x695f,0x6f(%esi),%sp
 8e8:	6e                   	outsb  %ds:(%esi),(%dx)
 8e9:	69 74 00 70 6f 72 74 	imul   $0x74726f,0x70(%eax,%eax,1),%esi
 8f0:	00 
 8f1:	73 65                	jae    958 <mbh-0x2ff6a8>
 8f3:	72 69                	jb     95e <mbh-0x2ff6a2>
 8f5:	61                   	popa   
 8f6:	6c                   	insb   (%dx),%es:(%edi)
 8f7:	5f                   	pop    %edi
 8f8:	6c                   	insb   (%dx),%es:(%edi)
 8f9:	63 72 5f             	arpl   %si,0x5f(%edx)
 8fc:	72 65                	jb     963 <mbh-0x2ff69d>
 8fe:	67 5f                	addr16 pop %edi
 900:	74 00                	je     902 <mbh-0x2ff6fe>
 902:	66 6c                	data16 insb (%dx),%es:(%edi)
 904:	6f                   	outsl  %ds:(%esi),(%dx)
 905:	77 5f                	ja     966 <mbh-0x2ff69a>
 907:	63 74 6c 00          	arpl   %si,0x0(%esp,%ebp,2)
 90b:	73 65                	jae    972 <mbh-0x2ff68e>
 90d:	72 69                	jb     978 <mbh-0x2ff688>
 90f:	61                   	popa   
 910:	6c                   	insb   (%dx),%es:(%edi)
 911:	5f                   	pop    %edi
 912:	69 65 72 5f 72 65 67 	imul   $0x6765725f,0x72(%ebp),%esp
 919:	5f                   	pop    %edi
 91a:	74 00                	je     91c <mbh-0x2ff6e4>
 91c:	61                   	popa   
 91d:	5f                   	pop    %edi
 91e:	72 74                	jb     994 <mbh-0x2ff66c>
 920:	73 00                	jae    922 <mbh-0x2ff6de>
 922:	5f                   	pop    %edi
 923:	5f                   	pop    %edi
 924:	75 61                	jne    987 <mbh-0x2ff679>
 926:	72 74                	jb     99c <mbh-0x2ff664>
 928:	5f                   	pop    %edi
 929:	72 65                	jb     990 <mbh-0x2ff670>
 92b:	61                   	popa   
 92c:	64 00 77 6f          	add    %dh,%fs:0x6f(%edi)
 930:	72 64                	jb     996 <mbh-0x2ff66a>
 932:	5f                   	pop    %edi
 933:	6c                   	insb   (%dx),%es:(%edi)
 934:	65 6e                	outsb  %gs:(%esi),(%dx)
 936:	00 74 78 5f          	add    %dh,0x5f(%eax,%edi,2)
 93a:	74 72                	je     9ae <mbh-0x2ff652>
 93c:	69 67 67 65 72 00 70 	imul   $0x70007265,0x67(%edi),%esp
 943:	69 63 5f 69 63 77 31 	imul   $0x31776369,0x5f(%ebx),%esp
 94a:	5f                   	pop    %edi
 94b:	74 00                	je     94d <mbh-0x2ff6b3>
 94d:	70 69                	jo     9b8 <mbh-0x2ff648>
 94f:	63 5f 69             	arpl   %bx,0x69(%edi)
 952:	6e                   	outsb  %ds:(%esi),(%dx)
 953:	69 74 5f 63 6f 6d 6d 	imul   $0x616d6d6f,0x63(%edi,%ebx,2),%esi
 95a:	61 
 95b:	6e                   	outsb  %ds:(%esi),(%dx)
 95c:	64 5f                	fs pop %edi
 95e:	77 6f                	ja     9cf <mbh-0x2ff631>
 960:	72 64                	jb     9c6 <mbh-0x2ff63a>
 962:	5f                   	pop    %edi
 963:	31 00                	xor    %eax,(%eax)
 965:	70 69                	jo     9d0 <mbh-0x2ff630>
 967:	63 5f 69             	arpl   %bx,0x69(%edi)
 96a:	6e                   	outsb  %ds:(%esi),(%dx)
 96b:	69 74 5f 63 6f 6d 6d 	imul   $0x616d6d6f,0x63(%edi,%ebx,2),%esi
 972:	61 
 973:	6e                   	outsb  %ds:(%esi),(%dx)
 974:	64 5f                	fs pop %edi
 976:	77 6f                	ja     9e7 <mbh-0x2ff619>
 978:	72 64                	jb     9de <mbh-0x2ff622>
 97a:	5f                   	pop    %edi
 97b:	32 00                	xor    (%eax),%al
 97d:	69 72 71 30 00 69 72 	imul   $0x72690030,0x71(%edx),%esi
 984:	71 31                	jno    9b7 <mbh-0x2ff649>
 986:	00 69 72             	add    %ch,0x72(%ecx)
 989:	71 32                	jno    9bd <mbh-0x2ff643>
 98b:	00 69 72             	add    %ch,0x72(%ecx)
 98e:	71 33                	jno    9c3 <mbh-0x2ff63d>
 990:	00 69 72             	add    %ch,0x72(%ecx)
 993:	71 34                	jno    9c9 <mbh-0x2ff637>
 995:	00 69 72             	add    %ch,0x72(%ecx)
 998:	71 35                	jno    9cf <mbh-0x2ff631>
 99a:	00 69 72             	add    %ch,0x72(%ecx)
 99d:	71 36                	jno    9d5 <mbh-0x2ff62b>
 99f:	00 69 72             	add    %ch,0x72(%ecx)
 9a2:	71 37                	jno    9db <mbh-0x2ff625>
 9a4:	00 61 65             	add    %ah,0x65(%ecx)
 9a7:	6f                   	outsl  %ds:(%esi),(%dx)
 9a8:	69 00 73 69 6e 67    	imul   $0x676e6973,(%eax),%eax
 9ae:	6c                   	insb   (%dx),%es:(%edi)
 9af:	65 00 70 69          	add    %dh,%gs:0x69(%eax)
 9b3:	63 5f 69             	arpl   %bx,0x69(%edi)
 9b6:	6e                   	outsb  %ds:(%esi),(%dx)
 9b7:	69 74 00 69 63 77 32 	imul   $0x327763,0x69(%eax,%eax,1),%esi
 9be:	00 
 9bf:	69 63 77 33 00 69 63 	imul   $0x63690033,0x77(%ebx),%esp
 9c6:	77 34                	ja     9fc <mbh-0x2ff604>
 9c8:	00 6d 61             	add    %ch,0x61(%ebp)
 9cb:	73 74                	jae    a41 <mbh-0x2ff5bf>
 9cd:	65 72 00             	gs jb  9d0 <mbh-0x2ff630>
 9d0:	69 72 71 5f 62 61 73 	imul   $0x7361625f,0x71(%edx),%esi
 9d7:	65 00 73 6c          	add    %dh,%gs:0x6c(%ebx)
 9db:	61                   	popa   
 9dc:	76 65                	jbe    a43 <mbh-0x2ff5bd>
 9de:	00 2e                	add    %ch,(%esi)
 9e0:	2e 2f                	cs das 
 9e2:	6b 65 72 6e          	imul   $0x6e,0x72(%ebp),%esp
 9e6:	65 6c                	gs insb (%dx),%es:(%edi)
 9e8:	2f                   	das    
 9e9:	63 6f 72             	arpl   %bp,0x72(%edi)
 9ec:	65 2f                	gs das 
 9ee:	70 69                	jo     a59 <mbh-0x2ff5a7>
 9f0:	63 2e                	arpl   %bp,(%esi)
 9f2:	63 00                	arpl   %ax,(%eax)
 9f4:	70 69                	jo     a5f <mbh-0x2ff5a1>
 9f6:	63 5f 69             	arpl   %bx,0x69(%edi)
 9f9:	6e                   	outsb  %ds:(%esi),(%dx)
 9fa:	69 74 5f 63 6f 6d 6d 	imul   $0x616d6d6f,0x63(%edi,%ebx,2),%esi
 a01:	61 
 a02:	6e                   	outsb  %ds:(%esi),(%dx)
 a03:	64 5f                	fs pop %edi
 a05:	77 6f                	ja     a76 <mbh-0x2ff58a>
 a07:	72 64                	jb     a6d <mbh-0x2ff593>
 a09:	5f                   	pop    %edi
 a0a:	33 00                	xor    (%eax),%eax
 a0c:	70 69                	jo     a77 <mbh-0x2ff589>
 a0e:	63 5f 69             	arpl   %bx,0x69(%edi)
 a11:	6e                   	outsb  %ds:(%esi),(%dx)
 a12:	69 74 5f 63 6f 6d 6d 	imul   $0x616d6d6f,0x63(%edi,%ebx,2),%esi
 a19:	61 
 a1a:	6e                   	outsb  %ds:(%esi),(%dx)
 a1b:	64 5f                	fs pop %edi
 a1d:	77 6f                	ja     a8e <mbh-0x2ff572>
 a1f:	72 64                	jb     a85 <mbh-0x2ff57b>
 a21:	5f                   	pop    %edi
 a22:	34 00                	xor    $0x0,%al
 a24:	6c                   	insb   (%dx),%es:(%edi)
 a25:	74 69                	je     a90 <mbh-0x2ff570>
 a27:	6d                   	insl   (%dx),%es:(%edi)
 a28:	00 70 69             	add    %dh,0x69(%eax)
 a2b:	63 5f 69             	arpl   %bx,0x69(%edi)
 a2e:	63 77 34             	arpl   %si,0x34(%edi)
 a31:	5f                   	pop    %edi
 a32:	74 00                	je     a34 <mbh-0x2ff5cc>
 a34:	70 69                	jo     a9f <mbh-0x2ff561>
 a36:	63 5f 69             	arpl   %bx,0x69(%edi)
 a39:	63 77 33             	arpl   %si,0x33(%edi)
 a3c:	5f                   	pop    %edi
 a3d:	74 00                	je     a3f <mbh-0x2ff5c1>
 a3f:	70 69                	jo     aaa <mbh-0x2ff556>
 a41:	63 5f 69             	arpl   %bx,0x69(%edi)
 a44:	63 77 32             	arpl   %si,0x32(%edi)
 a47:	5f                   	pop    %edi
 a48:	74 00                	je     a4a <mbh-0x2ff5b6>
 a4a:	69 63 77 31 00 76 65 	imul   $0x65760031,0x77(%ebx),%esp
 a51:	63 74 00 75          	arpl   %si,0x75(%eax,%eax,1)
 a55:	6e                   	outsb  %ds:(%esi),(%dx)
 a56:	75 73                	jne    acb <mbh-0x2ff535>
 a58:	65 64 00 73 66       	gs add %dh,%fs:0x66(%ebx)
 a5d:	6e                   	outsb  %ds:(%esi),(%dx)
 a5e:	6d                   	insl   (%dx),%es:(%edi)
 a5f:	00 7a 65             	add    %bh,0x65(%edx)
 a62:	72 6f                	jb     ad3 <mbh-0x2ff52d>
 a64:	00 74 61 73          	add    %dh,0x73(%ecx,%eiz,2)
 a68:	6b 5f 73 74          	imul   $0x74,0x73(%edi),%ebx
 a6c:	61                   	popa   
 a6d:	74 65                	je     ad4 <mbh-0x2ff52c>
 a6f:	5f                   	pop    %edi
 a70:	73 65                	jae    ad7 <mbh-0x2ff529>
 a72:	67 6d                	insl   (%dx),%es:(%di)
 a74:	65 6e                	outsb  %gs:(%esi),(%dx)
 a76:	74 5f                	je     ad7 <mbh-0x2ff529>
 a78:	6d                   	insl   (%dx),%es:(%edi)
 a79:	61                   	popa   
 a7a:	70 73                	jo     aef <mbh-0x2ff511>
 a7c:	00 74 61 73          	add    %dh,0x73(%ecx,%eiz,2)
 a80:	6b 5f 73 74          	imul   $0x74,0x73(%edi),%ebx
 a84:	61                   	popa   
 a85:	74 65                	je     aec <mbh-0x2ff514>
 a87:	5f                   	pop    %edi
 a88:	73 65                	jae    aef <mbh-0x2ff511>
 a8a:	67 6d                	insl   (%dx),%es:(%di)
 a8c:	65 6e                	outsb  %gs:(%esi),(%dx)
 a8e:	74 00                	je     a90 <mbh-0x2ff570>
 a90:	69 64 74 5f 72 65 67 	imul   $0x5f676572,0x5f(%esp,%esi,2),%esp
 a97:	5f 
 a98:	74 00                	je     a9a <mbh-0x2ff566>
 a9a:	76 65                	jbe    b01 <mbh-0x2ff4ff>
 a9c:	63 74 6f 72          	arpl   %si,0x72(%edi,%ebp,2)
 aa0:	00 70 61             	add    %dh,0x61(%eax)
 aa3:	67 65 5f             	addr16 gs pop %edi
 aa6:	64 69 72 65 63 74 6f 	imul   $0x726f7463,%fs:0x65(%edx),%esi
 aad:	72 
 aae:	79 5f                	jns    b0f <mbh-0x2ff4f1>
 ab0:	65 6e                	outsb  %gs:(%esi),(%dx)
 ab2:	74 72                	je     b26 <mbh-0x2ff4da>
 ab4:	79 00                	jns    ab6 <mbh-0x2ff54a>
 ab6:	2e 2e 2f             	cs cs das 
 ab9:	6b 65 72 6e          	imul   $0x6e,0x72(%ebp),%esp
 abd:	65 6c                	gs insb (%dx),%es:(%edi)
 abf:	2f                   	das    
 ac0:	63 6f 72             	arpl   %bp,0x72(%edi)
 ac3:	65 2f                	gs das 
 ac5:	69 6e 74 72 2e 63 00 	imul   $0x632e72,0x74(%esi),%ebp
 acc:	70 61                	jo     b2f <mbh-0x2ff4d1>
 ace:	67 65 5f             	addr16 gs pop %edi
 ad1:	66 61                	popaw  
 ad3:	75 6c                	jne    b41 <mbh-0x2ff4bf>
 ad5:	74 5f                	je     b36 <mbh-0x2ff4ca>
 ad7:	65 72 72             	gs jb  b4c <mbh-0x2ff4b4>
 ada:	6f                   	outsl  %ds:(%esi),(%dx)
 adb:	72 5f                	jb     b3c <mbh-0x2ff4c4>
 add:	63 6f 64             	arpl   %bp,0x64(%edi)
 ae0:	65 00 65 66          	add    %ah,%gs:0x66(%ebp)
 ae4:	6c                   	insb   (%dx),%es:(%edi)
 ae5:	61                   	popa   
 ae6:	67 73 5f             	addr16 jae b48 <mbh-0x2ff4b8>
 ae9:	72 65                	jb     b50 <mbh-0x2ff4b0>
 aeb:	67 5f                	addr16 pop %edi
 aed:	74 00                	je     aef <mbh-0x2ff511>
 aef:	70 66                	jo     b57 <mbh-0x2ff4a9>
 af1:	5f                   	pop    %edi
 af2:	65 72 72             	gs jb  b67 <mbh-0x2ff499>
 af5:	5f                   	pop    %edi
 af6:	74 00                	je     af8 <mbh-0x2ff508>
 af8:	69 6e 74 72 5f 69 6e 	imul   $0x6e695f72,0x74(%esi),%ebp
 aff:	69 74 00 74 61 73 6b 	imul   $0x5f6b7361,0x74(%eax,%eax,1),%esi
 b06:	5f 
 b07:	73 74                	jae    b7d <mbh-0x2ff483>
 b09:	61                   	popa   
 b0a:	74 65                	je     b71 <mbh-0x2ff48f>
 b0c:	5f                   	pop    %edi
 b0d:	73 65                	jae    b74 <mbh-0x2ff48c>
 b0f:	67 6d                	insl   (%dx),%es:(%di)
 b11:	65 6e                	outsb  %gs:(%esi),(%dx)
 b13:	74 5f                	je     b74 <mbh-0x2ff48c>
 b15:	74 72                	je     b89 <mbh-0x2ff477>
 b17:	61                   	popa   
 b18:	70 00                	jo     b1a <mbh-0x2ff4e6>
 b1a:	67 65 6e             	outsb  %gs:(%si),(%dx)
 b1d:	65 72 61             	gs jb  b81 <mbh-0x2ff47f>
 b20:	6c                   	insb   (%dx),%es:(%edi)
 b21:	5f                   	pop    %edi
 b22:	70 75                	jo     b99 <mbh-0x2ff467>
 b24:	72 70                	jb     b96 <mbh-0x2ff46a>
 b26:	6f                   	outsl  %ds:(%esi),(%dx)
 b27:	73 65                	jae    b8e <mbh-0x2ff472>
 b29:	5f                   	pop    %edi
 b2a:	72 65                	jb     b91 <mbh-0x2ff46f>
 b2c:	67 69 73 74 65 72 73 	imul   $0x737265,0x74(%bp,%di),%esi
 b33:	00 
 b34:	63 75 72             	arpl   %si,0x72(%ebp)
 b37:	72 65                	jb     b9e <mbh-0x2ff462>
 b39:	6e                   	outsb  %ds:(%esi),(%dx)
 b3a:	74 5f                	je     b9b <mbh-0x2ff465>
 b3c:	74 61                	je     b9f <mbh-0x2ff461>
 b3e:	73 6b                	jae    bab <mbh-0x2ff455>
 b40:	00 6b 72             	add    %ch,0x72(%ebx)
 b43:	6e                   	outsb  %ds:(%esi),(%dx)
 b44:	5f                   	pop    %edi
 b45:	73 74                	jae    bbb <mbh-0x2ff445>
 b47:	61                   	popa   
 b48:	63 6b 5f             	arpl   %bp,0x5f(%ebx)
 b4b:	65 62 70 00          	bound  %esi,%gs:0x0(%eax)
 b4f:	65 78 63             	gs js  bb5 <mbh-0x2ff44b>
 b52:	70 5f                	jo     bb3 <mbh-0x2ff44d>
 b54:	65 72 72             	gs jb  bc9 <mbh-0x2ff437>
 b57:	5f                   	pop    %edi
 b58:	63 6f 64             	arpl   %bp,0x64(%edi)
 b5b:	65 5f                	gs pop %edi
 b5d:	74 00                	je     b5f <mbh-0x2ff4a1>
 b5f:	67 65 6e             	outsb  %gs:(%si),(%dx)
 b62:	65 72 61             	gs jb  bc6 <mbh-0x2ff43a>
 b65:	6c                   	insb   (%dx),%es:(%edi)
 b66:	5f                   	pop    %edi
 b67:	70 75                	jo     bde <mbh-0x2ff422>
 b69:	72 70                	jb     bdb <mbh-0x2ff425>
 b6b:	6f                   	outsl  %ds:(%esi),(%dx)
 b6c:	73 65                	jae    bd3 <mbh-0x2ff42d>
 b6e:	5f                   	pop    %edi
 b6f:	72 65                	jb     bd6 <mbh-0x2ff42a>
 b71:	67 69 73 74 65 72 73 	imul   $0x5f737265,0x74(%bp,%di),%esi
 b78:	5f 
 b79:	63 6f 6e             	arpl   %bp,0x6e(%edi)
 b7c:	74 65                	je     be3 <mbh-0x2ff41d>
 b7e:	78 74                	js     bf4 <mbh-0x2ff40c>
 b80:	00 69 6e             	add    %ch,0x6e(%ecx)
 b83:	74 65                	je     bea <mbh-0x2ff416>
 b85:	72 72                	jb     bf9 <mbh-0x2ff407>
 b87:	75 70                	jne    bf9 <mbh-0x2ff407>
 b89:	74 5f                	je     bea <mbh-0x2ff416>
 b8b:	64 65 73 63          	fs gs jae bf2 <mbh-0x2ff40e>
 b8f:	72 69                	jb     bfa <mbh-0x2ff406>
 b91:	70 74                	jo     c07 <mbh-0x2ff3f9>
 b93:	6f                   	outsl  %ds:(%esi),(%dx)
 b94:	72 00                	jb     b96 <mbh-0x2ff46a>
 b96:	62 6f 75             	bound  %ebp,0x75(%edi)
 b99:	6e                   	outsb  %ds:(%esi),(%dx)
 b9a:	64 61                	fs popa 
 b9c:	72 79                	jb     c17 <mbh-0x2ff3e9>
 b9e:	00 74 61 73          	add    %dh,0x73(%ecx,%eiz,2)
 ba2:	6b 5f 73 74          	imul   $0x74,0x73(%edi),%ebx
 ba6:	61                   	popa   
 ba7:	74 65                	je     c0e <mbh-0x2ff3f2>
 ba9:	5f                   	pop    %edi
 baa:	73 65                	jae    c11 <mbh-0x2ff3ef>
 bac:	67 6d                	insl   (%dx),%es:(%di)
 bae:	65 6e                	outsb  %gs:(%esi),(%dx)
 bb0:	74 5f                	je     c11 <mbh-0x2ff3ef>
 bb2:	73 74                	jae    c28 <mbh-0x2ff3d8>
 bb4:	61                   	popa   
 bb5:	63 6b 00             	arpl   %bp,0x0(%ebx)
 bb8:	65 78 63             	gs js  c1e <mbh-0x2ff3e2>
 bbb:	65 70 74             	gs jo  c32 <mbh-0x2ff3ce>
 bbe:	69 6f 6e 33 32 5f 65 	imul   $0x655f3233,0x6e(%edi),%ebp
 bc5:	72 72                	jb     c39 <mbh-0x2ff3c7>
 bc7:	6f                   	outsl  %ds:(%esi),(%dx)
 bc8:	72 5f                	jb     c29 <mbh-0x2ff3d7>
 bca:	63 6f 64             	arpl   %bp,0x64(%edi)
 bcd:	65 00 74 73 73       	add    %dh,%gs:0x73(%ebx,%esi,2)
 bd2:	5f                   	pop    %edi
 bd3:	6d                   	insl   (%dx),%es:(%edi)
 bd4:	61                   	popa   
 bd5:	70 73                	jo     c4a <mbh-0x2ff3b6>
 bd7:	5f                   	pop    %edi
 bd8:	74 00                	je     bda <mbh-0x2ff426>
 bda:	74 73                	je     c4f <mbh-0x2ff3b1>
 bdc:	73 5f                	jae    c3d <mbh-0x2ff3c3>
 bde:	73 74                	jae    c54 <mbh-0x2ff3ac>
 be0:	61                   	popa   
 be1:	63 6b 5f             	arpl   %bp,0x5f(%ebx)
 be4:	74 00                	je     be6 <mbh-0x2ff41a>
 be6:	6c                   	insb   (%dx),%es:(%edi)
 be7:	69 6d 69 74 00 62 61 	imul   $0x61620074,0x69(%ebp),%ebp
 bee:	63 6b 5f             	arpl   %bp,0x5f(%ebx)
 bf1:	6c                   	insb   (%dx),%es:(%edi)
 bf2:	69 6e 6b 00 6b 72 6e 	imul   $0x6e726b00,0x6b(%esi),%ebp
 bf9:	5f                   	pop    %edi
 bfa:	73 74                	jae    c70 <mbh-0x2ff390>
 bfc:	61                   	popa   
 bfd:	63 6b 5f             	arpl   %bp,0x5f(%ebx)
 c00:	65 73 70             	gs jae c73 <mbh-0x2ff38d>
 c03:	00 69 6e             	add    %ch,0x6e(%ecx)
 c06:	74 65                	je     c6d <mbh-0x2ff393>
 c08:	72 72                	jb     c7c <mbh-0x2ff384>
 c0a:	75 70                	jne    c7c <mbh-0x2ff384>
 c0c:	74 5f                	je     c6d <mbh-0x2ff393>
 c0e:	64 65 73 63          	fs gs jae c75 <mbh-0x2ff38b>
 c12:	72 69                	jb     c7d <mbh-0x2ff383>
 c14:	70 74                	jo     c8a <mbh-0x2ff376>
 c16:	6f                   	outsl  %ds:(%esi),(%dx)
 c17:	72 5f                	jb     c78 <mbh-0x2ff388>
 c19:	74 61                	je     c7c <mbh-0x2ff384>
 c1b:	62 6c 65 5f          	bound  %ebp,0x5f(%ebp,%eiz,2)
 c1f:	72 65                	jb     c86 <mbh-0x2ff37a>
 c21:	67 69 73 74 65 72 00 	imul   $0x69007265,0x74(%bp,%di),%esi
 c28:	69 
 c29:	6e                   	outsb  %ds:(%esi),(%dx)
 c2a:	74 5f                	je     c8b <mbh-0x2ff375>
 c2c:	63 74 78 5f          	arpl   %si,0x5f(%eax,%edi,2)
 c30:	74 00                	je     c32 <mbh-0x2ff3ce>
 c32:	69 6e 74 72 5f 68 64 	imul   $0x64685f72,0x74(%esi),%ebp
 c39:	6c                   	insb   (%dx),%es:(%edi)
 c3a:	72 00                	jb     c3c <mbh-0x2ff3c4>
 c3c:	63 70 75             	arpl   %si,0x75(%eax)
 c3f:	5f                   	pop    %edi
 c40:	63 74 78 5f          	arpl   %si,0x5f(%eax,%edi,2)
 c44:	74 00                	je     c46 <mbh-0x2ff3ba>
 c46:	64 65 73 63          	fs gs jae cad <mbh-0x2ff353>
 c4a:	00 65 66             	add    %ah,0x66(%ebp)
 c4d:	6c                   	insb   (%dx),%es:(%edi)
 c4e:	61                   	popa   
 c4f:	67 73 00             	addr16 jae c52 <mbh-0x2ff3ae>
 c52:	67 70 72             	addr16 jo cc7 <mbh-0x2ff339>
 c55:	5f                   	pop    %edi
 c56:	63 74 78 5f          	arpl   %si,0x5f(%eax,%edi,2)
 c5a:	74 00                	je     c5c <mbh-0x2ff3a4>
 c5c:	73 65                	jae    cc3 <mbh-0x2ff33d>
 c5e:	6c                   	insb   (%dx),%es:(%edi)
 c5f:	65 63 74 6f 72       	arpl   %si,%gs:0x72(%edi,%ebp,2)
 c64:	5f                   	pop    %edi
 c65:	65 72 72             	gs jb  cda <mbh-0x2ff326>
 c68:	6f                   	outsl  %ds:(%esi),(%dx)
 c69:	72 5f                	jb     cca <mbh-0x2ff336>
 c6b:	63 6f 64             	arpl   %bp,0x64(%edi)
 c6e:	65 00 70 72          	add    %dh,%gs:0x72(%eax)
 c72:	69 6e 74 5f 69 6e 74 	imul   $0x746e695f,0x74(%esi),%ebp
 c79:	72 00                	jb     c7b <mbh-0x2ff385>
 c7b:	65 66 6c             	gs data16 insb (%dx),%es:(%edi)
 c7e:	61                   	popa   
 c7f:	67 73 5f             	addr16 jae ce1 <mbh-0x2ff31f>
 c82:	72 65                	jb     ce9 <mbh-0x2ff317>
 c84:	67 5f                	addr16 pop %edi
 c86:	66 69 65 6c 64 73    	imul   $0x7364,0x6c(%ebp),%sp
 c8c:	5f                   	pop    %edi
 c8d:	74 00                	je     c8f <mbh-0x2ff371>
 c8f:	73 6c                	jae    cfd <mbh-0x2ff303>
 c91:	5f                   	pop    %edi
 c92:	65 72 72             	gs jb  d07 <mbh-0x2ff2f9>
 c95:	5f                   	pop    %edi
 c96:	74 00                	je     c98 <mbh-0x2ff368>
 c98:	6f                   	outsl  %ds:(%esi),(%dx)
 c99:	66 66 73 65          	data16 data16 jae d02 <mbh-0x2ff2fe>
 c9d:	74 5f                	je     cfe <mbh-0x2ff302>
 c9f:	31 00                	xor    %eax,(%eax)
 ca1:	6f                   	outsl  %ds:(%esi),(%dx)
 ca2:	66 66 73 65          	data16 data16 jae d0b <mbh-0x2ff2f5>
 ca6:	74 5f                	je     d07 <mbh-0x2ff2f9>
 ca8:	32 00                	xor    (%eax),%al
 caa:	69 6e 74 5f 64 65 73 	imul   $0x7365645f,0x74(%esi),%ebp
 cb1:	63 5f 74             	arpl   %bx,0x74(%edi)
 cb4:	00 70 61             	add    %dh,0x61(%eax)
 cb7:	67 65 00 63 70       	add    %ah,%gs:0x70(%bp,%di)
 cbc:	75 5f                	jne    d1d <mbh-0x2ff2e3>
 cbe:	65 66 6c             	gs data16 insb (%dx),%es:(%edi)
 cc1:	61                   	popa   
 cc2:	67 73 5f             	addr16 jae d24 <mbh-0x2ff2dc>
 cc5:	72 65                	jb     d2c <mbh-0x2ff2d4>
 cc7:	67 69 73 74 65 72 00 	imul   $0x70007265,0x74(%bp,%di),%esi
 cce:	70 
 ccf:	64 65 33 32          	fs xor %gs:(%edx),%esi
 cd3:	5f                   	pop    %edi
 cd4:	74 00                	je     cd6 <mbh-0x2ff32a>
 cd6:	74 73                	je     d4b <mbh-0x2ff2b5>
 cd8:	73 5f                	jae    d39 <mbh-0x2ff2c7>
 cda:	74 72                	je     d4e <mbh-0x2ff2b2>
 cdc:	61                   	popa   
 cdd:	70 5f                	jo     d3e <mbh-0x2ff2c2>
 cdf:	74 00                	je     ce1 <mbh-0x2ff31f>
 ce1:	63 70 75             	arpl   %si,0x75(%eax)
 ce4:	5f                   	pop    %edi
 ce5:	65 66 6c             	gs data16 insb (%dx),%es:(%edi)
 ce8:	61                   	popa   
 ce9:	67 73 5f             	addr16 jae d4b <mbh-0x2ff2b5>
 cec:	72 65                	jb     d53 <mbh-0x2ff2ad>
 cee:	67 69 73 74 65 72 5f 	imul   $0x665f7265,0x74(%bp,%di),%esi
 cf5:	66 
 cf6:	69 65 6c 64 73 00 69 	imul   $0x69007364,0x6c(%ebp),%esp
 cfd:	6e                   	outsb  %ds:(%esi),(%dx)
 cfe:	74 72                	je     d72 <mbh-0x2ff28e>
 d00:	38 30                	cmp    %dh,(%eax)
 d02:	5f                   	pop    %edi
 d03:	68 64 6c 72 00       	push   $0x726c64
 d08:	69 64 74 72 00 63 70 	imul   $0x75706300,0x72(%esp,%esi,2),%esp
 d0f:	75 
 d10:	5f                   	pop    %edi
 d11:	63 6f 6e             	arpl   %bp,0x6e(%edi)
 d14:	74 65                	je     d7b <mbh-0x2ff285>
 d16:	78 74                	js     d8c <mbh-0x2ff274>
 d18:	00 69 6e             	add    %ch,0x6e(%ecx)
 d1b:	74 65                	je     d82 <mbh-0x2ff27e>
 d1d:	72 72                	jb     d91 <mbh-0x2ff26f>
 d1f:	75 70                	jne    d91 <mbh-0x2ff26f>
 d21:	74 5f                	je     d82 <mbh-0x2ff27e>
 d23:	63 6f 6e             	arpl   %bp,0x6e(%edi)
 d26:	74 65                	je     d8d <mbh-0x2ff273>
 d28:	78 74                	js     d9e <mbh-0x2ff262>
 d2a:	00 69 6f             	add    %ch,0x6f(%ecx)
 d2d:	70 6c                	jo     d9b <mbh-0x2ff265>
 d2f:	00 69 6e             	add    %ch,0x6e(%ecx)
 d32:	74 72                	je     da6 <mbh-0x2ff25a>
 d34:	33 32                	xor    (%edx),%esi
 d36:	5f                   	pop    %edi
 d37:	68 64 6c 72 00       	push   $0x726c64
 d3c:	74 61                	je     d9f <mbh-0x2ff261>
 d3e:	73 6b                	jae    dab <mbh-0x2ff255>
 d40:	5f                   	pop    %edi
 d41:	74 00                	je     d43 <mbh-0x2ff2bd>
 d43:	6e                   	outsb  %ds:(%esi),(%dx)
 d44:	65 78 74             	gs js  dbb <mbh-0x2ff245>
 d47:	5f                   	pop    %edi
 d48:	74 61                	je     dab <mbh-0x2ff255>
 d4a:	73 6b                	jae    db7 <mbh-0x2ff249>
 d4c:	00 73 65             	add    %dh,0x65(%ebx)
 d4f:	6c                   	insb   (%dx),%es:(%edi)
 d50:	65 63 74 6f 72       	arpl   %si,%gs:0x72(%edi,%ebp,2)
 d55:	00 7a 65             	add    %bh,0x65(%edx)
 d58:	72 6f                	jb     dc9 <mbh-0x2ff237>
 d5a:	5f                   	pop    %edi
 d5b:	31 00                	xor    %eax,(%eax)
 d5d:	7a 65                	jp     dc4 <mbh-0x2ff23c>
 d5f:	72 6f                	jb     dd0 <mbh-0x2ff230>
 d61:	5f                   	pop    %edi
 d62:	32 00                	xor    (%eax),%al
 d64:	74 73                	je     dd9 <mbh-0x2ff227>
 d66:	73 5f                	jae    dc7 <mbh-0x2ff239>
 d68:	74 00                	je     d6a <mbh-0x2ff296>
 d6a:	6e                   	outsb  %ds:(%esi),(%dx)
 d6b:	65 78 74             	gs js  de2 <mbh-0x2ff21e>
 d6e:	5f                   	pop    %edi
 d6f:	65 73 70             	gs jae de2 <mbh-0x2ff21e>
 d72:	00 67 70             	add    %ah,0x70(%edi)
 d75:	72 5f                	jb     dd6 <mbh-0x2ff22a>
 d77:	74 00                	je     d79 <mbh-0x2ff287>
 d79:	2e 2e 2f             	cs cs das 
 d7c:	6b 65 72 6e          	imul   $0x6e,0x72(%ebp),%esp
 d80:	65 6c                	gs insb (%dx),%es:(%edi)
 d82:	2f                   	das    
 d83:	63 6f 72             	arpl   %bp,0x72(%edi)
 d86:	65 2f                	gs das 
 d88:	69 64 74 2e 73 00 65 	imul   $0x78650073,0x2e(%esp,%esi,2),%esp
 d8f:	78 
 d90:	63 65 70             	arpl   %sp,0x70(%ebp)
 d93:	74 69                	je     dfe <mbh-0x2ff202>
 d95:	6f                   	outsl  %ds:(%esi),(%dx)
 d96:	6e                   	outsb  %ds:(%esi),(%dx)
 d97:	5f                   	pop    %edi
 d98:	6e                   	outsb  %ds:(%esi),(%dx)
 d99:	61                   	popa   
 d9a:	6d                   	insl   (%dx),%es:(%edi)
 d9b:	65 73 00             	gs jae d9e <mbh-0x2ff262>
 d9e:	2e 2e 2f             	cs cs das 
 da1:	6b 65 72 6e          	imul   $0x6e,0x72(%ebp),%esp
 da5:	65 6c                	gs insb (%dx),%es:(%edi)
 da7:	2f                   	das    
 da8:	63 6f 72             	arpl   %bp,0x72(%edi)
 dab:	65 2f                	gs das 
 dad:	65 78 63             	gs js  e13 <mbh-0x2ff1ed>
 db0:	70 2e                	jo     de0 <mbh-0x2ff220>
 db2:	63 00                	arpl   %ax,(%eax)
 db4:	65 78 63             	gs js  e1a <mbh-0x2ff1e6>
 db7:	70 5f                	jo     e18 <mbh-0x2ff1e8>
 db9:	68 64 6c 72 00       	push   $0x726c64
 dbe:	5f                   	pop    %edi
 dbf:	5f                   	pop    %edi
 dc0:	6b 65 72 6e          	imul   $0x6e,0x72(%ebp),%esp
 dc4:	65 6c                	gs insb (%dx),%es:(%edi)
 dc6:	5f                   	pop    %edi
 dc7:	73 74                	jae    e3d <mbh-0x2ff1c3>
 dc9:	61                   	popa   
 dca:	72 74                	jb     e40 <mbh-0x2ff1c0>
 dcc:	5f                   	pop    %edi
 dcd:	5f                   	pop    %edi
 dce:	00 2e                	add    %ch,(%esi)
 dd0:	2e 2f                	cs das 
 dd2:	6b 65 72 6e          	imul   $0x6e,0x72(%ebp),%esp
 dd6:	65 6c                	gs insb (%dx),%es:(%edi)
 dd8:	2f                   	das    
 dd9:	63 6f 72             	arpl   %bp,0x72(%edi)
 ddc:	65 2f                	gs das 
 dde:	73 74                	jae    e54 <mbh-0x2ff1ac>
 de0:	61                   	popa   
 de1:	63 6b 2e             	arpl   %bp,0x2e(%ebx)
 de4:	63 00                	arpl   %ax,(%eax)
 de6:	73 74                	jae    e5c <mbh-0x2ff1a4>
 de8:	61                   	popa   
 de9:	63 6b 5f             	arpl   %bp,0x5f(%ebx)
 dec:	74 72                	je     e60 <mbh-0x2ff1a0>
 dee:	61                   	popa   
 def:	63 65 00             	arpl   %sp,0x0(%ebp)
 df2:	66 72 6f             	data16 jb e64 <mbh-0x2ff19c>
 df5:	6d                   	insl   (%dx),%es:(%edi)
 df6:	00 2e                	add    %ch,(%esi)
 df8:	2e 2f                	cs das 
 dfa:	6b 65 72 6e          	imul   $0x6e,0x72(%ebp),%esp
 dfe:	65 6c                	gs insb (%dx),%es:(%edi)
 e00:	2f                   	das    
 e01:	63 6f 72             	arpl   %bp,0x72(%edi)
 e04:	65 2f                	gs das 
 e06:	73 77                	jae    e7f <mbh-0x2ff181>
 e08:	69 74 63 68 5f 73 74 	imul   $0x6174735f,0x68(%ebx,%eiz,2),%esi
 e0f:	61 
 e10:	63 6b 2e             	arpl   %bp,0x2e(%ebx)
 e13:	73 00                	jae    e15 <mbh-0x2ff1eb>
 e15:	62 61 73             	bound  %esp,0x73(%ecx)
 e18:	65 5f                	gs pop %edi
 e1a:	31 00                	xor    %eax,(%eax)
 e1c:	62 61 73             	bound  %esp,0x73(%ecx)
 e1f:	65 5f                	gs pop %edi
 e21:	32 00                	xor    (%eax),%al
 e23:	62 61 73             	bound  %esp,0x73(%ecx)
 e26:	65 5f                	gs pop %edi
 e28:	33 00                	xor    (%eax),%eax
 e2a:	6c                   	insb   (%dx),%es:(%edi)
 e2b:	69 6d 69 74 5f 32 00 	imul   $0x325f74,0x69(%ebp),%ebp
 e32:	2e 2e 2f             	cs cs das 
 e35:	6c                   	insb   (%dx),%es:(%edi)
 e36:	69 62 2f 63 6f 72 65 	imul   $0x65726f63,0x2f(%edx),%esp
 e3d:	2f                   	das    
 e3e:	67 64 74 2e          	addr16 fs je e70 <mbh-0x2ff190>
 e42:	63 00                	arpl   %ax,(%eax)
 e44:	70 72                	jo     eb8 <mbh-0x2ff148>
 e46:	69 6e 74 5f 67 64 74 	imul   $0x7464675f,0x74(%esi),%ebp
 e4d:	00 67 64             	add    %ah,0x64(%edi)
 e50:	74 72                	je     ec4 <mbh-0x2ff13c>
 e52:	00 73 65             	add    %dh,0x65(%ebx)
 e55:	74 5f                	je     eb6 <mbh-0x2ff14a>
 e57:	65 61                	gs popa 
 e59:	63 68 5f             	arpl   %bp,0x5f(%eax)
 e5c:	64 65 73 63          	fs gs jae ec3 <mbh-0x2ff13d>
 e60:	72 69                	jb     ecb <mbh-0x2ff135>
 e62:	70 74                	jo     ed8 <mbh-0x2ff128>
 e64:	6f                   	outsl  %ds:(%esi),(%dx)
 e65:	72 00                	jb     e67 <mbh-0x2ff199>
 e67:	73 65                	jae    ece <mbh-0x2ff132>
 e69:	67 5f                	addr16 pop %edi
 e6b:	64 65 73 63          	fs gs jae ed2 <mbh-0x2ff12e>
 e6f:	5f                   	pop    %edi
 e70:	74 00                	je     e72 <mbh-0x2ff18e>
 e72:	73 65                	jae    ed9 <mbh-0x2ff127>
 e74:	67 6d                	insl   (%dx),%es:(%di)
 e76:	65 6e                	outsb  %gs:(%esi),(%dx)
 e78:	74 5f                	je     ed9 <mbh-0x2ff127>
 e7a:	64 65 73 63          	fs gs jae ee1 <mbh-0x2ff11f>
 e7e:	72 69                	jb     ee9 <mbh-0x2ff117>
 e80:	70 74                	jo     ef6 <mbh-0x2ff10a>
 e82:	6f                   	outsl  %ds:(%esi),(%dx)
 e83:	72 00                	jb     e85 <mbh-0x2ff17b>
 e85:	69 6e 69 74 5f 67 64 	imul   $0x64675f74,0x69(%esi),%ebp
 e8c:	74 00                	je     e8e <mbh-0x2ff172>
 e8e:	67 64 74 5f          	addr16 fs je ef1 <mbh-0x2ff10f>
 e92:	72 65                	jb     ef9 <mbh-0x2ff107>
 e94:	67 5f                	addr16 pop %edi
 e96:	74 00                	je     e98 <mbh-0x2ff168>
 e98:	69 6e 69 74 5f 54 53 	imul   $0x53545f74,0x69(%esi),%ebp
 e9f:	53                   	push   %ebx
 ea0:	00 6c 69 6d          	add    %ch,0x6d(%ecx,%ebp,2)
 ea4:	69 74 5f 31 00 67 6c 	imul   $0x6f6c6700,0x31(%edi,%ebx,2),%esi
 eab:	6f 
 eac:	62 61 6c             	bound  %esp,0x6c(%ecx)
 eaf:	5f                   	pop    %edi
 eb0:	64 65 73 63          	fs gs jae f17 <mbh-0x2ff0e9>
 eb4:	72 69                	jb     f1f <mbh-0x2ff0e1>
 eb6:	70 74                	jo     f2c <mbh-0x2ff0d4>
 eb8:	6f                   	outsl  %ds:(%esi),(%dx)
 eb9:	72 5f                	jb     f1a <mbh-0x2ff0e6>
 ebb:	74 61                	je     f1e <mbh-0x2ff0e2>
 ebd:	62 6c 65 5f          	bound  %ebp,0x5f(%ebp,%eiz,2)
 ec1:	72 65                	jb     f28 <mbh-0x2ff0d8>
 ec3:	67 69 73 74 65 72 00 	imul   $0x73007265,0x74(%bp,%di),%esi
 eca:	73 
 ecb:	6c                   	insb   (%dx),%es:(%edi)
 ecc:	6f                   	outsl  %ds:(%esi),(%dx)
 ecd:	63 00                	arpl   %ax,(%eax)
 ecf:	2e 2e 2f             	cs cs das 
 ed2:	6c                   	insb   (%dx),%es:(%edi)
 ed3:	69 62 2f 63 6f 72 65 	imul   $0x65726f63,0x2f(%edx),%esp
 eda:	2f                   	das    
 edb:	74 61                	je     f3e <mbh-0x2ff0c2>
 edd:	73 6b                	jae    f4a <mbh-0x2ff0b6>
 edf:	2e 63 00             	arpl   %ax,%cs:(%eax)
 ee2:	73 61                	jae    f45 <mbh-0x2ff0bb>
 ee4:	76 65                	jbe    f4b <mbh-0x2ff0b5>
 ee6:	00 69 6e             	add    %ch,0x6e(%ecx)
 ee9:	69 74 5f 74 61 73 6b 	imul   $0x5f6b7361,0x74(%edi,%ebx,2),%esi
 ef0:	5f 
 ef1:	73 74                	jae    f67 <mbh-0x2ff099>
 ef3:	61                   	popa   
 ef4:	63 6b 00             	arpl   %bp,0x0(%ebx)
 ef7:	70 72                	jo     f6b <mbh-0x2ff095>
 ef9:	69 6e 74 5f 74 61 73 	imul   $0x7361745f,0x74(%esi),%ebp
 f00:	6b 00 64             	imul   $0x64,(%eax),%eax
 f03:	6c                   	insb   (%dx),%es:(%edi)
 f04:	6f                   	outsl  %ds:(%esi),(%dx)
 f05:	63 00                	arpl   %ax,(%eax)
 f07:	75 73                	jne    f7c <mbh-0x2ff084>
 f09:	72 5f                	jb     f6a <mbh-0x2ff096>
 f0b:	73 74                	jae    f81 <mbh-0x2ff07f>
 f0d:	61                   	popa   
 f0e:	63 6b 5f             	arpl   %bp,0x5f(%ebx)
 f11:	65 62 70 00          	bound  %esi,%gs:0x0(%eax)
 f15:	69 6e 69 74 5f 74 61 	imul   $0x61745f74,0x69(%esi),%ebp
 f1c:	73 6b                	jae    f89 <mbh-0x2ff077>
 f1e:	00 6d 65             	add    %ch,0x65(%ebp)
 f21:	6d                   	insl   (%dx),%es:(%edi)
 f22:	63 70 79             	arpl   %si,0x79(%eax)
 f25:	00 74 70 2e          	add    %dh,0x2e(%eax,%esi,2)
 f29:	63 00                	arpl   %ax,(%eax)
 f2b:	75 73                	jne    fa0 <mbh-0x2ff060>
 f2d:	72 31                	jb     f60 <mbh-0x2ff0a0>
 f2f:	5f                   	pop    %edi
 f30:	74 61                	je     f93 <mbh-0x2ff06d>
 f32:	73 6b                	jae    f9f <mbh-0x2ff061>
 f34:	00 63 70             	add    %ah,0x70(%ebx)
 f37:	74 5f                	je     f98 <mbh-0x2ff068>
 f39:	75 73                	jne    fae <mbh-0x2ff052>
 f3b:	65 72 32             	gs jb  f70 <mbh-0x2ff090>
 f3e:	00 69 6e             	add    %ch,0x6e(%ecx)
 f41:	69 74 69 61 6c 69 73 	imul   $0x6573696c,0x61(%ecx,%ebp,2),%esi
 f48:	65 
 f49:	5f                   	pop    %edi
 f4a:	61                   	popa   
 f4b:	6c                   	insb   (%dx),%es:(%edi)
 f4c:	6c                   	insb   (%dx),%es:(%edi)
 f4d:	5f                   	pop    %edi
 f4e:	74 61                	je     fb1 <mbh-0x2ff04f>
 f50:	73 6b                	jae    fbd <mbh-0x2ff043>
 f52:	73 00                	jae    f54 <mbh-0x2ff0ac>
 f54:	75 73                	jne    fc9 <mbh-0x2ff037>
 f56:	72 32                	jb     f8a <mbh-0x2ff076>
 f58:	5f                   	pop    %edi
 f59:	74 61                	je     fbc <mbh-0x2ff044>
 f5b:	73 6b                	jae    fc8 <mbh-0x2ff038>
 f5d:	00 63 70             	add    %ah,0x70(%ebx)
 f60:	74 5f                	je     fc1 <mbh-0x2ff03f>
 f62:	75 73                	jne    fd7 <mbh-0x2ff029>
 f64:	65 72 31             	gs jb  f98 <mbh-0x2ff068>
 f67:	00 75 73             	add    %dh,0x73(%ebp)
 f6a:	65 72 31             	gs jb  f9e <mbh-0x2ff062>
 f6d:	5f                   	pop    %edi
 f6e:	70 67                	jo     fd7 <mbh-0x2ff029>
 f70:	64 00 6b 65          	add    %ch,%fs:0x65(%ebx)
 f74:	72 6e                	jb     fe4 <mbh-0x2ff01c>
 f76:	65 6c                	gs insb (%dx),%es:(%edi)
 f78:	5f                   	pop    %edi
 f79:	70 67                	jo     fe2 <mbh-0x2ff01e>
 f7b:	64 00 73 79          	add    %dh,%fs:0x79(%ebx)
 f7f:	73 5f                	jae    fe0 <mbh-0x2ff020>
 f81:	63 6f 75             	arpl   %bp,0x75(%edi)
 f84:	6e                   	outsb  %ds:(%esi),(%dx)
 f85:	74 65                	je     fec <mbh-0x2ff014>
 f87:	72 00                	jb     f89 <mbh-0x2ff077>
 f89:	75 73                	jne    ffe <mbh-0x2ff002>
 f8b:	65 72 32             	gs jb  fc0 <mbh-0x2ff040>
 f8e:	5f                   	pop    %edi
 f8f:	70 67                	jo     ff8 <mbh-0x2ff008>
 f91:	64 00 6b 72          	add    %ch,%fs:0x72(%ebx)
 f95:	6e                   	outsb  %ds:(%esi),(%dx)
 f96:	5f                   	pop    %edi
 f97:	74 61                	je     ffa <mbh-0x2ff006>
 f99:	73 6b                	jae    1006 <mbh-0x2feffa>
	...

Disassembly of section .debug_ranges:

00000000 <.debug_ranges>:
   0:	95                   	xchg   %eax,%ebp
   1:	06                   	push   %es
   2:	00 00                	add    %al,(%eax)
   4:	21 07                	and    %eax,(%edi)
   6:	00 00                	add    %al,(%eax)
   8:	26 07                	es pop %es
   a:	00 00                	add    %al,(%eax)
   c:	40                   	inc    %eax
   d:	07                   	pop    %es
	...
  16:	00 00                	add    %al,(%eax)
  18:	ff                   	(bad)  
  19:	ff                   	(bad)  
  1a:	ff                   	(bad)  
  1b:	ff 00                	incl   (%eax)
  1d:	00 00                	add    %al,(%eax)
  1f:	00 0a                	add    %cl,(%edx)
  21:	3f                   	aas    
  22:	30 00                	xor    %al,(%eax)
  24:	24 3f                	and    $0x3f,%al
  26:	30 00                	xor    %al,(%eax)
  28:	10 20                	adc    %ah,(%eax)
  2a:	30 00                	xor    %al,(%eax)
  2c:	0c 30                	or     $0x30,%al
  2e:	30 00                	xor    %al,(%eax)
	...
  38:	1d 47 30 00 35       	sbb    $0x35003047,%eax
  3d:	48                   	dec    %eax
  3e:	30 00                	xor    %al,(%eax)
  40:	00 00                	add    %al,(%eax)
  42:	40                   	inc    %eax
  43:	00 11                	add    %dl,(%ecx)
  45:	00 40 00             	add    %al,0x0(%eax)
  48:	00 00                	add    %al,(%eax)
  4a:	80 00 13             	addb   $0x13,(%eax)
  4d:	00 80 00 00 00 00    	add    %al,0x0(%eax)
  53:	00 00                	add    %al,(%eax)
  55:	00 00                	add    %al,(%eax)
	...
